Microsoft (R) COFF Binary File Dumper Version 6.00.8168
Copyright (C) Microsoft Corp 1992-1998. All rights reserved.


Dump of file main.exe

File Type: EXECUTABLE IMAGE

  00401000: 55                 push        ebp
  00401001: 8B EC              mov         ebp,esp
  00401003: 83 EC 40           sub         esp,40h
  00401006: 53                 push        ebx
  00401007: 56                 push        esi
  00401008: 57                 push        edi
  00401009: 8D 7D C0           lea         edi,[ebp-40h]
  0040100C: B9 10 00 00 00     mov         ecx,10h
  00401011: B8 CC CC CC CC     mov         eax,0CCCCCCCCh
  00401016: F3 AB              rep stos    dword ptr [edi]
  00401018: E8 13 00 00 00     call        00401030
  0040101D: 33 C0              xor         eax,eax
  0040101F: 5F                 pop         edi
  00401020: 5E                 pop         esi
  00401021: 5B                 pop         ebx
  00401022: 83 C4 40           add         esp,40h
  00401025: 3B EC              cmp         ebp,esp
  00401027: E8 54 00 00 00     call        00401080
  0040102C: 8B E5              mov         esp,ebp
  0040102E: 5D                 pop         ebp
  0040102F: C3                 ret
  00401030: 55                 push        ebp
  00401031: 8B EC              mov         ebp,esp
  00401033: 83 EC 44           sub         esp,44h
  00401036: 53                 push        ebx
  00401037: 56                 push        esi
  00401038: 57                 push        edi
  00401039: 8D 7D BC           lea         edi,[ebp-44h]
  0040103C: B9 11 00 00 00     mov         ecx,11h
  00401041: B8 CC CC CC CC     mov         eax,0CCCCCCCCh
  00401046: F3 AB              rep stos    dword ptr [edi]
  00401048: C7 05 10 FB 40 00  mov         dword ptr ds:[0040FB10h],40D034h
            34 D0 40 00
  00401052: A1 38 D0 40 00     mov         eax,[0040D038]
  00401057: 8B 08              mov         ecx,dword ptr [eax]
  00401059: 89 4D FC           mov         dword ptr [ebp-4],ecx
  0040105C: 8B 15 38 D0 40 00  mov         edx,dword ptr ds:[0040D038h]
  00401062: A1 10 FB 40 00     mov         eax,[0040FB10]
  00401067: 8B 08              mov         ecx,dword ptr [eax]
  00401069: 89 0A              mov         dword ptr [edx],ecx
  0040106B: 8B 15 10 FB 40 00  mov         edx,dword ptr ds:[0040FB10h]
  00401071: 8B 45 FC           mov         eax,dword ptr [ebp-4]
  00401074: 89 02              mov         dword ptr [edx],eax
  00401076: 5F                 pop         edi
  00401077: 5E                 pop         esi
  00401078: 5B                 pop         ebx
  00401079: 8B E5              mov         esp,ebp
  0040107B: 5D                 pop         ebp
  0040107C: C3                 ret
  0040107D: CC                 int         3
  0040107E: CC                 int         3
  0040107F: CC                 int         3
  00401080: 75 01              jne         00401083
  00401082: C3                 ret
  00401083: 55                 push        ebp
  00401084: 8B EC              mov         ebp,esp
  00401086: 83 EC 00           sub         esp,0
  00401089: 50                 push        eax
  0040108A: 52                 push        edx
  0040108B: 53                 push        ebx
  0040108C: 56                 push        esi
  0040108D: 57                 push        edi
  0040108E: 68 E4 B0 40 00     push        40B0E4h
  00401093: 68 E0 B0 40 00     push        40B0E0h
  00401098: 6A 2A              push        2Ah
  0040109A: 68 D0 B0 40 00     push        40B0D0h
  0040109F: 6A 01              push        1
  004010A1: E8 BA 01 00 00     call        00401260
  004010A6: 83 C4 14           add         esp,14h
  004010A9: 83 F8 01           cmp         eax,1
  004010AC: 75 01              jne         004010AF
  004010AE: CC                 int         3
  004010AF: 5F                 pop         edi
  004010B0: 5E                 pop         esi
  004010B1: 5B                 pop         ebx
  004010B2: 5A                 pop         edx
  004010B3: 58                 pop         eax
  004010B4: 8B E5              mov         esp,ebp
  004010B6: 5D                 pop         ebp
  004010B7: C3                 ret
  004010B8: CC                 int         3
  004010B9: CC                 int         3
  004010BA: CC                 int         3
  004010BB: CC                 int         3
  004010BC: CC                 int         3
  004010BD: CC                 int         3
  004010BE: CC                 int         3
  004010BF: CC                 int         3
  004010C0: 55                 push        ebp
  004010C1: 8B EC              mov         ebp,esp
  004010C3: 6A FF              push        0FFh
  004010C5: 68 C0 B1 40 00     push        40B1C0h
  004010CA: 68 48 2C 40 00     push        402C48h
  004010CF: 64 A1 00 00 00 00  mov         eax,fs:[00000000]
  004010D5: 50                 push        eax
  004010D6: 64 89 25 00 00 00  mov         dword ptr fs:[00000000h],esp
            00
  004010DD: 83 C4 F0           add         esp,0F0h
  004010E0: 53                 push        ebx
  004010E1: 56                 push        esi
  004010E2: 57                 push        edi
  004010E3: 89 65 E8           mov         dword ptr [ebp-18h],esp
  004010E6: FF 15 04 B0 40 00  call        dword ptr ds:[0040B004h]
  004010EC: A3 4C F9 40 00     mov         [0040F94C],eax
  004010F1: A1 4C F9 40 00     mov         eax,[0040F94C]
  004010F6: C1 E8 08           shr         eax,8
  004010F9: 25 FF 00 00 00     and         eax,0FFh
  004010FE: A3 58 F9 40 00     mov         [0040F958],eax
  00401103: 8B 0D 4C F9 40 00  mov         ecx,dword ptr ds:[0040F94Ch]
  00401109: 81 E1 FF 00 00 00  and         ecx,0FFh
  0040110F: 89 0D 54 F9 40 00  mov         dword ptr ds:[0040F954h],ecx
  00401115: 8B 15 54 F9 40 00  mov         edx,dword ptr ds:[0040F954h]
  0040111B: C1 E2 08           shl         edx,8
  0040111E: 03 15 58 F9 40 00  add         edx,dword ptr ds:[0040F958h]
  00401124: 89 15 50 F9 40 00  mov         dword ptr ds:[0040F950h],edx
  0040112A: A1 4C F9 40 00     mov         eax,[0040F94C]
  0040112F: C1 E8 10           shr         eax,10h
  00401132: 25 FF FF 00 00     and         eax,0FFFFh
  00401137: A3 4C F9 40 00     mov         [0040F94C],eax
  0040113C: 6A 00              push        0
  0040113E: E8 7D 19 00 00     call        00402AC0
  00401143: 83 C4 04           add         esp,4
  00401146: 85 C0              test        eax,eax
  00401148: 75 0A              jne         00401154
  0040114A: 6A 1C              push        1Ch
  0040114C: E8 CF 00 00 00     call        00401220
  00401151: 83 C4 04           add         esp,4
  00401154: C7 45 FC 00 00 00  mov         dword ptr [ebp-4],0
            00
  0040115B: E8 C0 13 00 00     call        00402520
  00401160: FF 15 00 B0 40 00  call        dword ptr ds:[0040B000h]
  00401166: A3 9C 0E 41 00     mov         [00410E9C],eax
  0040116B: E8 90 11 00 00     call        00402300
  00401170: A3 30 F9 40 00     mov         [0040F930],eax
  00401175: E8 76 0C 00 00     call        00401DF0
  0040117A: E8 21 0B 00 00     call        00401CA0
  0040117F: E8 7C 07 00 00     call        00401900
  00401184: 8B 0D 68 F9 40 00  mov         ecx,dword ptr ds:[0040F968h]
  0040118A: 89 0D 6C F9 40 00  mov         dword ptr ds:[0040F96Ch],ecx
  00401190: 8B 15 68 F9 40 00  mov         edx,dword ptr ds:[0040F968h]
  00401196: 52                 push        edx
  00401197: A1 60 F9 40 00     mov         eax,[0040F960]
  0040119C: 50                 push        eax
  0040119D: 8B 0D 5C F9 40 00  mov         ecx,dword ptr ds:[0040F95Ch]
  004011A3: 51                 push        ecx
  004011A4: E8 57 FE FF FF     call        00401000
  004011A9: 83 C4 0C           add         esp,0Ch
  004011AC: 89 45 E4           mov         dword ptr [ebp-1Ch],eax
  004011AF: 8B 55 E4           mov         edx,dword ptr [ebp-1Ch]
  004011B2: 52                 push        edx
  004011B3: E8 88 07 00 00     call        00401940
  004011B8: 8B 45 EC           mov         eax,dword ptr [ebp-14h]
  004011BB: 8B 08              mov         ecx,dword ptr [eax]
  004011BD: 8B 11              mov         edx,dword ptr [ecx]
  004011BF: 89 55 E0           mov         dword ptr [ebp-20h],edx
  004011C2: 8B 45 EC           mov         eax,dword ptr [ebp-14h]
  004011C5: 50                 push        eax
  004011C6: 8B 4D E0           mov         ecx,dword ptr [ebp-20h]
  004011C9: 51                 push        ecx
  004011CA: E8 C1 08 00 00     call        00401A90
  004011CF: 83 C4 08           add         esp,8
  004011D2: C3                 ret
  004011D3: 8B 65 E8           mov         esp,dword ptr [ebp-18h]
  004011D6: 8B 55 E0           mov         edx,dword ptr [ebp-20h]
  004011D9: 52                 push        edx
  004011DA: E8 81 07 00 00     call        00401960
  004011DF: 8B 4D F0           mov         ecx,dword ptr [ebp-10h]
  004011E2: 64 89 0D 00 00 00  mov         dword ptr fs:[00000000h],ecx
            00
  004011E9: 5F                 pop         edi
  004011EA: 5E                 pop         esi
  004011EB: 5B                 pop         ebx
  004011EC: 8B E5              mov         esp,ebp
  004011EE: 5D                 pop         ebp
  004011EF: C3                 ret
  004011F0: 55                 push        ebp
  004011F1: 8B EC              mov         ebp,esp
  004011F3: 83 3D 38 F9 40 00  cmp         dword ptr ds:[0040F938h],2
            02
  004011FA: 74 05              je          00401201
  004011FC: E8 1F 1B 00 00     call        00402D20
  00401201: 8B 45 08           mov         eax,dword ptr [ebp+8]
  00401204: 50                 push        eax
  00401205: E8 66 1B 00 00     call        00402D70
  0040120A: 83 C4 04           add         esp,4
  0040120D: 68 FF 00 00 00     push        0FFh
  00401212: FF 15 3C D0 40 00  call        dword ptr ds:[0040D03Ch]
  00401218: 83 C4 04           add         esp,4
  0040121B: 5D                 pop         ebp
  0040121C: C3                 ret
  0040121D: CC                 int         3
  0040121E: CC                 int         3
  0040121F: CC                 int         3
  00401220: 55                 push        ebp
  00401221: 8B EC              mov         ebp,esp
  00401223: 83 3D 38 F9 40 00  cmp         dword ptr ds:[0040F938h],2
            02
  0040122A: 74 05              je          00401231
  0040122C: E8 EF 1A 00 00     call        00402D20
  00401231: 8B 45 08           mov         eax,dword ptr [ebp+8]
  00401234: 50                 push        eax
  00401235: E8 36 1B 00 00     call        00402D70
  0040123A: 83 C4 04           add         esp,4
  0040123D: 68 FF 00 00 00     push        0FFh
  00401242: FF 15 08 B0 40 00  call        dword ptr ds:[0040B008h]
  00401248: 5D                 pop         ebp
  00401249: C3                 ret
  0040124A: CC                 int         3
  0040124B: CC                 int         3
  0040124C: CC                 int         3
  0040124D: CC                 int         3
  0040124E: CC                 int         3
  0040124F: CC                 int         3
  00401250: 55                 push        ebp
  00401251: 8B EC              mov         ebp,esp
  00401253: FF 15 0C B0 40 00  call        dword ptr ds:[0040B00Ch]
  00401259: 5D                 pop         ebp
  0040125A: C3                 ret
  0040125B: CC                 int         3
  0040125C: CC                 int         3
  0040125D: CC                 int         3
  0040125E: CC                 int         3
  0040125F: CC                 int         3
  00401260: 55                 push        ebp
  00401261: 8B EC              mov         ebp,esp
  00401263: B8 2C 30 00 00     mov         eax,302Ch
  00401268: E8 53 21 00 00     call        004033C0
  0040126D: 57                 push        edi
  0040126E: C6 85 F8 CF FF FF  mov         byte ptr [ebp+FFFFCFF8h],0
            00
  00401275: B9 FF 03 00 00     mov         ecx,3FFh
  0040127A: 33 C0              xor         eax,eax
  0040127C: 8D BD F9 CF FF FF  lea         edi,[ebp+FFFFCFF9h]
  00401282: F3 AB              rep stos    dword ptr [edi]
  00401284: 66 AB              stos        word ptr [edi]
  00401286: AA                 stos        byte ptr [edi]
  00401287: C6 85 F8 DF FF FF  mov         byte ptr [ebp+FFFFDFF8h],0
            00
  0040128E: B9 FF 03 00 00     mov         ecx,3FFh
  00401293: 33 C0              xor         eax,eax
  00401295: 8D BD F9 DF FF FF  lea         edi,[ebp+FFFFDFF9h]
  0040129B: F3 AB              rep stos    dword ptr [edi]
  0040129D: 66 AB              stos        word ptr [edi]
  0040129F: AA                 stos        byte ptr [edi]
  004012A0: C6 85 00 F0 FF FF  mov         byte ptr [ebp+FFFFF000h],0
            00
  004012A7: B9 FF 03 00 00     mov         ecx,3FFh
  004012AC: 33 C0              xor         eax,eax
  004012AE: 8D BD 01 F0 FF FF  lea         edi,[ebp+FFFFF001h]
  004012B4: F3 AB              rep stos    dword ptr [edi]
  004012B6: 66 AB              stos        word ptr [edi]
  004012B8: AA                 stos        byte ptr [edi]
  004012B9: 8D 45 1C           lea         eax,[ebp+1Ch]
  004012BC: 89 85 FC EF FF FF  mov         dword ptr [ebp+FFFFEFFCh],eax
  004012C2: 83 7D 08 00        cmp         dword ptr [ebp+8],0
  004012C6: 7C 06              jl          004012CE
  004012C8: 83 7D 08 03        cmp         dword ptr [ebp+8],3
  004012CC: 7C 08              jl          004012D6
  004012CE: 83 C8 FF           or          eax,0FFh
  004012D1: E9 15 03 00 00     jmp         004015EB
  004012D6: 83 7D 08 02        cmp         dword ptr [ebp+8],2
  004012DA: 0F 85 A0 00 00 00  jne         00401380
  004012E0: 68 44 D0 40 00     push        40D044h
  004012E5: FF 15 28 B0 40 00  call        dword ptr ds:[0040B028h]
  004012EB: 85 C0              test        eax,eax
  004012ED: 0F 8E 8D 00 00 00  jle         00401380
  004012F3: 83 3D 3C F9 40 00  cmp         dword ptr ds:[0040F93Ch],0
            00
  004012FA: 75 42              jne         0040133E
  004012FC: 68 98 B2 40 00     push        40B298h
  00401301: FF 15 24 B0 40 00  call        dword ptr ds:[0040B024h]
  00401307: 89 85 F4 CF FF FF  mov         dword ptr [ebp+FFFFCFF4h],eax
  0040130D: 83 BD F4 CF FF FF  cmp         dword ptr [ebp+FFFFCFF4h],0
            00
  00401314: 74 20              je          00401336
  00401316: 68 8C B2 40 00     push        40B28Ch
  0040131B: 8B 8D F4 CF FF FF  mov         ecx,dword ptr [ebp+FFFFCFF4h]
  00401321: 51                 push        ecx
  00401322: FF 15 20 B0 40 00  call        dword ptr ds:[0040B020h]
  00401328: A3 3C F9 40 00     mov         [0040F93C],eax
  0040132D: 83 3D 3C F9 40 00  cmp         dword ptr ds:[0040F93Ch],0
            00
  00401334: 75 08              jne         0040133E
  00401336: 83 C8 FF           or          eax,0FFh
  00401339: E9 AD 02 00 00     jmp         004015EB
  0040133E: 8B 55 10           mov         edx,dword ptr [ebp+10h]
  00401341: 52                 push        edx
  00401342: 8B 45 0C           mov         eax,dword ptr [ebp+0Ch]
  00401345: 50                 push        eax
  00401346: 68 58 B2 40 00     push        40B258h
  0040134B: 8D 8D F8 DF FF FF  lea         ecx,[ebp+FFFFDFF8h]
  00401351: 51                 push        ecx
  00401352: FF 15 3C F9 40 00  call        dword ptr ds:[0040F93Ch]
  00401358: 83 C4 10           add         esp,10h
  0040135B: 8D 95 F8 DF FF FF  lea         edx,[ebp+FFFFDFF8h]
  00401361: 52                 push        edx
  00401362: FF 15 1C B0 40 00  call        dword ptr ds:[0040B01Ch]
  00401368: 68 44 D0 40 00     push        40D044h
  0040136D: FF 15 18 B0 40 00  call        dword ptr ds:[0040B018h]
  00401373: E8 D8 FE FF FF     call        00401250
  00401378: 83 C8 FF           or          eax,0FFh
  0040137B: E9 6B 02 00 00     jmp         004015EB
  00401380: 83 7D 18 00        cmp         dword ptr [ebp+18h],0
  00401384: 74 37              je          004013BD
  00401386: 8B 85 FC EF FF FF  mov         eax,dword ptr [ebp+FFFFEFFCh]
  0040138C: 50                 push        eax
  0040138D: 8B 4D 18           mov         ecx,dword ptr [ebp+18h]
  00401390: 51                 push        ecx
  00401391: 68 ED 0F 00 00     push        0FEDh
  00401396: 8D 95 00 F0 FF FF  lea         edx,[ebp+FFFFF000h]
  0040139C: 52                 push        edx
  0040139D: E8 1E 1F 00 00     call        004032C0
  004013A2: 83 C4 10           add         esp,10h
  004013A5: 85 C0              test        eax,eax
  004013A7: 7D 14              jge         004013BD
  004013A9: 68 2C B2 40 00     push        40B22Ch
  004013AE: 8D 85 00 F0 FF FF  lea         eax,[ebp+FFFFF000h]
  004013B4: 50                 push        eax
  004013B5: E8 16 1E 00 00     call        004031D0
  004013BA: 83 C4 08           add         esp,8
  004013BD: 83 7D 08 02        cmp         dword ptr [ebp+8],2
  004013C1: 75 32              jne         004013F5
  004013C3: 83 7D 18 00        cmp         dword ptr [ebp+18h],0
  004013C7: 74 0C              je          004013D5
  004013C9: C7 85 D8 CF FF FF  mov         dword ptr [ebp+FFFFCFD8h],40B218h
            18 B2 40 00
  004013D3: EB 0A              jmp         004013DF
  004013D5: C7 85 D8 CF FF FF  mov         dword ptr [ebp+FFFFCFD8h],40B204h
            04 B2 40 00
  004013DF: 8B 8D D8 CF FF FF  mov         ecx,dword ptr [ebp+FFFFCFD8h]
  004013E5: 51                 push        ecx
  004013E6: 8D 95 F8 CF FF FF  lea         edx,[ebp+FFFFCFF8h]
  004013EC: 52                 push        edx
  004013ED: E8 DE 1D 00 00     call        004031D0
  004013F2: 83 C4 08           add         esp,8
  004013F5: 8D 85 00 F0 FF FF  lea         eax,[ebp+FFFFF000h]
  004013FB: 50                 push        eax
  004013FC: 8D 8D F8 CF FF FF  lea         ecx,[ebp+FFFFCFF8h]
  00401402: 51                 push        ecx
  00401403: E8 D8 1D 00 00     call        004031E0
  00401408: 83 C4 08           add         esp,8
  0040140B: 83 7D 08 02        cmp         dword ptr [ebp+8],2
  0040140F: 75 39              jne         0040144A
  00401411: 8B 55 08           mov         edx,dword ptr [ebp+8]
  00401414: 8B 04 95 48 D0 40  mov         eax,dword ptr [edx*4+0040D048h]
            00
  0040141B: 83 E0 01           and         eax,1
  0040141E: 85 C0              test        eax,eax
  00401420: 74 14              je          00401436
  00401422: 68 00 B2 40 00     push        40B200h
  00401427: 8D 8D F8 CF FF FF  lea         ecx,[ebp+FFFFCFF8h]
  0040142D: 51                 push        ecx
  0040142E: E8 AD 1D 00 00     call        004031E0
  00401433: 83 C4 08           add         esp,8
  00401436: 68 FC B1 40 00     push        40B1FCh
  0040143B: 8D 95 F8 CF FF FF  lea         edx,[ebp+FFFFCFF8h]
  00401441: 52                 push        edx
  00401442: E8 99 1D 00 00     call        004031E0
  00401447: 83 C4 08           add         esp,8
  0040144A: 83 7D 0C 00        cmp         dword ptr [ebp+0Ch],0
  0040144E: 74 42              je          00401492
  00401450: 8D 85 F8 CF FF FF  lea         eax,[ebp+FFFFCFF8h]
  00401456: 50                 push        eax
  00401457: 8B 4D 10           mov         ecx,dword ptr [ebp+10h]
  0040145A: 51                 push        ecx
  0040145B: 8B 55 0C           mov         edx,dword ptr [ebp+0Ch]
  0040145E: 52                 push        edx
  0040145F: 68 F0 B1 40 00     push        40B1F0h
  00401464: 68 00 10 00 00     push        1000h
  00401469: 8D 85 F8 DF FF FF  lea         eax,[ebp+FFFFDFF8h]
  0040146F: 50                 push        eax
  00401470: E8 5B 1C 00 00     call        004030D0
  00401475: 83 C4 18           add         esp,18h
  00401478: 85 C0              test        eax,eax
  0040147A: 7D 14              jge         00401490
  0040147C: 68 2C B2 40 00     push        40B22Ch
  00401481: 8D 8D F8 DF FF FF  lea         ecx,[ebp+FFFFDFF8h]
  00401487: 51                 push        ecx
  00401488: E8 43 1D 00 00     call        004031D0
  0040148D: 83 C4 08           add         esp,8
  00401490: EB 16              jmp         004014A8
  00401492: 8D 95 F8 CF FF FF  lea         edx,[ebp+FFFFCFF8h]
  00401498: 52                 push        edx
  00401499: 8D 85 F8 DF FF FF  lea         eax,[ebp+FFFFDFF8h]
  0040149F: 50                 push        eax
  004014A0: E8 2B 1D 00 00     call        004031D0
  004014A5: 83 C4 08           add         esp,8
  004014A8: 83 3D 98 0E 41 00  cmp         dword ptr ds:[00410E98h],0
            00
  004014AF: 74 3B              je          004014EC
  004014B1: 8D 8D F8 EF FF FF  lea         ecx,[ebp+FFFFEFF8h]
  004014B7: 51                 push        ecx
  004014B8: 8D 95 F8 DF FF FF  lea         edx,[ebp+FFFFDFF8h]
  004014BE: 52                 push        edx
  004014BF: 8B 45 08           mov         eax,dword ptr [ebp+8]
  004014C2: 50                 push        eax
  004014C3: FF 15 98 0E 41 00  call        dword ptr ds:[00410E98h]
  004014C9: 83 C4 0C           add         esp,0Ch
  004014CC: 85 C0              test        eax,eax
  004014CE: 74 1C              je          004014EC
  004014D0: 83 7D 08 02        cmp         dword ptr [ebp+8],2
  004014D4: 75 0B              jne         004014E1
  004014D6: 68 44 D0 40 00     push        40D044h
  004014DB: FF 15 18 B0 40 00  call        dword ptr ds:[0040B018h]
  004014E1: 8B 85 F8 EF FF FF  mov         eax,dword ptr [ebp+FFFFEFF8h]
  004014E7: E9 FF 00 00 00     jmp         004015EB
  004014EC: 8B 4D 08           mov         ecx,dword ptr [ebp+8]
  004014EF: 8B 14 8D 48 D0 40  mov         edx,dword ptr [ecx*4+0040D048h]
            00
  004014F6: 83 E2 01           and         edx,1
  004014F9: 85 D2              test        edx,edx
  004014FB: 74 3E              je          0040153B
  004014FD: 8B 45 08           mov         eax,dword ptr [ebp+8]
  00401500: 83 3C 85 54 D0 40  cmp         dword ptr [eax*4+0040D054h],0FFh
            00 FF
  00401508: 74 31              je          0040153B
  0040150A: 6A 00              push        0
  0040150C: 8D 8D F0 CF FF FF  lea         ecx,[ebp+FFFFCFF0h]
  00401512: 51                 push        ecx
  00401513: 8D 95 F8 DF FF FF  lea         edx,[ebp+FFFFDFF8h]
  00401519: 52                 push        edx
  0040151A: E8 31 1B 00 00     call        00403050
  0040151F: 83 C4 04           add         esp,4
  00401522: 50                 push        eax
  00401523: 8D 85 F8 DF FF FF  lea         eax,[ebp+FFFFDFF8h]
  00401529: 50                 push        eax
  0040152A: 8B 4D 08           mov         ecx,dword ptr [ebp+8]
  0040152D: 8B 14 8D 54 D0 40  mov         edx,dword ptr [ecx*4+0040D054h]
            00
  00401534: 52                 push        edx
  00401535: FF 15 14 B0 40 00  call        dword ptr ds:[0040B014h]
  0040153B: 8B 45 08           mov         eax,dword ptr [ebp+8]
  0040153E: 8B 0C 85 48 D0 40  mov         ecx,dword ptr [eax*4+0040D048h]
            00
  00401545: 83 E1 02           and         ecx,2
  00401548: 85 C9              test        ecx,ecx
  0040154A: 74 0D              je          00401559
  0040154C: 8D 95 F8 DF FF FF  lea         edx,[ebp+FFFFDFF8h]
  00401552: 52                 push        edx
  00401553: FF 15 1C B0 40 00  call        dword ptr ds:[0040B01Ch]
  00401559: 8B 45 08           mov         eax,dword ptr [ebp+8]
  0040155C: 8B 0C 85 48 D0 40  mov         ecx,dword ptr [eax*4+0040D048h]
            00
  00401563: 83 E1 04           and         ecx,4
  00401566: 85 C9              test        ecx,ecx
  00401568: 74 6E              je          004015D8
  0040156A: 83 7D 10 00        cmp         dword ptr [ebp+10h],0
  0040156E: 74 1D              je          0040158D
  00401570: 6A 0A              push        0Ah
  00401572: 8D 95 DC CF FF FF  lea         edx,[ebp+FFFFCFDCh]
  00401578: 52                 push        edx
  00401579: 8B 45 10           mov         eax,dword ptr [ebp+10h]
  0040157C: 50                 push        eax
  0040157D: E8 AE 19 00 00     call        00402F30
  00401582: 83 C4 0C           add         esp,0Ch
  00401585: 89 85 D4 CF FF FF  mov         dword ptr [ebp+FFFFCFD4h],eax
  0040158B: EB 0A              jmp         00401597
  0040158D: C7 85 D4 CF FF FF  mov         dword ptr [ebp+FFFFCFD4h],0
            00 00 00 00
  00401597: 8D 8D 00 F0 FF FF  lea         ecx,[ebp+FFFFF000h]
  0040159D: 51                 push        ecx
  0040159E: 8B 55 14           mov         edx,dword ptr [ebp+14h]
  004015A1: 52                 push        edx
  004015A2: 8B 85 D4 CF FF FF  mov         eax,dword ptr [ebp+FFFFCFD4h]
  004015A8: 50                 push        eax
  004015A9: 8B 4D 0C           mov         ecx,dword ptr [ebp+0Ch]
  004015AC: 51                 push        ecx
  004015AD: 8B 55 08           mov         edx,dword ptr [ebp+8]
  004015B0: 52                 push        edx
  004015B1: E8 3A 00 00 00     call        004015F0
  004015B6: 83 C4 14           add         esp,14h
  004015B9: 89 85 F8 EF FF FF  mov         dword ptr [ebp+FFFFEFF8h],eax
  004015BF: 83 7D 08 02        cmp         dword ptr [ebp+8],2
  004015C3: 75 0B              jne         004015D0
  004015C5: 68 44 D0 40 00     push        40D044h
  004015CA: FF 15 18 B0 40 00  call        dword ptr ds:[0040B018h]
  004015D0: 8B 85 F8 EF FF FF  mov         eax,dword ptr [ebp+FFFFEFF8h]
  004015D6: EB 13              jmp         004015EB
  004015D8: 83 7D 08 02        cmp         dword ptr [ebp+8],2
  004015DC: 75 0B              jne         004015E9
  004015DE: 68 44 D0 40 00     push        40D044h
  004015E3: FF 15 18 B0 40 00  call        dword ptr ds:[0040B018h]
  004015E9: 33 C0              xor         eax,eax
  004015EB: 5F                 pop         edi
  004015EC: 8B E5              mov         esp,ebp
  004015EE: 5D                 pop         ebp
  004015EF: C3                 ret
  004015F0: 55                 push        ebp
  004015F1: 8B EC              mov         ebp,esp
  004015F3: B8 38 11 00 00     mov         eax,1138h
  004015F8: E8 C3 1D 00 00     call        004033C0
  004015FD: 83 7D 18 00        cmp         dword ptr [ebp+18h],0
  00401601: 75 25              jne         00401628
  00401603: 68 E8 B3 40 00     push        40B3E8h
  00401608: 6A 00              push        0
  0040160A: 68 DA 01 00 00     push        1DAh
  0040160F: 68 DC B3 40 00     push        40B3DCh
  00401614: 6A 02              push        2
  00401616: E8 45 FC FF FF     call        00401260
  0040161B: 83 C4 14           add         esp,14h
  0040161E: 83 F8 01           cmp         eax,1
  00401621: 75 05              jne         00401628
  00401623: E8 28 FC FF FF     call        00401250
  00401628: 33 C0              xor         eax,eax
  0040162A: 85 C0              test        eax,eax
  0040162C: 75 CF              jne         004015FD
  0040162E: 68 04 01 00 00     push        104h
  00401633: 8D 8D F8 FE FF FF  lea         ecx,[ebp+FFFFFEF8h]
  00401639: 51                 push        ecx
  0040163A: 6A 00              push        0
  0040163C: FF 15 2C B0 40 00  call        dword ptr ds:[0040B02Ch]
  00401642: 85 C0              test        eax,eax
  00401644: 75 14              jne         0040165A
  00401646: 68 C4 B3 40 00     push        40B3C4h
  0040164B: 8D 95 F8 FE FF FF  lea         edx,[ebp+FFFFFEF8h]
  00401651: 52                 push        edx
  00401652: E8 79 1B 00 00     call        004031D0
  00401657: 83 C4 08           add         esp,8
  0040165A: 8D 85 F8 FE FF FF  lea         eax,[ebp+FFFFFEF8h]
  00401660: 89 45 FC           mov         dword ptr [ebp-4],eax
  00401663: 8B 4D FC           mov         ecx,dword ptr [ebp-4]
  00401666: 51                 push        ecx
  00401667: E8 E4 19 00 00     call        00403050
  0040166C: 83 C4 04           add         esp,4
  0040166F: 83 F8 40           cmp         eax,40h
  00401672: 76 29              jbe         0040169D
  00401674: 8B 55 FC           mov         edx,dword ptr [ebp-4]
  00401677: 52                 push        edx
  00401678: E8 D3 19 00 00     call        00403050
  0040167D: 83 C4 04           add         esp,4
  00401680: 8B 4D FC           mov         ecx,dword ptr [ebp-4]
  00401683: 8D 54 01 C0        lea         edx,[ecx+eax-40h]
  00401687: 89 55 FC           mov         dword ptr [ebp-4],edx
  0040168A: 6A 03              push        3
  0040168C: 68 C0 B3 40 00     push        40B3C0h
  00401691: 8B 45 FC           mov         eax,dword ptr [ebp-4]
  00401694: 50                 push        eax
  00401695: E8 36 20 00 00     call        004036D0
  0040169A: 83 C4 0C           add         esp,0Ch
  0040169D: 8B 4D 14           mov         ecx,dword ptr [ebp+14h]
  004016A0: 89 8D F0 EE FF FF  mov         dword ptr [ebp+FFFFEEF0h],ecx
  004016A6: 83 BD F0 EE FF FF  cmp         dword ptr [ebp+FFFFEEF0h],0
            00
  004016AD: 74 49              je          004016F8
  004016AF: 8B 95 F0 EE FF FF  mov         edx,dword ptr [ebp+FFFFEEF0h]
  004016B5: 52                 push        edx
  004016B6: E8 95 19 00 00     call        00403050
  004016BB: 83 C4 04           add         esp,4
  004016BE: 83 F8 40           cmp         eax,40h
  004016C1: 76 35              jbe         004016F8
  004016C3: 8B 85 F0 EE FF FF  mov         eax,dword ptr [ebp+FFFFEEF0h]
  004016C9: 50                 push        eax
  004016CA: E8 81 19 00 00     call        00403050
  004016CF: 83 C4 04           add         esp,4
  004016D2: 8B 8D F0 EE FF FF  mov         ecx,dword ptr [ebp+FFFFEEF0h]
  004016D8: 8D 54 01 C0        lea         edx,[ecx+eax-40h]
  004016DC: 89 95 F0 EE FF FF  mov         dword ptr [ebp+FFFFEEF0h],edx
  004016E2: 6A 03              push        3
  004016E4: 68 C0 B3 40 00     push        40B3C0h
  004016E9: 8B 85 F0 EE FF FF  mov         eax,dword ptr [ebp+FFFFEEF0h]
  004016EF: 50                 push        eax
  004016F0: E8 DB 1F 00 00     call        004036D0
  004016F5: 83 C4 0C           add         esp,0Ch
  004016F8: 83 7D 08 02        cmp         dword ptr [ebp+8],2
  004016FC: 75 0C              jne         0040170A
  004016FE: C7 85 EC EE FF FF  mov         dword ptr [ebp+FFFFEEECh],40B34Ch
            4C B3 40 00
  00401708: EB 0A              jmp         00401714
  0040170A: C7 85 EC EE FF FF  mov         dword ptr [ebp+FFFFEEECh],40B0E0h
            E0 B0 40 00
  00401714: 8B 4D 18           mov         ecx,dword ptr [ebp+18h]
  00401717: 0F BE 11           movsx       edx,byte ptr [ecx]
  0040171A: 85 D2              test        edx,edx
  0040171C: 74 0B              je          00401729
  0040171E: 8B 45 18           mov         eax,dword ptr [ebp+18h]
  00401721: 89 85 E8 EE FF FF  mov         dword ptr [ebp+FFFFEEE8h],eax
  00401727: EB 0A              jmp         00401733
  00401729: C7 85 E8 EE FF FF  mov         dword ptr [ebp+FFFFEEE8h],40B0E0h
            E0 B0 40 00
  00401733: 8B 4D 18           mov         ecx,dword ptr [ebp+18h]
  00401736: 0F BE 11           movsx       edx,byte ptr [ecx]
  00401739: 85 D2              test        edx,edx
  0040173B: 74 12              je          0040174F
  0040173D: 83 7D 08 02        cmp         dword ptr [ebp+8],2
  00401741: 75 0C              jne         0040174F
  00401743: C7 85 E4 EE FF FF  mov         dword ptr [ebp+FFFFEEE4h],40B33Ch
            3C B3 40 00
  0040174D: EB 0A              jmp         00401759
  0040174F: C7 85 E4 EE FF FF  mov         dword ptr [ebp+FFFFEEE4h],40B0E0h
            E0 B0 40 00
  00401759: 8B 45 18           mov         eax,dword ptr [ebp+18h]
  0040175C: 0F BE 08           movsx       ecx,byte ptr [eax]
  0040175F: 85 C9              test        ecx,ecx
  00401761: 74 0C              je          0040176F
  00401763: C7 85 E0 EE FF FF  mov         dword ptr [ebp+FFFFEEE0h],40B338h
            38 B3 40 00
  0040176D: EB 0A              jmp         00401779
  0040176F: C7 85 E0 EE FF FF  mov         dword ptr [ebp+FFFFEEE0h],40B0E0h
            E0 B0 40 00
  00401779: 83 7D 10 00        cmp         dword ptr [ebp+10h],0
  0040177D: 74 0B              je          0040178A
  0040177F: 8B 55 10           mov         edx,dword ptr [ebp+10h]
  00401782: 89 95 DC EE FF FF  mov         dword ptr [ebp+FFFFEEDCh],edx
  00401788: EB 0A              jmp         00401794
  0040178A: C7 85 DC EE FF FF  mov         dword ptr [ebp+FFFFEEDCh],40B0E0h
            E0 B0 40 00
  00401794: 83 7D 10 00        cmp         dword ptr [ebp+10h],0
  00401798: 74 0C              je          004017A6
  0040179A: C7 85 D8 EE FF FF  mov         dword ptr [ebp+FFFFEED8h],40B330h
            30 B3 40 00
  004017A4: EB 0A              jmp         004017B0
  004017A6: C7 85 D8 EE FF FF  mov         dword ptr [ebp+FFFFEED8h],40B0E0h
            E0 B0 40 00
  004017B0: 83 7D 0C 00        cmp         dword ptr [ebp+0Ch],0
  004017B4: 74 0B              je          004017C1
  004017B6: 8B 45 0C           mov         eax,dword ptr [ebp+0Ch]
  004017B9: 89 85 D4 EE FF FF  mov         dword ptr [ebp+FFFFEED4h],eax
  004017BF: EB 0A              jmp         004017CB
  004017C1: C7 85 D4 EE FF FF  mov         dword ptr [ebp+FFFFEED4h],40B0E0h
            E0 B0 40 00
  004017CB: 83 7D 0C 00        cmp         dword ptr [ebp+0Ch],0
  004017CF: 74 0C              je          004017DD
  004017D1: C7 85 D0 EE FF FF  mov         dword ptr [ebp+FFFFEED0h],40B328h
            28 B3 40 00
  004017DB: EB 0A              jmp         004017E7
  004017DD: C7 85 D0 EE FF FF  mov         dword ptr [ebp+FFFFEED0h],40B0E0h
            E0 B0 40 00
  004017E7: 83 BD F0 EE FF FF  cmp         dword ptr [ebp+FFFFEEF0h],0
            00
  004017EE: 74 0E              je          004017FE
  004017F0: 8B 8D F0 EE FF FF  mov         ecx,dword ptr [ebp+FFFFEEF0h]
  004017F6: 89 8D CC EE FF FF  mov         dword ptr [ebp+FFFFEECCh],ecx
  004017FC: EB 0A              jmp         00401808
  004017FE: C7 85 CC EE FF FF  mov         dword ptr [ebp+FFFFEECCh],40B0E0h
            E0 B0 40 00
  00401808: 83 BD F0 EE FF FF  cmp         dword ptr [ebp+FFFFEEF0h],0
            00
  0040180F: 74 0C              je          0040181D
  00401811: C7 85 C8 EE FF FF  mov         dword ptr [ebp+FFFFEEC8h],40B31Ch
            1C B3 40 00
  0040181B: EB 0A              jmp         00401827
  0040181D: C7 85 C8 EE FF FF  mov         dword ptr [ebp+FFFFEEC8h],40B0E0h
            E0 B0 40 00
  00401827: 8B 95 EC EE FF FF  mov         edx,dword ptr [ebp+FFFFEEECh]
  0040182D: 52                 push        edx
  0040182E: 8B 85 E8 EE FF FF  mov         eax,dword ptr [ebp+FFFFEEE8h]
  00401834: 50                 push        eax
  00401835: 8B 8D E4 EE FF FF  mov         ecx,dword ptr [ebp+FFFFEEE4h]
  0040183B: 51                 push        ecx
  0040183C: 8B 95 E0 EE FF FF  mov         edx,dword ptr [ebp+FFFFEEE0h]
  00401842: 52                 push        edx
  00401843: 8B 85 DC EE FF FF  mov         eax,dword ptr [ebp+FFFFEEDCh]
  00401849: 50                 push        eax
  0040184A: 8B 8D D8 EE FF FF  mov         ecx,dword ptr [ebp+FFFFEED8h]
  00401850: 51                 push        ecx
  00401851: 8B 95 D4 EE FF FF  mov         edx,dword ptr [ebp+FFFFEED4h]
  00401857: 52                 push        edx
  00401858: 8B 85 D0 EE FF FF  mov         eax,dword ptr [ebp+FFFFEED0h]
  0040185E: 50                 push        eax
  0040185F: 8B 8D CC EE FF FF  mov         ecx,dword ptr [ebp+FFFFEECCh]
  00401865: 51                 push        ecx
  00401866: 8B 95 C8 EE FF FF  mov         edx,dword ptr [ebp+FFFFEEC8h]
  0040186C: 52                 push        edx
  0040186D: 8B 45 FC           mov         eax,dword ptr [ebp-4]
  00401870: 50                 push        eax
  00401871: 8B 4D 08           mov         ecx,dword ptr [ebp+8]
  00401874: 8B 14 8D 60 D0 40  mov         edx,dword ptr [ecx*4+0040D060h]
            00
  0040187B: 52                 push        edx
  0040187C: 68 C8 B2 40 00     push        40B2C8h
  00401881: 68 00 10 00 00     push        1000h
  00401886: 8D 85 F4 EE FF FF  lea         eax,[ebp+FFFFEEF4h]
  0040188C: 50                 push        eax
  0040188D: E8 3E 18 00 00     call        004030D0
  00401892: 83 C4 3C           add         esp,3Ch
  00401895: 85 C0              test        eax,eax
  00401897: 7D 14              jge         004018AD
  00401899: 68 2C B2 40 00     push        40B22Ch
  0040189E: 8D 8D F4 EE FF FF  lea         ecx,[ebp+FFFFEEF4h]
  004018A4: 51                 push        ecx
  004018A5: E8 26 19 00 00     call        004031D0
  004018AA: 83 C4 08           add         esp,8
  004018AD: 68 12 20 01 00     push        12012h
  004018B2: 68 A4 B2 40 00     push        40B2A4h
  004018B7: 8D 95 F4 EE FF FF  lea         edx,[ebp+FFFFEEF4h]
  004018BD: 52                 push        edx
  004018BE: E8 4D 1D 00 00     call        00403610
  004018C3: 83 C4 0C           add         esp,0Ch
  004018C6: 89 85 F4 FE FF FF  mov         dword ptr [ebp+FFFFFEF4h],eax
  004018CC: 83 BD F4 FE FF FF  cmp         dword ptr [ebp+FFFFFEF4h],3
            03
  004018D3: 75 11              jne         004018E6
  004018D5: 6A 16              push        16h
  004018D7: E8 14 1B 00 00     call        004033F0
  004018DC: 83 C4 04           add         esp,4
  004018DF: 6A 03              push        3
  004018E1: E8 7A 00 00 00     call        00401960
  004018E6: 83 BD F4 FE FF FF  cmp         dword ptr [ebp+FFFFFEF4h],4
            04
  004018ED: 75 07              jne         004018F6
  004018EF: B8 01 00 00 00     mov         eax,1
  004018F4: EB 02              jmp         004018F8
  004018F6: 33 C0              xor         eax,eax
  004018F8: 8B E5              mov         esp,ebp
  004018FA: 5D                 pop         ebp
  004018FB: C3                 ret
  004018FC: CC                 int         3
  004018FD: CC                 int         3
  004018FE: CC                 int         3
  004018FF: CC                 int         3
  00401900: 55                 push        ebp
  00401901: 8B EC              mov         ebp,esp
  00401903: 83 3D 94 0E 41 00  cmp         dword ptr ds:[00410E94h],0
            00
  0040190A: 74 06              je          00401912
  0040190C: FF 15 94 0E 41 00  call        dword ptr ds:[00410E94h]
  00401912: 68 14 D0 40 00     push        40D014h
  00401917: 68 08 D0 40 00     push        40D008h
  0040191C: E8 3F 01 00 00     call        00401A60
  00401921: 83 C4 08           add         esp,8
  00401924: 68 04 D0 40 00     push        40D004h
  00401929: 68 00 D0 40 00     push        40D000h
  0040192E: E8 2D 01 00 00     call        00401A60
  00401933: 83 C4 08           add         esp,8
  00401936: 5D                 pop         ebp
  00401937: C3                 ret
  00401938: CC                 int         3
  00401939: CC                 int         3
  0040193A: CC                 int         3
  0040193B: CC                 int         3
  0040193C: CC                 int         3
  0040193D: CC                 int         3
  0040193E: CC                 int         3
  0040193F: CC                 int         3
  00401940: 55                 push        ebp
  00401941: 8B EC              mov         ebp,esp
  00401943: 6A 00              push        0
  00401945: 6A 00              push        0
  00401947: 8B 45 08           mov         eax,dword ptr [ebp+8]
  0040194A: 50                 push        eax
  0040194B: E8 30 00 00 00     call        00401980
  00401950: 83 C4 0C           add         esp,0Ch
  00401953: 5D                 pop         ebp
  00401954: C3                 ret
  00401955: CC                 int         3
  00401956: CC                 int         3
  00401957: CC                 int         3
  00401958: CC                 int         3
  00401959: CC                 int         3
  0040195A: CC                 int         3
  0040195B: CC                 int         3
  0040195C: CC                 int         3
  0040195D: CC                 int         3
  0040195E: CC                 int         3
  0040195F: CC                 int         3
  00401960: 55                 push        ebp
  00401961: 8B EC              mov         ebp,esp
  00401963: 6A 00              push        0
  00401965: 6A 01              push        1
  00401967: 8B 45 08           mov         eax,dword ptr [ebp+8]
  0040196A: 50                 push        eax
  0040196B: E8 10 00 00 00     call        00401980
  00401970: 83 C4 0C           add         esp,0Ch
  00401973: 5D                 pop         ebp
  00401974: C3                 ret
  00401975: CC                 int         3
  00401976: CC                 int         3
  00401977: CC                 int         3
  00401978: CC                 int         3
  00401979: CC                 int         3
  0040197A: CC                 int         3
  0040197B: CC                 int         3
  0040197C: CC                 int         3
  0040197D: CC                 int         3
  0040197E: CC                 int         3
  0040197F: CC                 int         3
  00401980: 55                 push        ebp
  00401981: 8B EC              mov         ebp,esp
  00401983: 51                 push        ecx
  00401984: 83 3D 88 F9 40 00  cmp         dword ptr ds:[0040F988h],1
            01
  0040198B: 75 11              jne         0040199E
  0040198D: 8B 45 08           mov         eax,dword ptr [ebp+8]
  00401990: 50                 push        eax
  00401991: FF 15 34 B0 40 00  call        dword ptr ds:[0040B034h]
  00401997: 50                 push        eax
  00401998: FF 15 30 B0 40 00  call        dword ptr ds:[0040B030h]
  0040199E: C7 05 84 F9 40 00  mov         dword ptr ds:[0040F984h],1
            01 00 00 00
  004019A8: 8A 4D 10           mov         cl,byte ptr [ebp+10h]
  004019AB: 88 0D 80 F9 40 00  mov         byte ptr ds:[0040F980h],cl
  004019B1: 83 7D 0C 00        cmp         dword ptr [ebp+0Ch],0
  004019B5: 75 47              jne         004019FE
  004019B7: 83 3D 90 0E 41 00  cmp         dword ptr ds:[00410E90h],0
            00
  004019BE: 74 2C              je          004019EC
  004019C0: 8B 15 8C 0E 41 00  mov         edx,dword ptr ds:[00410E8Ch]
  004019C6: 89 55 FC           mov         dword ptr [ebp-4],edx
  004019C9: 8B 45 FC           mov         eax,dword ptr [ebp-4]
  004019CC: 83 E8 04           sub         eax,4
  004019CF: 89 45 FC           mov         dword ptr [ebp-4],eax
  004019D2: 8B 4D FC           mov         ecx,dword ptr [ebp-4]
  004019D5: 3B 0D 90 0E 41 00  cmp         ecx,dword ptr ds:[00410E90h]
  004019DB: 72 0F              jb          004019EC
  004019DD: 8B 55 FC           mov         edx,dword ptr [ebp-4]
  004019E0: 83 3A 00           cmp         dword ptr [edx],0
  004019E3: 74 05              je          004019EA
  004019E5: 8B 45 FC           mov         eax,dword ptr [ebp-4]
  004019E8: FF 10              call        dword ptr [eax]
  004019EA: EB DD              jmp         004019C9
  004019EC: 68 20 D0 40 00     push        40D020h
  004019F1: 68 18 D0 40 00     push        40D018h
  004019F6: E8 65 00 00 00     call        00401A60
  004019FB: 83 C4 08           add         esp,8
  004019FE: 68 28 D0 40 00     push        40D028h
  00401A03: 68 24 D0 40 00     push        40D024h
  00401A08: E8 53 00 00 00     call        00401A60
  00401A0D: 83 C4 08           add         esp,8
  00401A10: 83 3D 8C F9 40 00  cmp         dword ptr ds:[0040F98Ch],0
            00
  00401A17: 75 20              jne         00401A39
  00401A19: 6A FF              push        0FFh
  00401A1B: E8 90 29 00 00     call        004043B0
  00401A20: 83 C4 04           add         esp,4
  00401A23: 83 E0 20           and         eax,20h
  00401A26: 85 C0              test        eax,eax
  00401A28: 74 0F              je          00401A39
  00401A2A: C7 05 8C F9 40 00  mov         dword ptr ds:[0040F98Ch],1
            01 00 00 00
  00401A34: E8 57 30 00 00     call        00404A90
  00401A39: 83 7D 10 00        cmp         dword ptr [ebp+10h],0
  00401A3D: 74 02              je          00401A41
  00401A3F: EB 14              jmp         00401A55
  00401A41: C7 05 88 F9 40 00  mov         dword ptr ds:[0040F988h],1
            01 00 00 00
  00401A4B: 8B 4D 08           mov         ecx,dword ptr [ebp+8]
  00401A4E: 51                 push        ecx
  00401A4F: FF 15 08 B0 40 00  call        dword ptr ds:[0040B008h]
  00401A55: 8B E5              mov         esp,ebp
  00401A57: 5D                 pop         ebp
  00401A58: C3                 ret
  00401A59: CC                 int         3
  00401A5A: CC                 int         3
  00401A5B: CC                 int         3
  00401A5C: CC                 int         3
  00401A5D: CC                 int         3
  00401A5E: CC                 int         3
  00401A5F: CC                 int         3
  00401A60: 55                 push        ebp
  00401A61: 8B EC              mov         ebp,esp
  00401A63: 8B 45 08           mov         eax,dword ptr [ebp+8]
  00401A66: 3B 45 0C           cmp         eax,dword ptr [ebp+0Ch]
  00401A69: 73 18              jae         00401A83
  00401A6B: 8B 4D 08           mov         ecx,dword ptr [ebp+8]
  00401A6E: 83 39 00           cmp         dword ptr [ecx],0
  00401A71: 74 05              je          00401A78
  00401A73: 8B 55 08           mov         edx,dword ptr [ebp+8]
  00401A76: FF 12              call        dword ptr [edx]
  00401A78: 8B 45 08           mov         eax,dword ptr [ebp+8]
  00401A7B: 83 C0 04           add         eax,4
  00401A7E: 89 45 08           mov         dword ptr [ebp+8],eax
  00401A81: EB E0              jmp         00401A63
  00401A83: 5D                 pop         ebp
  00401A84: C3                 ret
  00401A85: CC                 int         3
  00401A86: CC                 int         3
  00401A87: CC                 int         3
  00401A88: CC                 int         3
  00401A89: CC                 int         3
  00401A8A: CC                 int         3
  00401A8B: CC                 int         3
  00401A8C: CC                 int         3
  00401A8D: CC                 int         3
  00401A8E: CC                 int         3
  00401A8F: CC                 int         3
  00401A90: 55                 push        ebp
  00401A91: 8B EC              mov         ebp,esp
  00401A93: 83 EC 14           sub         esp,14h
  00401A96: 8B 45 08           mov         eax,dword ptr [ebp+8]
  00401A99: 50                 push        eax
  00401A9A: E8 A1 01 00 00     call        00401C40
  00401A9F: 83 C4 04           add         esp,4
  00401AA2: 89 45 F4           mov         dword ptr [ebp-0Ch],eax
  00401AA5: 83 7D F4 00        cmp         dword ptr [ebp-0Ch],0
  00401AA9: 74 09              je          00401AB4
  00401AAB: 8B 4D F4           mov         ecx,dword ptr [ebp-0Ch]
  00401AAE: 83 79 08 00        cmp         dword ptr [ecx+8],0
  00401AB2: 75 0F              jne         00401AC3
  00401AB4: 8B 55 0C           mov         edx,dword ptr [ebp+0Ch]
  00401AB7: 52                 push        edx
  00401AB8: FF 15 38 B0 40 00  call        dword ptr ds:[0040B038h]
  00401ABE: E9 72 01 00 00     jmp         00401C35
  00401AC3: 8B 45 F4           mov         eax,dword ptr [ebp-0Ch]
  00401AC6: 83 78 08 05        cmp         dword ptr [eax+8],5
  00401ACA: 75 14              jne         00401AE0
  00401ACC: 8B 4D F4           mov         ecx,dword ptr [ebp-0Ch]
  00401ACF: C7 41 08 00 00 00  mov         dword ptr [ecx+8],0
            00
  00401AD6: B8 01 00 00 00     mov         eax,1
  00401ADB: E9 55 01 00 00     jmp         00401C35
  00401AE0: 8B 55 F4           mov         edx,dword ptr [ebp-0Ch]
  00401AE3: 83 7A 08 01        cmp         dword ptr [edx+8],1
  00401AE7: 75 08              jne         00401AF1
  00401AE9: 83 C8 FF           or          eax,0FFh
  00401AEC: E9 44 01 00 00     jmp         00401C35
  00401AF1: 8B 45 F4           mov         eax,dword ptr [ebp-0Ch]
  00401AF4: 8B 48 08           mov         ecx,dword ptr [eax+8]
  00401AF7: 89 4D FC           mov         dword ptr [ebp-4],ecx
  00401AFA: 8B 15 90 F9 40 00  mov         edx,dword ptr ds:[0040F990h]
  00401B00: 89 55 EC           mov         dword ptr [ebp-14h],edx
  00401B03: 8B 45 0C           mov         eax,dword ptr [ebp+0Ch]
  00401B06: A3 90 F9 40 00     mov         [0040F990],eax
  00401B0B: 8B 4D F4           mov         ecx,dword ptr [ebp-0Ch]
  00401B0E: 83 79 04 08        cmp         dword ptr [ecx+4],8
  00401B12: 0F 85 FA 00 00 00  jne         00401C12
  00401B18: 8B 15 E8 D0 40 00  mov         edx,dword ptr ds:[0040D0E8h]
  00401B1E: 89 55 F0           mov         dword ptr [ebp-10h],edx
  00401B21: EB 09              jmp         00401B2C
  00401B23: 8B 45 F0           mov         eax,dword ptr [ebp-10h]
  00401B26: 83 C0 01           add         eax,1
  00401B29: 89 45 F0           mov         dword ptr [ebp-10h],eax
  00401B2C: 8B 0D E8 D0 40 00  mov         ecx,dword ptr ds:[0040D0E8h]
  00401B32: 03 0D EC D0 40 00  add         ecx,dword ptr ds:[0040D0ECh]
  00401B38: 39 4D F0           cmp         dword ptr [ebp-10h],ecx
  00401B3B: 7D 12              jge         00401B4F
  00401B3D: 8B 55 F0           mov         edx,dword ptr [ebp-10h]
  00401B40: 6B D2 0C           imul        edx,edx,0Ch
  00401B43: C7 82 78 D0 40 00  mov         dword ptr [edx+0040D078h],0
            00 00 00 00
  00401B4D: EB D4              jmp         00401B23
  00401B4F: A1 F4 D0 40 00     mov         eax,[0040D0F4]
  00401B54: 89 45 F8           mov         dword ptr [ebp-8],eax
  00401B57: 8B 4D F4           mov         ecx,dword ptr [ebp-0Ch]
  00401B5A: 81 39 8E 00 00 C0  cmp         dword ptr [ecx],0C000008Eh
  00401B60: 75 0F              jne         00401B71
  00401B62: C7 05 F4 D0 40 00  mov         dword ptr ds:[0040D0F4h],83h
            83 00 00 00
  00401B6C: E9 88 00 00 00     jmp         00401BF9
  00401B71: 8B 55 F4           mov         edx,dword ptr [ebp-0Ch]
  00401B74: 81 3A 90 00 00 C0  cmp         dword ptr [edx],0C0000090h
  00401B7A: 75 0C              jne         00401B88
  00401B7C: C7 05 F4 D0 40 00  mov         dword ptr ds:[0040D0F4h],81h
            81 00 00 00
  00401B86: EB 71              jmp         00401BF9
  00401B88: 8B 45 F4           mov         eax,dword ptr [ebp-0Ch]
  00401B8B: 81 38 91 00 00 C0  cmp         dword ptr [eax],0C0000091h
  00401B91: 75 0C              jne         00401B9F
  00401B93: C7 05 F4 D0 40 00  mov         dword ptr ds:[0040D0F4h],84h
            84 00 00 00
  00401B9D: EB 5A              jmp         00401BF9
  00401B9F: 8B 4D F4           mov         ecx,dword ptr [ebp-0Ch]
  00401BA2: 81 39 93 00 00 C0  cmp         dword ptr [ecx],0C0000093h
  00401BA8: 75 0C              jne         00401BB6
  00401BAA: C7 05 F4 D0 40 00  mov         dword ptr ds:[0040D0F4h],85h
            85 00 00 00
  00401BB4: EB 43              jmp         00401BF9
  00401BB6: 8B 55 F4           mov         edx,dword ptr [ebp-0Ch]
  00401BB9: 81 3A 8D 00 00 C0  cmp         dword ptr [edx],0C000008Dh
  00401BBF: 75 0C              jne         00401BCD
  00401BC1: C7 05 F4 D0 40 00  mov         dword ptr ds:[0040D0F4h],82h
            82 00 00 00
  00401BCB: EB 2C              jmp         00401BF9
  00401BCD: 8B 45 F4           mov         eax,dword ptr [ebp-0Ch]
  00401BD0: 81 38 8F 00 00 C0  cmp         dword ptr [eax],0C000008Fh
  00401BD6: 75 0C              jne         00401BE4
  00401BD8: C7 05 F4 D0 40 00  mov         dword ptr ds:[0040D0F4h],86h
            86 00 00 00
  00401BE2: EB 15              jmp         00401BF9
  00401BE4: 8B 4D F4           mov         ecx,dword ptr [ebp-0Ch]
  00401BE7: 81 39 92 00 00 C0  cmp         dword ptr [ecx],0C0000092h
  00401BED: 75 0A              jne         00401BF9
  00401BEF: C7 05 F4 D0 40 00  mov         dword ptr ds:[0040D0F4h],8Ah
            8A 00 00 00
  00401BF9: 8B 15 F4 D0 40 00  mov         edx,dword ptr ds:[0040D0F4h]
  00401BFF: 52                 push        edx
  00401C00: 6A 08              push        8
  00401C02: FF 55 FC           call        dword ptr [ebp-4]
  00401C05: 83 C4 08           add         esp,8
  00401C08: 8B 45 F8           mov         eax,dword ptr [ebp-8]
  00401C0B: A3 F4 D0 40 00     mov         [0040D0F4],eax
  00401C10: EB 17              jmp         00401C29
  00401C12: 8B 4D F4           mov         ecx,dword ptr [ebp-0Ch]
  00401C15: C7 41 08 00 00 00  mov         dword ptr [ecx+8],0
            00
  00401C1C: 8B 55 F4           mov         edx,dword ptr [ebp-0Ch]
  00401C1F: 8B 42 04           mov         eax,dword ptr [edx+4]
  00401C22: 50                 push        eax
  00401C23: FF 55 FC           call        dword ptr [ebp-4]
  00401C26: 83 C4 04           add         esp,4
  00401C29: 8B 4D EC           mov         ecx,dword ptr [ebp-14h]
  00401C2C: 89 0D 90 F9 40 00  mov         dword ptr ds:[0040F990h],ecx
  00401C32: 83 C8 FF           or          eax,0FFh
  00401C35: 8B E5              mov         esp,ebp
  00401C37: 5D                 pop         ebp
  00401C38: C3                 ret
  00401C39: CC                 int         3
  00401C3A: CC                 int         3
  00401C3B: CC                 int         3
  00401C3C: CC                 int         3
  00401C3D: CC                 int         3
  00401C3E: CC                 int         3
  00401C3F: CC                 int         3
  00401C40: 55                 push        ebp
  00401C41: 8B EC              mov         ebp,esp
  00401C43: 51                 push        ecx
  00401C44: C7 45 FC 70 D0 40  mov         dword ptr [ebp-4],40D070h
            00
  00401C4B: 8B 45 FC           mov         eax,dword ptr [ebp-4]
  00401C4E: 8B 08              mov         ecx,dword ptr [eax]
  00401C50: 3B 4D 08           cmp         ecx,dword ptr [ebp+8]
  00401C53: 74 1D              je          00401C72
  00401C55: 8B 55 FC           mov         edx,dword ptr [ebp-4]
  00401C58: 83 C2 0C           add         edx,0Ch
  00401C5B: 89 55 FC           mov         dword ptr [ebp-4],edx
  00401C5E: A1 F0 D0 40 00     mov         eax,[0040D0F0]
  00401C63: 6B C0 0C           imul        eax,eax,0Ch
  00401C66: 05 70 D0 40 00     add         eax,40D070h
  00401C6B: 39 45 FC           cmp         dword ptr [ebp-4],eax
  00401C6E: 73 02              jae         00401C72
  00401C70: EB D9              jmp         00401C4B
  00401C72: 8B 0D F0 D0 40 00  mov         ecx,dword ptr ds:[0040D0F0h]
  00401C78: 6B C9 0C           imul        ecx,ecx,0Ch
  00401C7B: 81 C1 70 D0 40 00  add         ecx,40D070h
  00401C81: 39 4D FC           cmp         dword ptr [ebp-4],ecx
  00401C84: 73 0A              jae         00401C90
  00401C86: 8B 55 FC           mov         edx,dword ptr [ebp-4]
  00401C89: 8B 02              mov         eax,dword ptr [edx]
  00401C8B: 3B 45 08           cmp         eax,dword ptr [ebp+8]
  00401C8E: 74 04              je          00401C94
  00401C90: 33 C0              xor         eax,eax
  00401C92: EB 03              jmp         00401C97
  00401C94: 8B 45 FC           mov         eax,dword ptr [ebp-4]
  00401C97: 8B E5              mov         esp,ebp
  00401C99: 5D                 pop         ebp
  00401C9A: C3                 ret
  00401C9B: CC                 int         3
  00401C9C: CC                 int         3
  00401C9D: CC                 int         3
  00401C9E: CC                 int         3
  00401C9F: CC                 int         3
  00401CA0: 55                 push        ebp
  00401CA1: 8B EC              mov         ebp,esp
  00401CA3: 83 EC 10           sub         esp,10h
  00401CA6: 83 3D 88 0E 41 00  cmp         dword ptr ds:[00410E88h],0
            00
  00401CAD: 75 05              jne         00401CB4
  00401CAF: E8 CC 35 00 00     call        00405280
  00401CB4: C7 45 F8 00 00 00  mov         dword ptr [ebp-8],0
            00
  00401CBB: A1 30 F9 40 00     mov         eax,[0040F930]
  00401CC0: 89 45 FC           mov         dword ptr [ebp-4],eax
  00401CC3: 8B 4D FC           mov         ecx,dword ptr [ebp-4]
  00401CC6: 0F BE 11           movsx       edx,byte ptr [ecx]
  00401CC9: 85 D2              test        edx,edx
  00401CCB: 74 2C              je          00401CF9
  00401CCD: 8B 45 FC           mov         eax,dword ptr [ebp-4]
  00401CD0: 0F BE 08           movsx       ecx,byte ptr [eax]
  00401CD3: 83 F9 3D           cmp         ecx,3Dh
  00401CD6: 74 09              je          00401CE1
  00401CD8: 8B 55 F8           mov         edx,dword ptr [ebp-8]
  00401CDB: 83 C2 01           add         edx,1
  00401CDE: 89 55 F8           mov         dword ptr [ebp-8],edx
  00401CE1: 8B 45 FC           mov         eax,dword ptr [ebp-4]
  00401CE4: 50                 push        eax
  00401CE5: E8 66 13 00 00     call        00403050
  00401CEA: 83 C4 04           add         esp,4
  00401CED: 8B 4D FC           mov         ecx,dword ptr [ebp-4]
  00401CF0: 8D 54 01 01        lea         edx,[ecx+eax+1]
  00401CF4: 89 55 FC           mov         dword ptr [ebp-4],edx
  00401CF7: EB CA              jmp         00401CC3
  00401CF9: 6A 6D              push        6Dh
  00401CFB: 68 00 B4 40 00     push        40B400h
  00401D00: 6A 02              push        2
  00401D02: 8B 45 F8           mov         eax,dword ptr [ebp-8]
  00401D05: 8D 0C 85 04 00 00  lea         ecx,[eax*4+00000004h]
            00
  00401D0C: 51                 push        ecx
  00401D0D: E8 BE 1A 00 00     call        004037D0
  00401D12: 83 C4 10           add         esp,10h
  00401D15: 89 45 F4           mov         dword ptr [ebp-0Ch],eax
  00401D18: 8B 55 F4           mov         edx,dword ptr [ebp-0Ch]
  00401D1B: 89 15 68 F9 40 00  mov         dword ptr ds:[0040F968h],edx
  00401D21: 83 3D 68 F9 40 00  cmp         dword ptr ds:[0040F968h],0
            00
  00401D28: 75 0A              jne         00401D34
  00401D2A: 6A 09              push        9
  00401D2C: E8 BF F4 FF FF     call        004011F0
  00401D31: 83 C4 04           add         esp,4
  00401D34: A1 30 F9 40 00     mov         eax,[0040F930]
  00401D39: 89 45 FC           mov         dword ptr [ebp-4],eax
  00401D3C: EB 09              jmp         00401D47
  00401D3E: 8B 4D FC           mov         ecx,dword ptr [ebp-4]
  00401D41: 03 4D F0           add         ecx,dword ptr [ebp-10h]
  00401D44: 89 4D FC           mov         dword ptr [ebp-4],ecx
  00401D47: 8B 55 FC           mov         edx,dword ptr [ebp-4]
  00401D4A: 0F BE 02           movsx       eax,byte ptr [edx]
  00401D4D: 85 C0              test        eax,eax
  00401D4F: 74 66              je          00401DB7
  00401D51: 8B 4D FC           mov         ecx,dword ptr [ebp-4]
  00401D54: 51                 push        ecx
  00401D55: E8 F6 12 00 00     call        00403050
  00401D5A: 83 C4 04           add         esp,4
  00401D5D: 83 C0 01           add         eax,1
  00401D60: 89 45 F0           mov         dword ptr [ebp-10h],eax
  00401D63: 8B 55 FC           mov         edx,dword ptr [ebp-4]
  00401D66: 0F BE 02           movsx       eax,byte ptr [edx]
  00401D69: 83 F8 3D           cmp         eax,3Dh
  00401D6C: 74 47              je          00401DB5
  00401D6E: 6A 79              push        79h
  00401D70: 68 00 B4 40 00     push        40B400h
  00401D75: 6A 02              push        2
  00401D77: 8B 4D F0           mov         ecx,dword ptr [ebp-10h]
  00401D7A: 51                 push        ecx
  00401D7B: E8 50 1A 00 00     call        004037D0
  00401D80: 83 C4 10           add         esp,10h
  00401D83: 8B 55 F4           mov         edx,dword ptr [ebp-0Ch]
  00401D86: 89 02              mov         dword ptr [edx],eax
  00401D88: 8B 45 F4           mov         eax,dword ptr [ebp-0Ch]
  00401D8B: 83 38 00           cmp         dword ptr [eax],0
  00401D8E: 75 0A              jne         00401D9A
  00401D90: 6A 09              push        9
  00401D92: E8 59 F4 FF FF     call        004011F0
  00401D97: 83 C4 04           add         esp,4
  00401D9A: 8B 4D FC           mov         ecx,dword ptr [ebp-4]
  00401D9D: 51                 push        ecx
  00401D9E: 8B 55 F4           mov         edx,dword ptr [ebp-0Ch]
  00401DA1: 8B 02              mov         eax,dword ptr [edx]
  00401DA3: 50                 push        eax
  00401DA4: E8 27 14 00 00     call        004031D0
  00401DA9: 83 C4 08           add         esp,8
  00401DAC: 8B 4D F4           mov         ecx,dword ptr [ebp-0Ch]
  00401DAF: 83 C1 04           add         ecx,4
  00401DB2: 89 4D F4           mov         dword ptr [ebp-0Ch],ecx
  00401DB5: EB 87              jmp         00401D3E
  00401DB7: 6A 02              push        2
  00401DB9: 8B 15 30 F9 40 00  mov         edx,dword ptr ds:[0040F930h]
  00401DBF: 52                 push        edx
  00401DC0: E8 0B 1E 00 00     call        00403BD0
  00401DC5: 83 C4 08           add         esp,8
  00401DC8: C7 05 30 F9 40 00  mov         dword ptr ds:[0040F930h],0
            00 00 00 00
  00401DD2: 8B 45 F4           mov         eax,dword ptr [ebp-0Ch]
  00401DD5: C7 00 00 00 00 00  mov         dword ptr [eax],0
  00401DDB: C7 05 84 0E 41 00  mov         dword ptr ds:[00410E84h],1
            01 00 00 00
  00401DE5: 8B E5              mov         esp,ebp
  00401DE7: 5D                 pop         ebp
  00401DE8: C3                 ret
  00401DE9: CC                 int         3
  00401DEA: CC                 int         3
  00401DEB: CC                 int         3
  00401DEC: CC                 int         3
  00401DED: CC                 int         3
  00401DEE: CC                 int         3
  00401DEF: CC                 int         3
  00401DF0: 55                 push        ebp
  00401DF1: 8B EC              mov         ebp,esp
  00401DF3: 83 EC 14           sub         esp,14h
  00401DF6: 83 3D 88 0E 41 00  cmp         dword ptr ds:[00410E88h],0
            00
  00401DFD: 75 05              jne         00401E04
  00401DFF: E8 7C 34 00 00     call        00405280
  00401E04: 68 04 01 00 00     push        104h
  00401E09: 68 94 F9 40 00     push        40F994h
  00401E0E: 6A 00              push        0
  00401E10: FF 15 2C B0 40 00  call        dword ptr ds:[0040B02Ch]
  00401E16: C7 05 78 F9 40 00  mov         dword ptr ds:[0040F978h],40F994h
            94 F9 40 00
  00401E20: A1 9C 0E 41 00     mov         eax,[00410E9C]
  00401E25: 0F BE 08           movsx       ecx,byte ptr [eax]
  00401E28: 85 C9              test        ecx,ecx
  00401E2A: 75 0B              jne         00401E37
  00401E2C: 8B 15 78 F9 40 00  mov         edx,dword ptr ds:[0040F978h]
  00401E32: 89 55 EC           mov         dword ptr [ebp-14h],edx
  00401E35: EB 08              jmp         00401E3F
  00401E37: A1 9C 0E 41 00     mov         eax,[00410E9C]
  00401E3C: 89 45 EC           mov         dword ptr [ebp-14h],eax
  00401E3F: 8B 4D EC           mov         ecx,dword ptr [ebp-14h]
  00401E42: 89 4D F0           mov         dword ptr [ebp-10h],ecx
  00401E45: 8D 55 FC           lea         edx,[ebp-4]
  00401E48: 52                 push        edx
  00401E49: 8D 45 F4           lea         eax,[ebp-0Ch]
  00401E4C: 50                 push        eax
  00401E4D: 6A 00              push        0
  00401E4F: 6A 00              push        0
  00401E51: 8B 4D F0           mov         ecx,dword ptr [ebp-10h]
  00401E54: 51                 push        ecx
  00401E55: E8 76 00 00 00     call        00401ED0
  00401E5A: 83 C4 14           add         esp,14h
  00401E5D: 68 80 00 00 00     push        80h
  00401E62: 68 0C B4 40 00     push        40B40Ch
  00401E67: 6A 02              push        2
  00401E69: 8B 55 F4           mov         edx,dword ptr [ebp-0Ch]
  00401E6C: 8B 45 FC           mov         eax,dword ptr [ebp-4]
  00401E6F: 8D 0C 90           lea         ecx,[eax+edx*4]
  00401E72: 51                 push        ecx
  00401E73: E8 58 19 00 00     call        004037D0
  00401E78: 83 C4 10           add         esp,10h
  00401E7B: 89 45 F8           mov         dword ptr [ebp-8],eax
  00401E7E: 83 7D F8 00        cmp         dword ptr [ebp-8],0
  00401E82: 75 0A              jne         00401E8E
  00401E84: 6A 08              push        8
  00401E86: E8 65 F3 FF FF     call        004011F0
  00401E8B: 83 C4 04           add         esp,4
  00401E8E: 8D 55 FC           lea         edx,[ebp-4]
  00401E91: 52                 push        edx
  00401E92: 8D 45 F4           lea         eax,[ebp-0Ch]
  00401E95: 50                 push        eax
  00401E96: 8B 4D F4           mov         ecx,dword ptr [ebp-0Ch]
  00401E99: 8B 55 F8           mov         edx,dword ptr [ebp-8]
  00401E9C: 8D 04 8A           lea         eax,[edx+ecx*4]
  00401E9F: 50                 push        eax
  00401EA0: 8B 4D F8           mov         ecx,dword ptr [ebp-8]
  00401EA3: 51                 push        ecx
  00401EA4: 8B 55 F0           mov         edx,dword ptr [ebp-10h]
  00401EA7: 52                 push        edx
  00401EA8: E8 23 00 00 00     call        00401ED0
  00401EAD: 83 C4 14           add         esp,14h
  00401EB0: 8B 45 F4           mov         eax,dword ptr [ebp-0Ch]
  00401EB3: 83 E8 01           sub         eax,1
  00401EB6: A3 5C F9 40 00     mov         [0040F95C],eax
  00401EBB: 8B 4D F8           mov         ecx,dword ptr [ebp-8]
  00401EBE: 89 0D 60 F9 40 00  mov         dword ptr ds:[0040F960h],ecx
  00401EC4: 8B E5              mov         esp,ebp
  00401EC6: 5D                 pop         ebp
  00401EC7: C3                 ret
  00401EC8: CC                 int         3
  00401EC9: CC                 int         3
  00401ECA: CC                 int         3
  00401ECB: CC                 int         3
  00401ECC: CC                 int         3
  00401ECD: CC                 int         3
  00401ECE: CC                 int         3
  00401ECF: CC                 int         3
  00401ED0: 55                 push        ebp
  00401ED1: 8B EC              mov         ebp,esp
  00401ED3: 83 EC 14           sub         esp,14h
  00401ED6: 8B 45 18           mov         eax,dword ptr [ebp+18h]
  00401ED9: C7 00 00 00 00 00  mov         dword ptr [eax],0
  00401EDF: 8B 4D 14           mov         ecx,dword ptr [ebp+14h]
  00401EE2: C7 01 01 00 00 00  mov         dword ptr [ecx],1
  00401EE8: 8B 55 08           mov         edx,dword ptr [ebp+8]
  00401EEB: 89 55 FC           mov         dword ptr [ebp-4],edx
  00401EEE: 83 7D 0C 00        cmp         dword ptr [ebp+0Ch],0
  00401EF2: 74 11              je          00401F05
  00401EF4: 8B 45 0C           mov         eax,dword ptr [ebp+0Ch]
  00401EF7: 8B 4D 10           mov         ecx,dword ptr [ebp+10h]
  00401EFA: 89 08              mov         dword ptr [eax],ecx
  00401EFC: 8B 55 0C           mov         edx,dword ptr [ebp+0Ch]
  00401EFF: 83 C2 04           add         edx,4
  00401F02: 89 55 0C           mov         dword ptr [ebp+0Ch],edx
  00401F05: 8B 45 FC           mov         eax,dword ptr [ebp-4]
  00401F08: 0F BE 08           movsx       ecx,byte ptr [eax]
  00401F0B: 83 F9 22           cmp         ecx,22h
  00401F0E: 0F 85 C9 00 00 00  jne         00401FDD
  00401F14: 8B 55 FC           mov         edx,dword ptr [ebp-4]
  00401F17: 83 C2 01           add         edx,1
  00401F1A: 89 55 FC           mov         dword ptr [ebp-4],edx
  00401F1D: 8B 45 FC           mov         eax,dword ptr [ebp-4]
  00401F20: 0F BE 08           movsx       ecx,byte ptr [eax]
  00401F23: 83 F9 22           cmp         ecx,22h
  00401F26: 74 7A              je          00401FA2
  00401F28: 8B 55 FC           mov         edx,dword ptr [ebp-4]
  00401F2B: 0F BE 02           movsx       eax,byte ptr [edx]
  00401F2E: 85 C0              test        eax,eax
  00401F30: 74 70              je          00401FA2
  00401F32: 8B 4D FC           mov         ecx,dword ptr [ebp-4]
  00401F35: 33 D2              xor         edx,edx
  00401F37: 8A 11              mov         dl,byte ptr [ecx]
  00401F39: 33 C0              xor         eax,eax
  00401F3B: 8A 82 61 0C 41 00  mov         al,byte ptr [edx+00410C61h]
  00401F41: 83 E0 04           and         eax,4
  00401F44: 85 C0              test        eax,eax
  00401F46: 74 2F              je          00401F77
  00401F48: 8B 4D 18           mov         ecx,dword ptr [ebp+18h]
  00401F4B: 8B 11              mov         edx,dword ptr [ecx]
  00401F4D: 83 C2 01           add         edx,1
  00401F50: 8B 45 18           mov         eax,dword ptr [ebp+18h]
  00401F53: 89 10              mov         dword ptr [eax],edx
  00401F55: 83 7D 10 00        cmp         dword ptr [ebp+10h],0
  00401F59: 74 1C              je          00401F77
  00401F5B: 8B 4D 10           mov         ecx,dword ptr [ebp+10h]
  00401F5E: 8B 55 FC           mov         edx,dword ptr [ebp-4]
  00401F61: 8A 02              mov         al,byte ptr [edx]
  00401F63: 88 01              mov         byte ptr [ecx],al
  00401F65: 8B 4D 10           mov         ecx,dword ptr [ebp+10h]
  00401F68: 83 C1 01           add         ecx,1
  00401F6B: 89 4D 10           mov         dword ptr [ebp+10h],ecx
  00401F6E: 8B 55 FC           mov         edx,dword ptr [ebp-4]
  00401F71: 83 C2 01           add         edx,1
  00401F74: 89 55 FC           mov         dword ptr [ebp-4],edx
  00401F77: 8B 45 18           mov         eax,dword ptr [ebp+18h]
  00401F7A: 8B 08              mov         ecx,dword ptr [eax]
  00401F7C: 83 C1 01           add         ecx,1
  00401F7F: 8B 55 18           mov         edx,dword ptr [ebp+18h]
  00401F82: 89 0A              mov         dword ptr [edx],ecx
  00401F84: 83 7D 10 00        cmp         dword ptr [ebp+10h],0
  00401F88: 74 13              je          00401F9D
  00401F8A: 8B 45 10           mov         eax,dword ptr [ebp+10h]
  00401F8D: 8B 4D FC           mov         ecx,dword ptr [ebp-4]
  00401F90: 8A 11              mov         dl,byte ptr [ecx]
  00401F92: 88 10              mov         byte ptr [eax],dl
  00401F94: 8B 45 10           mov         eax,dword ptr [ebp+10h]
  00401F97: 83 C0 01           add         eax,1
  00401F9A: 89 45 10           mov         dword ptr [ebp+10h],eax
  00401F9D: E9 72 FF FF FF     jmp         00401F14
  00401FA2: 8B 4D 18           mov         ecx,dword ptr [ebp+18h]
  00401FA5: 8B 11              mov         edx,dword ptr [ecx]
  00401FA7: 83 C2 01           add         edx,1
  00401FAA: 8B 45 18           mov         eax,dword ptr [ebp+18h]
  00401FAD: 89 10              mov         dword ptr [eax],edx
  00401FAF: 83 7D 10 00        cmp         dword ptr [ebp+10h],0
  00401FB3: 74 0F              je          00401FC4
  00401FB5: 8B 4D 10           mov         ecx,dword ptr [ebp+10h]
  00401FB8: C6 01 00           mov         byte ptr [ecx],0
  00401FBB: 8B 55 10           mov         edx,dword ptr [ebp+10h]
  00401FBE: 83 C2 01           add         edx,1
  00401FC1: 89 55 10           mov         dword ptr [ebp+10h],edx
  00401FC4: 8B 45 FC           mov         eax,dword ptr [ebp-4]
  00401FC7: 0F BE 08           movsx       ecx,byte ptr [eax]
  00401FCA: 83 F9 22           cmp         ecx,22h
  00401FCD: 75 09              jne         00401FD8
  00401FCF: 8B 55 FC           mov         edx,dword ptr [ebp-4]
  00401FD2: 83 C2 01           add         edx,1
  00401FD5: 89 55 FC           mov         dword ptr [ebp-4],edx
  00401FD8: E9 CF 00 00 00     jmp         004020AC
  00401FDD: 8B 45 18           mov         eax,dword ptr [ebp+18h]
  00401FE0: 8B 08              mov         ecx,dword ptr [eax]
  00401FE2: 83 C1 01           add         ecx,1
  00401FE5: 8B 55 18           mov         edx,dword ptr [ebp+18h]
  00401FE8: 89 0A              mov         dword ptr [edx],ecx
  00401FEA: 83 7D 10 00        cmp         dword ptr [ebp+10h],0
  00401FEE: 74 13              je          00402003
  00401FF0: 8B 45 10           mov         eax,dword ptr [ebp+10h]
  00401FF3: 8B 4D FC           mov         ecx,dword ptr [ebp-4]
  00401FF6: 8A 11              mov         dl,byte ptr [ecx]
  00401FF8: 88 10              mov         byte ptr [eax],dl
  00401FFA: 8B 45 10           mov         eax,dword ptr [ebp+10h]
  00401FFD: 83 C0 01           add         eax,1
  00402000: 89 45 10           mov         dword ptr [ebp+10h],eax
  00402003: 8B 4D FC           mov         ecx,dword ptr [ebp-4]
  00402006: 8A 11              mov         dl,byte ptr [ecx]
  00402008: 88 55 F4           mov         byte ptr [ebp-0Ch],dl
  0040200B: 8B 45 FC           mov         eax,dword ptr [ebp-4]
  0040200E: 83 C0 01           add         eax,1
  00402011: 89 45 FC           mov         dword ptr [ebp-4],eax
  00402014: 8B 4D F4           mov         ecx,dword ptr [ebp-0Ch]
  00402017: 81 E1 FF 00 00 00  and         ecx,0FFh
  0040201D: 33 D2              xor         edx,edx
  0040201F: 8A 91 61 0C 41 00  mov         dl,byte ptr [ecx+00410C61h]
  00402025: 83 E2 04           and         edx,4
  00402028: 85 D2              test        edx,edx
  0040202A: 74 2F              je          0040205B
  0040202C: 8B 45 18           mov         eax,dword ptr [ebp+18h]
  0040202F: 8B 08              mov         ecx,dword ptr [eax]
  00402031: 83 C1 01           add         ecx,1
  00402034: 8B 55 18           mov         edx,dword ptr [ebp+18h]
  00402037: 89 0A              mov         dword ptr [edx],ecx
  00402039: 83 7D 10 00        cmp         dword ptr [ebp+10h],0
  0040203D: 74 13              je          00402052
  0040203F: 8B 45 10           mov         eax,dword ptr [ebp+10h]
  00402042: 8B 4D FC           mov         ecx,dword ptr [ebp-4]
  00402045: 8A 11              mov         dl,byte ptr [ecx]
  00402047: 88 10              mov         byte ptr [eax],dl
  00402049: 8B 45 10           mov         eax,dword ptr [ebp+10h]
  0040204C: 83 C0 01           add         eax,1
  0040204F: 89 45 10           mov         dword ptr [ebp+10h],eax
  00402052: 8B 4D FC           mov         ecx,dword ptr [ebp-4]
  00402055: 83 C1 01           add         ecx,1
  00402058: 89 4D FC           mov         dword ptr [ebp-4],ecx
  0040205B: 8B 55 F4           mov         edx,dword ptr [ebp-0Ch]
  0040205E: 81 E2 FF 00 00 00  and         edx,0FFh
  00402064: 83 FA 20           cmp         edx,20h
  00402067: 74 1E              je          00402087
  00402069: 8B 45 F4           mov         eax,dword ptr [ebp-0Ch]
  0040206C: 25 FF 00 00 00     and         eax,0FFh
  00402071: 85 C0              test        eax,eax
  00402073: 74 12              je          00402087
  00402075: 8B 4D F4           mov         ecx,dword ptr [ebp-0Ch]
  00402078: 81 E1 FF 00 00 00  and         ecx,0FFh
  0040207E: 83 F9 09           cmp         ecx,9
  00402081: 0F 85 56 FF FF FF  jne         00401FDD
  00402087: 8B 55 F4           mov         edx,dword ptr [ebp-0Ch]
  0040208A: 81 E2 FF 00 00 00  and         edx,0FFh
  00402090: 85 D2              test        edx,edx
  00402092: 75 0B              jne         0040209F
  00402094: 8B 45 FC           mov         eax,dword ptr [ebp-4]
  00402097: 83 E8 01           sub         eax,1
  0040209A: 89 45 FC           mov         dword ptr [ebp-4],eax
  0040209D: EB 0D              jmp         004020AC
  0040209F: 83 7D 10 00        cmp         dword ptr [ebp+10h],0
  004020A3: 74 07              je          004020AC
  004020A5: 8B 4D 10           mov         ecx,dword ptr [ebp+10h]
  004020A8: C6 41 FF 00        mov         byte ptr [ecx-1],0
  004020AC: C7 45 EC 00 00 00  mov         dword ptr [ebp-14h],0
            00
  004020B3: 8B 55 FC           mov         edx,dword ptr [ebp-4]
  004020B6: 0F BE 02           movsx       eax,byte ptr [edx]
  004020B9: 85 C0              test        eax,eax
  004020BB: 74 21              je          004020DE
  004020BD: 8B 4D FC           mov         ecx,dword ptr [ebp-4]
  004020C0: 0F BE 11           movsx       edx,byte ptr [ecx]
  004020C3: 83 FA 20           cmp         edx,20h
  004020C6: 74 0B              je          004020D3
  004020C8: 8B 45 FC           mov         eax,dword ptr [ebp-4]
  004020CB: 0F BE 08           movsx       ecx,byte ptr [eax]
  004020CE: 83 F9 09           cmp         ecx,9
  004020D1: 75 0B              jne         004020DE
  004020D3: 8B 55 FC           mov         edx,dword ptr [ebp-4]
  004020D6: 83 C2 01           add         edx,1
  004020D9: 89 55 FC           mov         dword ptr [ebp-4],edx
  004020DC: EB DF              jmp         004020BD
  004020DE: 8B 45 FC           mov         eax,dword ptr [ebp-4]
  004020E1: 0F BE 08           movsx       ecx,byte ptr [eax]
  004020E4: 85 C9              test        ecx,ecx
  004020E6: 75 05              jne         004020ED
  004020E8: E9 DE 01 00 00     jmp         004022CB
  004020ED: 83 7D 0C 00        cmp         dword ptr [ebp+0Ch],0
  004020F1: 74 11              je          00402104
  004020F3: 8B 55 0C           mov         edx,dword ptr [ebp+0Ch]
  004020F6: 8B 45 10           mov         eax,dword ptr [ebp+10h]
  004020F9: 89 02              mov         dword ptr [edx],eax
  004020FB: 8B 4D 0C           mov         ecx,dword ptr [ebp+0Ch]
  004020FE: 83 C1 04           add         ecx,4
  00402101: 89 4D 0C           mov         dword ptr [ebp+0Ch],ecx
  00402104: 8B 55 14           mov         edx,dword ptr [ebp+14h]
  00402107: 8B 02              mov         eax,dword ptr [edx]
  00402109: 83 C0 01           add         eax,1
  0040210C: 8B 4D 14           mov         ecx,dword ptr [ebp+14h]
  0040210F: 89 01              mov         dword ptr [ecx],eax
  00402111: C7 45 F8 01 00 00  mov         dword ptr [ebp-8],1
            00
  00402118: C7 45 F0 00 00 00  mov         dword ptr [ebp-10h],0
            00
  0040211F: 8B 55 FC           mov         edx,dword ptr [ebp-4]
  00402122: 0F BE 02           movsx       eax,byte ptr [edx]
  00402125: 83 F8 5C           cmp         eax,5Ch
  00402128: 75 14              jne         0040213E
  0040212A: 8B 4D FC           mov         ecx,dword ptr [ebp-4]
  0040212D: 83 C1 01           add         ecx,1
  00402130: 89 4D FC           mov         dword ptr [ebp-4],ecx
  00402133: 8B 55 F0           mov         edx,dword ptr [ebp-10h]
  00402136: 83 C2 01           add         edx,1
  00402139: 89 55 F0           mov         dword ptr [ebp-10h],edx
  0040213C: EB E1              jmp         0040211F
  0040213E: 8B 45 FC           mov         eax,dword ptr [ebp-4]
  00402141: 0F BE 08           movsx       ecx,byte ptr [eax]
  00402144: 83 F9 22           cmp         ecx,22h
  00402147: 75 51              jne         0040219A
  00402149: 8B 45 F0           mov         eax,dword ptr [ebp-10h]
  0040214C: 33 D2              xor         edx,edx
  0040214E: B9 02 00 00 00     mov         ecx,2
  00402153: F7 F1              div         eax,ecx
  00402155: 85 D2              test        edx,edx
  00402157: 75 39              jne         00402192
  00402159: 83 7D EC 00        cmp         dword ptr [ebp-14h],0
  0040215D: 74 20              je          0040217F
  0040215F: 8B 55 FC           mov         edx,dword ptr [ebp-4]
  00402162: 0F BE 42 01        movsx       eax,byte ptr [edx+1]
  00402166: 83 F8 22           cmp         eax,22h
  00402169: 75 0B              jne         00402176
  0040216B: 8B 4D FC           mov         ecx,dword ptr [ebp-4]
  0040216E: 83 C1 01           add         ecx,1
  00402171: 89 4D FC           mov         dword ptr [ebp-4],ecx
  00402174: EB 07              jmp         0040217D
  00402176: C7 45 F8 00 00 00  mov         dword ptr [ebp-8],0
            00
  0040217D: EB 07              jmp         00402186
  0040217F: C7 45 F8 00 00 00  mov         dword ptr [ebp-8],0
            00
  00402186: 33 D2              xor         edx,edx
  00402188: 83 7D EC 00        cmp         dword ptr [ebp-14h],0
  0040218C: 0F 94 C2           sete        dl
  0040218F: 89 55 EC           mov         dword ptr [ebp-14h],edx
  00402192: 8B 45 F0           mov         eax,dword ptr [ebp-10h]
  00402195: D1 E8              shr         eax,1
  00402197: 89 45 F0           mov         dword ptr [ebp-10h],eax
  0040219A: 8B 4D F0           mov         ecx,dword ptr [ebp-10h]
  0040219D: 8B 55 F0           mov         edx,dword ptr [ebp-10h]
  004021A0: 83 EA 01           sub         edx,1
  004021A3: 89 55 F0           mov         dword ptr [ebp-10h],edx
  004021A6: 85 C9              test        ecx,ecx
  004021A8: 74 24              je          004021CE
  004021AA: 83 7D 10 00        cmp         dword ptr [ebp+10h],0
  004021AE: 74 0F              je          004021BF
  004021B0: 8B 45 10           mov         eax,dword ptr [ebp+10h]
  004021B3: C6 00 5C           mov         byte ptr [eax],5Ch
  004021B6: 8B 4D 10           mov         ecx,dword ptr [ebp+10h]
  004021B9: 83 C1 01           add         ecx,1
  004021BC: 89 4D 10           mov         dword ptr [ebp+10h],ecx
  004021BF: 8B 55 18           mov         edx,dword ptr [ebp+18h]
  004021C2: 8B 02              mov         eax,dword ptr [edx]
  004021C4: 83 C0 01           add         eax,1
  004021C7: 8B 4D 18           mov         ecx,dword ptr [ebp+18h]
  004021CA: 89 01              mov         dword ptr [ecx],eax
  004021CC: EB CC              jmp         0040219A
  004021CE: 8B 55 FC           mov         edx,dword ptr [ebp-4]
  004021D1: 0F BE 02           movsx       eax,byte ptr [edx]
  004021D4: 85 C0              test        eax,eax
  004021D6: 74 1C              je          004021F4
  004021D8: 83 7D EC 00        cmp         dword ptr [ebp-14h],0
  004021DC: 75 1B              jne         004021F9
  004021DE: 8B 4D FC           mov         ecx,dword ptr [ebp-4]
  004021E1: 0F BE 11           movsx       edx,byte ptr [ecx]
  004021E4: 83 FA 20           cmp         edx,20h
  004021E7: 74 0B              je          004021F4
  004021E9: 8B 45 FC           mov         eax,dword ptr [ebp-4]
  004021EC: 0F BE 08           movsx       ecx,byte ptr [eax]
  004021EF: 83 F9 09           cmp         ecx,9
  004021F2: 75 05              jne         004021F9
  004021F4: E9 AB 00 00 00     jmp         004022A4
  004021F9: 83 7D F8 00        cmp         dword ptr [ebp-8],0
  004021FD: 0F 84 93 00 00 00  je          00402296
  00402203: 83 7D 10 00        cmp         dword ptr [ebp+10h],0
  00402207: 74 54              je          0040225D
  00402209: 8B 55 FC           mov         edx,dword ptr [ebp-4]
  0040220C: 33 C0              xor         eax,eax
  0040220E: 8A 02              mov         al,byte ptr [edx]
  00402210: 33 C9              xor         ecx,ecx
  00402212: 8A 88 61 0C 41 00  mov         cl,byte ptr [eax+00410C61h]
  00402218: 83 E1 04           and         ecx,4
  0040221B: 85 C9              test        ecx,ecx
  0040221D: 74 29              je          00402248
  0040221F: 8B 55 10           mov         edx,dword ptr [ebp+10h]
  00402222: 8B 45 FC           mov         eax,dword ptr [ebp-4]
  00402225: 8A 08              mov         cl,byte ptr [eax]
  00402227: 88 0A              mov         byte ptr [edx],cl
  00402229: 8B 55 10           mov         edx,dword ptr [ebp+10h]
  0040222C: 83 C2 01           add         edx,1
  0040222F: 89 55 10           mov         dword ptr [ebp+10h],edx
  00402232: 8B 45 FC           mov         eax,dword ptr [ebp-4]
  00402235: 83 C0 01           add         eax,1
  00402238: 89 45 FC           mov         dword ptr [ebp-4],eax
  0040223B: 8B 4D 18           mov         ecx,dword ptr [ebp+18h]
  0040223E: 8B 11              mov         edx,dword ptr [ecx]
  00402240: 83 C2 01           add         edx,1
  00402243: 8B 45 18           mov         eax,dword ptr [ebp+18h]
  00402246: 89 10              mov         dword ptr [eax],edx
  00402248: 8B 4D 10           mov         ecx,dword ptr [ebp+10h]
  0040224B: 8B 55 FC           mov         edx,dword ptr [ebp-4]
  0040224E: 8A 02              mov         al,byte ptr [edx]
  00402250: 88 01              mov         byte ptr [ecx],al
  00402252: 8B 4D 10           mov         ecx,dword ptr [ebp+10h]
  00402255: 83 C1 01           add         ecx,1
  00402258: 89 4D 10           mov         dword ptr [ebp+10h],ecx
  0040225B: EB 2C              jmp         00402289
  0040225D: 8B 55 FC           mov         edx,dword ptr [ebp-4]
  00402260: 33 C0              xor         eax,eax
  00402262: 8A 02              mov         al,byte ptr [edx]
  00402264: 33 C9              xor         ecx,ecx
  00402266: 8A 88 61 0C 41 00  mov         cl,byte ptr [eax+00410C61h]
  0040226C: 83 E1 04           and         ecx,4
  0040226F: 85 C9              test        ecx,ecx
  00402271: 74 16              je          00402289
  00402273: 8B 55 FC           mov         edx,dword ptr [ebp-4]
  00402276: 83 C2 01           add         edx,1
  00402279: 89 55 FC           mov         dword ptr [ebp-4],edx
  0040227C: 8B 45 18           mov         eax,dword ptr [ebp+18h]
  0040227F: 8B 08              mov         ecx,dword ptr [eax]
  00402281: 83 C1 01           add         ecx,1
  00402284: 8B 55 18           mov         edx,dword ptr [ebp+18h]
  00402287: 89 0A              mov         dword ptr [edx],ecx
  00402289: 8B 45 18           mov         eax,dword ptr [ebp+18h]
  0040228C: 8B 08              mov         ecx,dword ptr [eax]
  0040228E: 83 C1 01           add         ecx,1
  00402291: 8B 55 18           mov         edx,dword ptr [ebp+18h]
  00402294: 89 0A              mov         dword ptr [edx],ecx
  00402296: 8B 45 FC           mov         eax,dword ptr [ebp-4]
  00402299: 83 C0 01           add         eax,1
  0040229C: 89 45 FC           mov         dword ptr [ebp-4],eax
  0040229F: E9 6D FE FF FF     jmp         00402111
  004022A4: 83 7D 10 00        cmp         dword ptr [ebp+10h],0
  004022A8: 74 0F              je          004022B9
  004022AA: 8B 4D 10           mov         ecx,dword ptr [ebp+10h]
  004022AD: C6 01 00           mov         byte ptr [ecx],0
  004022B0: 8B 55 10           mov         edx,dword ptr [ebp+10h]
  004022B3: 83 C2 01           add         edx,1
  004022B6: 89 55 10           mov         dword ptr [ebp+10h],edx
  004022B9: 8B 45 18           mov         eax,dword ptr [ebp+18h]
  004022BC: 8B 08              mov         ecx,dword ptr [eax]
  004022BE: 83 C1 01           add         ecx,1
  004022C1: 8B 55 18           mov         edx,dword ptr [ebp+18h]
  004022C4: 89 0A              mov         dword ptr [edx],ecx
  004022C6: E9 E8 FD FF FF     jmp         004020B3
  004022CB: 83 7D 0C 00        cmp         dword ptr [ebp+0Ch],0
  004022CF: 74 12              je          004022E3
  004022D1: 8B 45 0C           mov         eax,dword ptr [ebp+0Ch]
  004022D4: C7 00 00 00 00 00  mov         dword ptr [eax],0
  004022DA: 8B 4D 0C           mov         ecx,dword ptr [ebp+0Ch]
  004022DD: 83 C1 04           add         ecx,4
  004022E0: 89 4D 0C           mov         dword ptr [ebp+0Ch],ecx
  004022E3: 8B 55 14           mov         edx,dword ptr [ebp+14h]
  004022E6: 8B 02              mov         eax,dword ptr [edx]
  004022E8: 83 C0 01           add         eax,1
  004022EB: 8B 4D 14           mov         ecx,dword ptr [ebp+14h]
  004022EE: 89 01              mov         dword ptr [ecx],eax
  004022F0: 8B E5              mov         esp,ebp
  004022F2: 5D                 pop         ebp
  004022F3: C3                 ret
  004022F4: CC                 int         3
  004022F5: CC                 int         3
  004022F6: CC                 int         3
  004022F7: CC                 int         3
  004022F8: CC                 int         3
  004022F9: CC                 int         3
  004022FA: CC                 int         3
  004022FB: CC                 int         3
  004022FC: CC                 int         3
  004022FD: CC                 int         3
  004022FE: CC                 int         3
  004022FF: CC                 int         3
  00402300: 55                 push        ebp
  00402301: 8B EC              mov         ebp,esp
  00402303: 83 EC 18           sub         esp,18h
  00402306: C7 45 EC 00 00 00  mov         dword ptr [ebp-14h],0
            00
  0040230D: C7 45 E8 00 00 00  mov         dword ptr [ebp-18h],0
            00
  00402314: 83 3D 98 FA 40 00  cmp         dword ptr ds:[0040FA98h],0
            00
  0040231B: 75 3D              jne         0040235A
  0040231D: FF 15 4C B0 40 00  call        dword ptr ds:[0040B04Ch]
  00402323: 89 45 EC           mov         dword ptr [ebp-14h],eax
  00402326: 83 7D EC 00        cmp         dword ptr [ebp-14h],0
  0040232A: 74 0C              je          00402338
  0040232C: C7 05 98 FA 40 00  mov         dword ptr ds:[0040FA98h],1
            01 00 00 00
  00402336: EB 22              jmp         0040235A
  00402338: FF 15 48 B0 40 00  call        dword ptr ds:[0040B048h]
  0040233E: 89 45 E8           mov         dword ptr [ebp-18h],eax
  00402341: 83 7D E8 00        cmp         dword ptr [ebp-18h],0
  00402345: 74 0C              je          00402353
  00402347: C7 05 98 FA 40 00  mov         dword ptr ds:[0040FA98h],2
            02 00 00 00
  00402351: EB 07              jmp         0040235A
  00402353: 33 C0              xor         eax,eax
  00402355: E9 BB 01 00 00     jmp         00402515
  0040235A: 83 3D 98 FA 40 00  cmp         dword ptr ds:[0040FA98h],1
            01
  00402361: 0F 85 F7 00 00 00  jne         0040245E
  00402367: 83 7D EC 00        cmp         dword ptr [ebp-14h],0
  0040236B: 75 16              jne         00402383
  0040236D: FF 15 4C B0 40 00  call        dword ptr ds:[0040B04Ch]
  00402373: 89 45 EC           mov         dword ptr [ebp-14h],eax
  00402376: 83 7D EC 00        cmp         dword ptr [ebp-14h],0
  0040237A: 75 07              jne         00402383
  0040237C: 33 C0              xor         eax,eax
  0040237E: E9 92 01 00 00     jmp         00402515
  00402383: 8B 45 EC           mov         eax,dword ptr [ebp-14h]
  00402386: 89 45 F8           mov         dword ptr [ebp-8],eax
  00402389: 8B 4D F8           mov         ecx,dword ptr [ebp-8]
  0040238C: 33 D2              xor         edx,edx
  0040238E: 66 8B 11           mov         dx,word ptr [ecx]
  00402391: 85 D2              test        edx,edx
  00402393: 74 20              je          004023B5
  00402395: 8B 45 F8           mov         eax,dword ptr [ebp-8]
  00402398: 83 C0 02           add         eax,2
  0040239B: 89 45 F8           mov         dword ptr [ebp-8],eax
  0040239E: 8B 4D F8           mov         ecx,dword ptr [ebp-8]
  004023A1: 33 D2              xor         edx,edx
  004023A3: 66 8B 11           mov         dx,word ptr [ecx]
  004023A6: 85 D2              test        edx,edx
  004023A8: 75 09              jne         004023B3
  004023AA: 8B 45 F8           mov         eax,dword ptr [ebp-8]
  004023AD: 83 C0 02           add         eax,2
  004023B0: 89 45 F8           mov         dword ptr [ebp-8],eax
  004023B3: EB D4              jmp         00402389
  004023B5: 8B 4D F8           mov         ecx,dword ptr [ebp-8]
  004023B8: 2B 4D EC           sub         ecx,dword ptr [ebp-14h]
  004023BB: D1 F9              sar         ecx,1
  004023BD: 83 C1 01           add         ecx,1
  004023C0: 89 4D FC           mov         dword ptr [ebp-4],ecx
  004023C3: 6A 00              push        0
  004023C5: 6A 00              push        0
  004023C7: 6A 00              push        0
  004023C9: 6A 00              push        0
  004023CB: 8B 55 FC           mov         edx,dword ptr [ebp-4]
  004023CE: 52                 push        edx
  004023CF: 8B 45 EC           mov         eax,dword ptr [ebp-14h]
  004023D2: 50                 push        eax
  004023D3: 6A 00              push        0
  004023D5: 6A 00              push        0
  004023D7: FF 15 44 B0 40 00  call        dword ptr ds:[0040B044h]
  004023DD: 89 45 F0           mov         dword ptr [ebp-10h],eax
  004023E0: 83 7D F0 00        cmp         dword ptr [ebp-10h],0
  004023E4: 74 1E              je          00402404
  004023E6: 6A 64              push        64h
  004023E8: 68 18 B4 40 00     push        40B418h
  004023ED: 6A 02              push        2
  004023EF: 8B 4D F0           mov         ecx,dword ptr [ebp-10h]
  004023F2: 51                 push        ecx
  004023F3: E8 D8 13 00 00     call        004037D0
  004023F8: 83 C4 10           add         esp,10h
  004023FB: 89 45 E8           mov         dword ptr [ebp-18h],eax
  004023FE: 83 7D E8 00        cmp         dword ptr [ebp-18h],0
  00402402: 75 11              jne         00402415
  00402404: 8B 55 EC           mov         edx,dword ptr [ebp-14h]
  00402407: 52                 push        edx
  00402408: FF 15 40 B0 40 00  call        dword ptr ds:[0040B040h]
  0040240E: 33 C0              xor         eax,eax
  00402410: E9 00 01 00 00     jmp         00402515
  00402415: 6A 00              push        0
  00402417: 6A 00              push        0
  00402419: 8B 45 F0           mov         eax,dword ptr [ebp-10h]
  0040241C: 50                 push        eax
  0040241D: 8B 4D E8           mov         ecx,dword ptr [ebp-18h]
  00402420: 51                 push        ecx
  00402421: 8B 55 FC           mov         edx,dword ptr [ebp-4]
  00402424: 52                 push        edx
  00402425: 8B 45 EC           mov         eax,dword ptr [ebp-14h]
  00402428: 50                 push        eax
  00402429: 6A 00              push        0
  0040242B: 6A 00              push        0
  0040242D: FF 15 44 B0 40 00  call        dword ptr ds:[0040B044h]
  00402433: 85 C0              test        eax,eax
  00402435: 75 15              jne         0040244C
  00402437: 6A 02              push        2
  00402439: 8B 4D E8           mov         ecx,dword ptr [ebp-18h]
  0040243C: 51                 push        ecx
  0040243D: E8 8E 17 00 00     call        00403BD0
  00402442: 83 C4 08           add         esp,8
  00402445: C7 45 E8 00 00 00  mov         dword ptr [ebp-18h],0
            00
  0040244C: 8B 55 EC           mov         edx,dword ptr [ebp-14h]
  0040244F: 52                 push        edx
  00402450: FF 15 40 B0 40 00  call        dword ptr ds:[0040B040h]
  00402456: 8B 45 E8           mov         eax,dword ptr [ebp-18h]
  00402459: E9 B7 00 00 00     jmp         00402515
  0040245E: 83 3D 98 FA 40 00  cmp         dword ptr ds:[0040FA98h],2
            02
  00402465: 0F 85 A8 00 00 00  jne         00402513
  0040246B: 83 7D E8 00        cmp         dword ptr [ebp-18h],0
  0040246F: 75 16              jne         00402487
  00402471: FF 15 48 B0 40 00  call        dword ptr ds:[0040B048h]
  00402477: 89 45 E8           mov         dword ptr [ebp-18h],eax
  0040247A: 83 7D E8 00        cmp         dword ptr [ebp-18h],0
  0040247E: 75 07              jne         00402487
  00402480: 33 C0              xor         eax,eax
  00402482: E9 8E 00 00 00     jmp         00402515
  00402487: 8B 45 E8           mov         eax,dword ptr [ebp-18h]
  0040248A: 89 45 F4           mov         dword ptr [ebp-0Ch],eax
  0040248D: 8B 4D F4           mov         ecx,dword ptr [ebp-0Ch]
  00402490: 0F BE 11           movsx       edx,byte ptr [ecx]
  00402493: 85 D2              test        edx,edx
  00402495: 74 1E              je          004024B5
  00402497: 8B 45 F4           mov         eax,dword ptr [ebp-0Ch]
  0040249A: 83 C0 01           add         eax,1
  0040249D: 89 45 F4           mov         dword ptr [ebp-0Ch],eax
  004024A0: 8B 4D F4           mov         ecx,dword ptr [ebp-0Ch]
  004024A3: 0F BE 11           movsx       edx,byte ptr [ecx]
  004024A6: 85 D2              test        edx,edx
  004024A8: 75 09              jne         004024B3
  004024AA: 8B 45 F4           mov         eax,dword ptr [ebp-0Ch]
  004024AD: 83 C0 01           add         eax,1
  004024B0: 89 45 F4           mov         dword ptr [ebp-0Ch],eax
  004024B3: EB D8              jmp         0040248D
  004024B5: 8B 4D F4           mov         ecx,dword ptr [ebp-0Ch]
  004024B8: 2B 4D E8           sub         ecx,dword ptr [ebp-18h]
  004024BB: 83 C1 01           add         ecx,1
  004024BE: 89 4D F0           mov         dword ptr [ebp-10h],ecx
  004024C1: 68 8F 00 00 00     push        8Fh
  004024C6: 68 18 B4 40 00     push        40B418h
  004024CB: 6A 02              push        2
  004024CD: 8B 55 F0           mov         edx,dword ptr [ebp-10h]
  004024D0: 52                 push        edx
  004024D1: E8 FA 12 00 00     call        004037D0
  004024D6: 83 C4 10           add         esp,10h
  004024D9: 89 45 F4           mov         dword ptr [ebp-0Ch],eax
  004024DC: 83 7D F4 00        cmp         dword ptr [ebp-0Ch],0
  004024E0: 75 0E              jne         004024F0
  004024E2: 8B 45 E8           mov         eax,dword ptr [ebp-18h]
  004024E5: 50                 push        eax
  004024E6: FF 15 3C B0 40 00  call        dword ptr ds:[0040B03Ch]
  004024EC: 33 C0              xor         eax,eax
  004024EE: EB 25              jmp         00402515
  004024F0: 8B 4D F0           mov         ecx,dword ptr [ebp-10h]
  004024F3: 51                 push        ecx
  004024F4: 8B 55 E8           mov         edx,dword ptr [ebp-18h]
  004024F7: 52                 push        edx
  004024F8: 8B 45 F4           mov         eax,dword ptr [ebp-0Ch]
  004024FB: 50                 push        eax
  004024FC: E8 AF 2D 00 00     call        004052B0
  00402501: 83 C4 0C           add         esp,0Ch
  00402504: 8B 4D E8           mov         ecx,dword ptr [ebp-18h]
  00402507: 51                 push        ecx
  00402508: FF 15 3C B0 40 00  call        dword ptr ds:[0040B03Ch]
  0040250E: 8B 45 F4           mov         eax,dword ptr [ebp-0Ch]
  00402511: EB 02              jmp         00402515
  00402513: 33 C0              xor         eax,eax
  00402515: 8B E5              mov         esp,ebp
  00402517: 5D                 pop         ebp
  00402518: C3                 ret
  00402519: CC                 int         3
  0040251A: CC                 int         3
  0040251B: CC                 int         3
  0040251C: CC                 int         3
  0040251D: CC                 int         3
  0040251E: CC                 int         3
  0040251F: CC                 int         3
  00402520: 55                 push        ebp
  00402521: 8B EC              mov         ebp,esp
  00402523: 83 EC 6C           sub         esp,6Ch
  00402526: 68 81 00 00 00     push        81h
  0040252B: 68 20 B4 40 00     push        40B420h
  00402530: 6A 02              push        2
  00402532: 68 00 01 00 00     push        100h
  00402537: E8 94 12 00 00     call        004037D0
  0040253C: 83 C4 10           add         esp,10h
  0040253F: 89 45 B0           mov         dword ptr [ebp-50h],eax
  00402542: 83 7D B0 00        cmp         dword ptr [ebp-50h],0
  00402546: 75 0A              jne         00402552
  00402548: 6A 1B              push        1Bh
  0040254A: E8 A1 EC FF FF     call        004011F0
  0040254F: 83 C4 04           add         esp,4
  00402552: 8B 45 B0           mov         eax,dword ptr [ebp-50h]
  00402555: A3 80 0D 41 00     mov         [00410D80],eax
  0040255A: C7 05 80 0E 41 00  mov         dword ptr ds:[00410E80h],20h
            20 00 00 00
  00402564: EB 09              jmp         0040256F
  00402566: 8B 4D B0           mov         ecx,dword ptr [ebp-50h]
  00402569: 83 C1 08           add         ecx,8
  0040256C: 89 4D B0           mov         dword ptr [ebp-50h],ecx
  0040256F: 8B 15 80 0D 41 00  mov         edx,dword ptr ds:[00410D80h]
  00402575: 81 C2 00 01 00 00  add         edx,100h
  0040257B: 39 55 B0           cmp         dword ptr [ebp-50h],edx
  0040257E: 73 19              jae         00402599
  00402580: 8B 45 B0           mov         eax,dword ptr [ebp-50h]
  00402583: C6 40 04 00        mov         byte ptr [eax+4],0
  00402587: 8B 4D B0           mov         ecx,dword ptr [ebp-50h]
  0040258A: C7 01 FF FF FF FF  mov         dword ptr [ecx],0FFFFFFFFh
  00402590: 8B 55 B0           mov         edx,dword ptr [ebp-50h]
  00402593: C6 42 05 0A        mov         byte ptr [edx+5],0Ah
  00402597: EB CD              jmp         00402566
  00402599: 8D 45 B8           lea         eax,[ebp-48h]
  0040259C: 50                 push        eax
  0040259D: FF 15 58 B0 40 00  call        dword ptr ds:[0040B058h]
  004025A3: 8B 4D EA           mov         ecx,dword ptr [ebp-16h]
  004025A6: 81 E1 FF FF 00 00  and         ecx,0FFFFh
  004025AC: 85 C9              test        ecx,ecx
  004025AE: 0F 84 7A 01 00 00  je          0040272E
  004025B4: 83 7D EC 00        cmp         dword ptr [ebp-14h],0
  004025B8: 0F 84 70 01 00 00  je          0040272E
  004025BE: 8B 55 EC           mov         edx,dword ptr [ebp-14h]
  004025C1: 8B 02              mov         eax,dword ptr [edx]
  004025C3: 89 45 9C           mov         dword ptr [ebp-64h],eax
  004025C6: 8B 4D EC           mov         ecx,dword ptr [ebp-14h]
  004025C9: 83 C1 04           add         ecx,4
  004025CC: 89 4D FC           mov         dword ptr [ebp-4],ecx
  004025CF: 8B 55 FC           mov         edx,dword ptr [ebp-4]
  004025D2: 03 55 9C           add         edx,dword ptr [ebp-64h]
  004025D5: 89 55 A0           mov         dword ptr [ebp-60h],edx
  004025D8: 81 7D 9C 00 08 00  cmp         dword ptr [ebp-64h],800h
            00
  004025DF: 7D 08              jge         004025E9
  004025E1: 8B 45 9C           mov         eax,dword ptr [ebp-64h]
  004025E4: 89 45 98           mov         dword ptr [ebp-68h],eax
  004025E7: EB 07              jmp         004025F0
  004025E9: C7 45 98 00 08 00  mov         dword ptr [ebp-68h],800h
            00
  004025F0: 8B 4D 98           mov         ecx,dword ptr [ebp-68h]
  004025F3: 89 4D 9C           mov         dword ptr [ebp-64h],ecx
  004025F6: C7 45 A4 01 00 00  mov         dword ptr [ebp-5Ch],1
            00
  004025FD: EB 09              jmp         00402608
  004025FF: 8B 55 A4           mov         edx,dword ptr [ebp-5Ch]
  00402602: 83 C2 01           add         edx,1
  00402605: 89 55 A4           mov         dword ptr [ebp-5Ch],edx
  00402608: A1 80 0E 41 00     mov         eax,[00410E80]
  0040260D: 3B 45 9C           cmp         eax,dword ptr [ebp-64h]
  00402610: 0F 8D 87 00 00 00  jge         0040269D
  00402616: 68 B6 00 00 00     push        0B6h
  0040261B: 68 20 B4 40 00     push        40B420h
  00402620: 6A 02              push        2
  00402622: 68 00 01 00 00     push        100h
  00402627: E8 A4 11 00 00     call        004037D0
  0040262C: 83 C4 10           add         esp,10h
  0040262F: 89 45 B0           mov         dword ptr [ebp-50h],eax
  00402632: 83 7D B0 00        cmp         dword ptr [ebp-50h],0
  00402636: 75 0B              jne         00402643
  00402638: 8B 0D 80 0E 41 00  mov         ecx,dword ptr ds:[00410E80h]
  0040263E: 89 4D 9C           mov         dword ptr [ebp-64h],ecx
  00402641: EB 5A              jmp         0040269D
  00402643: 8B 55 A4           mov         edx,dword ptr [ebp-5Ch]
  00402646: 8B 45 B0           mov         eax,dword ptr [ebp-50h]
  00402649: 89 04 95 80 0D 41  mov         dword ptr [edx*4+00410D80h],eax
            00
  00402650: 8B 0D 80 0E 41 00  mov         ecx,dword ptr ds:[00410E80h]
  00402656: 83 C1 20           add         ecx,20h
  00402659: 89 0D 80 0E 41 00  mov         dword ptr ds:[00410E80h],ecx
  0040265F: EB 09              jmp         0040266A
  00402661: 8B 55 B0           mov         edx,dword ptr [ebp-50h]
  00402664: 83 C2 08           add         edx,8
  00402667: 89 55 B0           mov         dword ptr [ebp-50h],edx
  0040266A: 8B 45 A4           mov         eax,dword ptr [ebp-5Ch]
  0040266D: 8B 0C 85 80 0D 41  mov         ecx,dword ptr [eax*4+00410D80h]
            00
  00402674: 81 C1 00 01 00 00  add         ecx,100h
  0040267A: 39 4D B0           cmp         dword ptr [ebp-50h],ecx
  0040267D: 73 19              jae         00402698
  0040267F: 8B 55 B0           mov         edx,dword ptr [ebp-50h]
  00402682: C6 42 04 00        mov         byte ptr [edx+4],0
  00402686: 8B 45 B0           mov         eax,dword ptr [ebp-50h]
  00402689: C7 00 FF FF FF FF  mov         dword ptr [eax],0FFFFFFFFh
  0040268F: 8B 4D B0           mov         ecx,dword ptr [ebp-50h]
  00402692: C6 41 05 0A        mov         byte ptr [ecx+5],0Ah
  00402696: EB C9              jmp         00402661
  00402698: E9 62 FF FF FF     jmp         004025FF
  0040269D: C7 45 A8 00 00 00  mov         dword ptr [ebp-58h],0
            00
  004026A4: EB 1B              jmp         004026C1
  004026A6: 8B 55 A8           mov         edx,dword ptr [ebp-58h]
  004026A9: 83 C2 01           add         edx,1
  004026AC: 89 55 A8           mov         dword ptr [ebp-58h],edx
  004026AF: 8B 45 FC           mov         eax,dword ptr [ebp-4]
  004026B2: 83 C0 01           add         eax,1
  004026B5: 89 45 FC           mov         dword ptr [ebp-4],eax
  004026B8: 8B 4D A0           mov         ecx,dword ptr [ebp-60h]
  004026BB: 83 C1 04           add         ecx,4
  004026BE: 89 4D A0           mov         dword ptr [ebp-60h],ecx
  004026C1: 8B 55 A8           mov         edx,dword ptr [ebp-58h]
  004026C4: 3B 55 9C           cmp         edx,dword ptr [ebp-64h]
  004026C7: 7D 65              jge         0040272E
  004026C9: 8B 45 A0           mov         eax,dword ptr [ebp-60h]
  004026CC: 83 38 FF           cmp         dword ptr [eax],0FFh
  004026CF: 74 58              je          00402729
  004026D1: 8B 4D FC           mov         ecx,dword ptr [ebp-4]
  004026D4: 0F BE 11           movsx       edx,byte ptr [ecx]
  004026D7: 83 E2 01           and         edx,1
  004026DA: 85 D2              test        edx,edx
  004026DC: 74 4B              je          00402729
  004026DE: 8B 45 FC           mov         eax,dword ptr [ebp-4]
  004026E1: 0F BE 08           movsx       ecx,byte ptr [eax]
  004026E4: 83 E1 08           and         ecx,8
  004026E7: 85 C9              test        ecx,ecx
  004026E9: 75 10              jne         004026FB
  004026EB: 8B 55 A0           mov         edx,dword ptr [ebp-60h]
  004026EE: 8B 02              mov         eax,dword ptr [edx]
  004026F0: 50                 push        eax
  004026F1: FF 15 54 B0 40 00  call        dword ptr ds:[0040B054h]
  004026F7: 85 C0              test        eax,eax
  004026F9: 74 2E              je          00402729
  004026FB: 8B 4D A8           mov         ecx,dword ptr [ebp-58h]
  004026FE: C1 F9 05           sar         ecx,5
  00402701: 8B 55 A8           mov         edx,dword ptr [ebp-58h]
  00402704: 83 E2 1F           and         edx,1Fh
  00402707: 8B 04 8D 80 0D 41  mov         eax,dword ptr [ecx*4+00410D80h]
            00
  0040270E: 8D 0C D0           lea         ecx,[eax+edx*8]
  00402711: 89 4D B0           mov         dword ptr [ebp-50h],ecx
  00402714: 8B 55 B0           mov         edx,dword ptr [ebp-50h]
  00402717: 8B 45 A0           mov         eax,dword ptr [ebp-60h]
  0040271A: 8B 08              mov         ecx,dword ptr [eax]
  0040271C: 89 0A              mov         dword ptr [edx],ecx
  0040271E: 8B 55 B0           mov         edx,dword ptr [ebp-50h]
  00402721: 8B 45 FC           mov         eax,dword ptr [ebp-4]
  00402724: 8A 08              mov         cl,byte ptr [eax]
  00402726: 88 4A 04           mov         byte ptr [edx+4],cl
  00402729: E9 78 FF FF FF     jmp         004026A6
  0040272E: C7 45 A8 00 00 00  mov         dword ptr [ebp-58h],0
            00
  00402735: EB 09              jmp         00402740
  00402737: 8B 55 A8           mov         edx,dword ptr [ebp-58h]
  0040273A: 83 C2 01           add         edx,1
  0040273D: 89 55 A8           mov         dword ptr [ebp-58h],edx
  00402740: 83 7D A8 03        cmp         dword ptr [ebp-58h],3
  00402744: 0F 8D D1 00 00 00  jge         0040281B
  0040274A: 8B 45 A8           mov         eax,dword ptr [ebp-58h]
  0040274D: 8B 0D 80 0D 41 00  mov         ecx,dword ptr ds:[00410D80h]
  00402753: 8D 14 C1           lea         edx,[ecx+eax*8]
  00402756: 89 55 B0           mov         dword ptr [ebp-50h],edx
  00402759: 8B 45 B0           mov         eax,dword ptr [ebp-50h]
  0040275C: 83 38 FF           cmp         dword ptr [eax],0FFh
  0040275F: 0F 85 A2 00 00 00  jne         00402807
  00402765: 8B 4D B0           mov         ecx,dword ptr [ebp-50h]
  00402768: C6 41 04 81        mov         byte ptr [ecx+4],81h
  0040276C: 83 7D A8 00        cmp         dword ptr [ebp-58h],0
  00402770: 75 09              jne         0040277B
  00402772: C7 45 94 F6 FF FF  mov         dword ptr [ebp-6Ch],0FFFFFFF6h
            FF
  00402779: EB 10              jmp         0040278B
  0040277B: 8B 55 A8           mov         edx,dword ptr [ebp-58h]
  0040277E: 83 EA 01           sub         edx,1
  00402781: F7 DA              neg         edx
  00402783: 1B D2              sbb         edx,edx
  00402785: 83 C2 F5           add         edx,0F5h
  00402788: 89 55 94           mov         dword ptr [ebp-6Ch],edx
  0040278B: 8B 45 94           mov         eax,dword ptr [ebp-6Ch]
  0040278E: 50                 push        eax
  0040278F: FF 15 10 B0 40 00  call        dword ptr ds:[0040B010h]
  00402795: 89 45 B4           mov         dword ptr [ebp-4Ch],eax
  00402798: 83 7D B4 FF        cmp         dword ptr [ebp-4Ch],0FFh
  0040279C: 74 58              je          004027F6
  0040279E: 8B 4D B4           mov         ecx,dword ptr [ebp-4Ch]
  004027A1: 51                 push        ecx
  004027A2: FF 15 54 B0 40 00  call        dword ptr ds:[0040B054h]
  004027A8: 89 45 AC           mov         dword ptr [ebp-54h],eax
  004027AB: 83 7D AC 00        cmp         dword ptr [ebp-54h],0
  004027AF: 74 45              je          004027F6
  004027B1: 8B 55 B0           mov         edx,dword ptr [ebp-50h]
  004027B4: 8B 45 B4           mov         eax,dword ptr [ebp-4Ch]
  004027B7: 89 02              mov         dword ptr [edx],eax
  004027B9: 8B 4D AC           mov         ecx,dword ptr [ebp-54h]
  004027BC: 81 E1 FF 00 00 00  and         ecx,0FFh
  004027C2: 83 F9 02           cmp         ecx,2
  004027C5: 75 10              jne         004027D7
  004027C7: 8B 55 B0           mov         edx,dword ptr [ebp-50h]
  004027CA: 8A 42 04           mov         al,byte ptr [edx+4]
  004027CD: 0C 40              or          al,40h
  004027CF: 8B 4D B0           mov         ecx,dword ptr [ebp-50h]
  004027D2: 88 41 04           mov         byte ptr [ecx+4],al
  004027D5: EB 1D              jmp         004027F4
  004027D7: 8B 55 AC           mov         edx,dword ptr [ebp-54h]
  004027DA: 81 E2 FF 00 00 00  and         edx,0FFh
  004027E0: 83 FA 03           cmp         edx,3
  004027E3: 75 0F              jne         004027F4
  004027E5: 8B 45 B0           mov         eax,dword ptr [ebp-50h]
  004027E8: 8A 48 04           mov         cl,byte ptr [eax+4]
  004027EB: 80 C9 08           or          cl,8
  004027EE: 8B 55 B0           mov         edx,dword ptr [ebp-50h]
  004027F1: 88 4A 04           mov         byte ptr [edx+4],cl
  004027F4: EB 0F              jmp         00402805
  004027F6: 8B 45 B0           mov         eax,dword ptr [ebp-50h]
  004027F9: 8A 48 04           mov         cl,byte ptr [eax+4]
  004027FC: 80 C9 40           or          cl,40h
  004027FF: 8B 55 B0           mov         edx,dword ptr [ebp-50h]
  00402802: 88 4A 04           mov         byte ptr [edx+4],cl
  00402805: EB 0F              jmp         00402816
  00402807: 8B 45 B0           mov         eax,dword ptr [ebp-50h]
  0040280A: 8A 48 04           mov         cl,byte ptr [eax+4]
  0040280D: 80 C9 80           or          cl,80h
  00402810: 8B 55 B0           mov         edx,dword ptr [ebp-50h]
  00402813: 88 4A 04           mov         byte ptr [edx+4],cl
  00402816: E9 1C FF FF FF     jmp         00402737
  0040281B: A1 80 0E 41 00     mov         eax,[00410E80]
  00402820: 50                 push        eax
  00402821: FF 15 50 B0 40 00  call        dword ptr ds:[0040B050h]
  00402827: 8B E5              mov         esp,ebp
  00402829: 5D                 pop         ebp
  0040282A: C3                 ret
  0040282B: CC                 int         3
  0040282C: CC                 int         3
  0040282D: CC                 int         3
  0040282E: CC                 int         3
  0040282F: CC                 int         3
  00402830: 55                 push        ebp
  00402831: 8B EC              mov         ebp,esp
  00402833: 83 EC 08           sub         esp,8
  00402836: 8B 45 08           mov         eax,dword ptr [ebp+8]
  00402839: C7 00 00 00 00 00  mov         dword ptr [eax],0
  0040283F: 6A 00              push        0
  00402841: FF 15 5C B0 40 00  call        dword ptr ds:[0040B05Ch]
  00402847: 89 45 F8           mov         dword ptr [ebp-8],eax
  0040284A: 8B 4D F8           mov         ecx,dword ptr [ebp-8]
  0040284D: 33 D2              xor         edx,edx
  0040284F: 66 8B 11           mov         dx,word ptr [ecx]
  00402852: 81 FA 4D 5A 00 00  cmp         edx,5A4Dh
  00402858: 75 09              jne         00402863
  0040285A: 8B 45 F8           mov         eax,dword ptr [ebp-8]
  0040285D: 83 78 3C 00        cmp         dword ptr [eax+3Ch],0
  00402861: 75 02              jne         00402865
  00402863: EB 23              jmp         00402888
  00402865: 8B 4D F8           mov         ecx,dword ptr [ebp-8]
  00402868: 8B 55 F8           mov         edx,dword ptr [ebp-8]
  0040286B: 03 51 3C           add         edx,dword ptr [ecx+3Ch]
  0040286E: 89 55 FC           mov         dword ptr [ebp-4],edx
  00402871: 8B 45 08           mov         eax,dword ptr [ebp+8]
  00402874: 8B 4D FC           mov         ecx,dword ptr [ebp-4]
  00402877: 8A 51 1A           mov         dl,byte ptr [ecx+1Ah]
  0040287A: 88 10              mov         byte ptr [eax],dl
  0040287C: 8B 45 08           mov         eax,dword ptr [ebp+8]
  0040287F: 8B 4D FC           mov         ecx,dword ptr [ebp-4]
  00402882: 8A 51 1B           mov         dl,byte ptr [ecx+1Bh]
  00402885: 88 50 01           mov         byte ptr [eax+1],dl
  00402888: 8B E5              mov         esp,ebp
  0040288A: 5D                 pop         ebp
  0040288B: C3                 ret
  0040288C: CC                 int         3
  0040288D: CC                 int         3
  0040288E: CC                 int         3
  0040288F: CC                 int         3
  00402890: 55                 push        ebp
  00402891: 8B EC              mov         ebp,esp
  00402893: B8 38 12 00 00     mov         eax,1238h
  00402898: E8 23 0B 00 00     call        004033C0
  0040289D: C7 85 C8 ED FF FF  mov         dword ptr [ebp+FFFFEDC8h],0
            00 00 00 00
  004028A7: C7 85 68 FF FF FF  mov         dword ptr [ebp+FFFFFF68h],94h
            94 00 00 00
  004028B1: 8D 85 68 FF FF FF  lea         eax,[ebp+FFFFFF68h]
  004028B7: 50                 push        eax
  004028B8: FF 15 64 B0 40 00  call        dword ptr ds:[0040B064h]
  004028BE: 85 C0              test        eax,eax
  004028C0: 74 1C              je          004028DE
  004028C2: 83 BD 78 FF FF FF  cmp         dword ptr [ebp+FFFFFF78h],2
            02
  004028C9: 75 13              jne         004028DE
  004028CB: 83 BD 6C FF FF FF  cmp         dword ptr [ebp+FFFFFF6Ch],5
            05
  004028D2: 72 0A              jb          004028DE
  004028D4: B8 01 00 00 00     mov         eax,1
  004028D9: E9 D2 01 00 00     jmp         00402AB0
  004028DE: 68 90 10 00 00     push        1090h
  004028E3: 8D 8D D8 EE FF FF  lea         ecx,[ebp+FFFFEED8h]
  004028E9: 51                 push        ecx
  004028EA: 68 44 B4 40 00     push        40B444h
  004028EF: FF 15 60 B0 40 00  call        dword ptr ds:[0040B060h]
  004028F5: 85 C0              test        eax,eax
  004028F7: 0F 84 87 01 00 00  je          00402A84
  004028FD: 8D 95 D8 EE FF FF  lea         edx,[ebp+FFFFEED8h]
  00402903: 89 55 FC           mov         dword ptr [ebp-4],edx
  00402906: EB 09              jmp         00402911
  00402908: 8B 45 FC           mov         eax,dword ptr [ebp-4]
  0040290B: 83 C0 01           add         eax,1
  0040290E: 89 45 FC           mov         dword ptr [ebp-4],eax
  00402911: 8B 4D FC           mov         ecx,dword ptr [ebp-4]
  00402914: 0F BE 11           movsx       edx,byte ptr [ecx]
  00402917: 85 D2              test        edx,edx
  00402919: 74 25              je          00402940
  0040291B: 8B 45 FC           mov         eax,dword ptr [ebp-4]
  0040291E: 0F BE 08           movsx       ecx,byte ptr [eax]
  00402921: 83 F9 61           cmp         ecx,61h
  00402924: 7C 18              jl          0040293E
  00402926: 8B 55 FC           mov         edx,dword ptr [ebp-4]
  00402929: 0F BE 02           movsx       eax,byte ptr [edx]
  0040292C: 83 F8 7A           cmp         eax,7Ah
  0040292F: 7F 0D              jg          0040293E
  00402931: 8B 4D FC           mov         ecx,dword ptr [ebp-4]
  00402934: 8A 11              mov         dl,byte ptr [ecx]
  00402936: 80 C2 E0           add         dl,0E0h
  00402939: 8B 45 FC           mov         eax,dword ptr [ebp-4]
  0040293C: 88 10              mov         byte ptr [eax],dl
  0040293E: EB C8              jmp         00402908
  00402940: 6A 16              push        16h
  00402942: 8D 8D D8 EE FF FF  lea         ecx,[ebp+FFFFEED8h]
  00402948: 51                 push        ecx
  00402949: 68 2C B4 40 00     push        40B42Ch
  0040294E: E8 3D 31 00 00     call        00405A90
  00402953: 83 C4 0C           add         esp,0Ch
  00402956: 85 C0              test        eax,eax
  00402958: 75 0E              jne         00402968
  0040295A: 8D 95 D8 EE FF FF  lea         edx,[ebp+FFFFEED8h]
  00402960: 89 95 C8 ED FF FF  mov         dword ptr [ebp+FFFFEDC8h],edx
  00402966: EB 73              jmp         004029DB
  00402968: 68 04 01 00 00     push        104h
  0040296D: 8D 85 D4 ED FF FF  lea         eax,[ebp+FFFFEDD4h]
  00402973: 50                 push        eax
  00402974: 6A 00              push        0
  00402976: FF 15 2C B0 40 00  call        dword ptr ds:[0040B02Ch]
  0040297C: 8D 8D D4 ED FF FF  lea         ecx,[ebp+FFFFEDD4h]
  00402982: 89 4D FC           mov         dword ptr [ebp-4],ecx
  00402985: EB 09              jmp         00402990
  00402987: 8B 55 FC           mov         edx,dword ptr [ebp-4]
  0040298A: 83 C2 01           add         edx,1
  0040298D: 89 55 FC           mov         dword ptr [ebp-4],edx
  00402990: 8B 45 FC           mov         eax,dword ptr [ebp-4]
  00402993: 0F BE 08           movsx       ecx,byte ptr [eax]
  00402996: 85 C9              test        ecx,ecx
  00402998: 74 25              je          004029BF
  0040299A: 8B 55 FC           mov         edx,dword ptr [ebp-4]
  0040299D: 0F BE 02           movsx       eax,byte ptr [edx]
  004029A0: 83 F8 61           cmp         eax,61h
  004029A3: 7C 18              jl          004029BD
  004029A5: 8B 4D FC           mov         ecx,dword ptr [ebp-4]
  004029A8: 0F BE 11           movsx       edx,byte ptr [ecx]
  004029AB: 83 FA 7A           cmp         edx,7Ah
  004029AE: 7F 0D              jg          004029BD
  004029B0: 8B 45 FC           mov         eax,dword ptr [ebp-4]
  004029B3: 8A 08              mov         cl,byte ptr [eax]
  004029B5: 80 C1 E0           add         cl,0E0h
  004029B8: 8B 55 FC           mov         edx,dword ptr [ebp-4]
  004029BB: 88 0A              mov         byte ptr [edx],cl
  004029BD: EB C8              jmp         00402987
  004029BF: 8D 85 D4 ED FF FF  lea         eax,[ebp+FFFFEDD4h]
  004029C5: 50                 push        eax
  004029C6: 8D 8D D8 EE FF FF  lea         ecx,[ebp+FFFFEED8h]
  004029CC: 51                 push        ecx
  004029CD: E8 3E 30 00 00     call        00405A10
  004029D2: 83 C4 08           add         esp,8
  004029D5: 89 85 C8 ED FF FF  mov         dword ptr [ebp+FFFFEDC8h],eax
  004029DB: 83 BD C8 ED FF FF  cmp         dword ptr [ebp+FFFFEDC8h],0
            00
  004029E2: 0F 84 9C 00 00 00  je          00402A84
  004029E8: 6A 2C              push        2Ch
  004029EA: 8B 95 C8 ED FF FF  mov         edx,dword ptr [ebp+FFFFEDC8h]
  004029F0: 52                 push        edx
  004029F1: E8 5A 2F 00 00     call        00405950
  004029F6: 83 C4 08           add         esp,8
  004029F9: 89 85 C8 ED FF FF  mov         dword ptr [ebp+FFFFEDC8h],eax
  004029FF: 83 BD C8 ED FF FF  cmp         dword ptr [ebp+FFFFEDC8h],0
            00
  00402A06: 74 7C              je          00402A84
  00402A08: 8B 85 C8 ED FF FF  mov         eax,dword ptr [ebp+FFFFEDC8h]
  00402A0E: 83 C0 01           add         eax,1
  00402A11: 89 85 C8 ED FF FF  mov         dword ptr [ebp+FFFFEDC8h],eax
  00402A17: 8B 8D C8 ED FF FF  mov         ecx,dword ptr [ebp+FFFFEDC8h]
  00402A1D: 89 4D FC           mov         dword ptr [ebp-4],ecx
  00402A20: 8B 55 FC           mov         edx,dword ptr [ebp-4]
  00402A23: 0F BE 02           movsx       eax,byte ptr [edx]
  00402A26: 85 C0              test        eax,eax
  00402A28: 74 1E              je          00402A48
  00402A2A: 8B 4D FC           mov         ecx,dword ptr [ebp-4]
  00402A2D: 0F BE 11           movsx       edx,byte ptr [ecx]
  00402A30: 83 FA 3B           cmp         edx,3Bh
  00402A33: 75 08              jne         00402A3D
  00402A35: 8B 45 FC           mov         eax,dword ptr [ebp-4]
  00402A38: C6 00 00           mov         byte ptr [eax],0
  00402A3B: EB 09              jmp         00402A46
  00402A3D: 8B 4D FC           mov         ecx,dword ptr [ebp-4]
  00402A40: 83 C1 01           add         ecx,1
  00402A43: 89 4D FC           mov         dword ptr [ebp-4],ecx
  00402A46: EB D8              jmp         00402A20
  00402A48: 6A 0A              push        0Ah
  00402A4A: 6A 00              push        0
  00402A4C: 8B 95 C8 ED FF FF  mov         edx,dword ptr [ebp+FFFFEDC8h]
  00402A52: 52                 push        edx
  00402A53: E8 98 2B 00 00     call        004055F0
  00402A58: 83 C4 0C           add         esp,0Ch
  00402A5B: 89 85 D0 ED FF FF  mov         dword ptr [ebp+FFFFEDD0h],eax
  00402A61: 83 BD D0 ED FF FF  cmp         dword ptr [ebp+FFFFEDD0h],2
            02
  00402A68: 74 12              je          00402A7C
  00402A6A: 83 BD D0 ED FF FF  cmp         dword ptr [ebp+FFFFEDD0h],3
            03
  00402A71: 74 09              je          00402A7C
  00402A73: 83 BD D0 ED FF FF  cmp         dword ptr [ebp+FFFFEDD0h],1
            01
  00402A7A: 75 08              jne         00402A84
  00402A7C: 8B 85 D0 ED FF FF  mov         eax,dword ptr [ebp+FFFFEDD0h]
  00402A82: EB 2C              jmp         00402AB0
  00402A84: 8D 85 CC ED FF FF  lea         eax,[ebp+FFFFEDCCh]
  00402A8A: 50                 push        eax
  00402A8B: E8 A0 FD FF FF     call        00402830
  00402A90: 83 C4 04           add         esp,4
  00402A93: 8B 8D CC ED FF FF  mov         ecx,dword ptr [ebp+FFFFEDCCh]
  00402A99: 81 E1 FF 00 00 00  and         ecx,0FFh
  00402A9F: 83 F9 06           cmp         ecx,6
  00402AA2: 7C 07              jl          00402AAB
  00402AA4: B8 03 00 00 00     mov         eax,3
  00402AA9: EB 05              jmp         00402AB0
  00402AAB: B8 02 00 00 00     mov         eax,2
  00402AB0: 8B E5              mov         esp,ebp
  00402AB2: 5D                 pop         ebp
  00402AB3: C3                 ret
  00402AB4: CC                 int         3
  00402AB5: CC                 int         3
  00402AB6: CC                 int         3
  00402AB7: CC                 int         3
  00402AB8: CC                 int         3
  00402AB9: CC                 int         3
  00402ABA: CC                 int         3
  00402ABB: CC                 int         3
  00402ABC: CC                 int         3
  00402ABD: CC                 int         3
  00402ABE: CC                 int         3
  00402ABF: CC                 int         3
  00402AC0: 55                 push        ebp
  00402AC1: 8B EC              mov         ebp,esp
  00402AC3: 6A 00              push        0
  00402AC5: 68 00 10 00 00     push        1000h
  00402ACA: 33 C0              xor         eax,eax
  00402ACC: 83 7D 08 00        cmp         dword ptr [ebp+8],0
  00402AD0: 0F 94 C0           sete        al
  00402AD3: 50                 push        eax
  00402AD4: FF 15 6C B0 40 00  call        dword ptr ds:[0040B06Ch]
  00402ADA: A3 6C 0D 41 00     mov         [00410D6C],eax
  00402ADF: 83 3D 6C 0D 41 00  cmp         dword ptr ds:[00410D6Ch],0
            00
  00402AE6: 75 04              jne         00402AEC
  00402AE8: 33 C0              xor         eax,eax
  00402AEA: EB 5F              jmp         00402B4B
  00402AEC: E8 9F FD FF FF     call        00402890
  00402AF1: A3 70 0D 41 00     mov         [00410D70],eax
  00402AF6: 83 3D 70 0D 41 00  cmp         dword ptr ds:[00410D70h],3
            03
  00402AFD: 75 24              jne         00402B23
  00402AFF: 68 F8 03 00 00     push        3F8h
  00402B04: E8 C7 2F 00 00     call        00405AD0
  00402B09: 83 C4 04           add         esp,4
  00402B0C: 85 C0              test        eax,eax
  00402B0E: 75 11              jne         00402B21
  00402B10: 8B 0D 6C 0D 41 00  mov         ecx,dword ptr ds:[00410D6Ch]
  00402B16: 51                 push        ecx
  00402B17: FF 15 68 B0 40 00  call        dword ptr ds:[0040B068h]
  00402B1D: 33 C0              xor         eax,eax
  00402B1F: EB 2A              jmp         00402B4B
  00402B21: EB 23              jmp         00402B46
  00402B23: 83 3D 70 0D 41 00  cmp         dword ptr ds:[00410D70h],2
            02
  00402B2A: 75 1A              jne         00402B46
  00402B2C: E8 0F 45 00 00     call        00407040
  00402B31: 85 C0              test        eax,eax
  00402B33: 75 11              jne         00402B46
  00402B35: 8B 15 6C 0D 41 00  mov         edx,dword ptr ds:[00410D6Ch]
  00402B3B: 52                 push        edx
  00402B3C: FF 15 68 B0 40 00  call        dword ptr ds:[0040B068h]
  00402B42: 33 C0              xor         eax,eax
  00402B44: EB 05              jmp         00402B4B
  00402B46: B8 01 00 00 00     mov         eax,1
  00402B4B: 5D                 pop         ebp
  00402B4C: C3                 ret
  00402B4D: CC                 int         3
  00402B4E: CC                 int         3
  00402B4F: CC                 int         3
  00402B50: 55                 push        ebp
  00402B51: 8B EC              mov         ebp,esp
  00402B53: 53                 push        ebx
  00402B54: 56                 push        esi
  00402B55: 57                 push        edi
  00402B56: 55                 push        ebp
  00402B57: 6A 00              push        0
  00402B59: 6A 00              push        0
  00402B5B: 68 68 2B 40 00     push        402B68h
  00402B60: FF 75 08           push        dword ptr [ebp+8]
  00402B63: E8 3A 81 00 00     call        0040ACA2
  00402B68: 5D                 pop         ebp
  00402B69: 5F                 pop         edi
  00402B6A: 5E                 pop         esi
  00402B6B: 5B                 pop         ebx
  00402B6C: 8B E5              mov         esp,ebp
  00402B6E: 5D                 pop         ebp
  00402B6F: C3                 ret
  00402B70: 8B 4C 24 04        mov         ecx,dword ptr [esp+4]
  00402B74: F7 41 04 06 00 00  test        dword ptr [ecx+4],6
            00
  00402B7B: B8 01 00 00 00     mov         eax,1
  00402B80: 74 0F              je          00402B91
  00402B82: 8B 44 24 08        mov         eax,dword ptr [esp+8]
  00402B86: 8B 54 24 10        mov         edx,dword ptr [esp+10h]
  00402B8A: 89 02              mov         dword ptr [edx],eax
  00402B8C: B8 03 00 00 00     mov         eax,3
  00402B91: C3                 ret
  00402B92: 53                 push        ebx
  00402B93: 56                 push        esi
  00402B94: 57                 push        edi
  00402B95: 8B 44 24 10        mov         eax,dword ptr [esp+10h]
  00402B99: 50                 push        eax
  00402B9A: 6A FE              push        0FEh
  00402B9C: 68 70 2B 40 00     push        402B70h
  00402BA1: 64 FF 35 00 00 00  push        dword ptr fs:[00000000h]
            00
  00402BA8: 64 89 25 00 00 00  mov         dword ptr fs:[00000000h],esp
            00
  00402BAF: 8B 44 24 20        mov         eax,dword ptr [esp+20h]
  00402BB3: 8B 58 08           mov         ebx,dword ptr [eax+8]
  00402BB6: 8B 70 0C           mov         esi,dword ptr [eax+0Ch]
  00402BB9: 83 FE FF           cmp         esi,0FFh
  00402BBC: 74 2E              je          00402BEC
  00402BBE: 3B 74 24 24        cmp         esi,dword ptr [esp+24h]
  00402BC2: 74 28              je          00402BEC
  00402BC4: 8D 34 76           lea         esi,[esi+esi*2]
  00402BC7: 8B 0C B3           mov         ecx,dword ptr [ebx+esi*4]
  00402BCA: 89 4C 24 08        mov         dword ptr [esp+8],ecx
  00402BCE: 89 48 0C           mov         dword ptr [eax+0Ch],ecx
  00402BD1: 83 7C B3 04 00     cmp         dword ptr [ebx+esi*4+4],0
  00402BD6: 75 12              jne         00402BEA
  00402BD8: 68 01 01 00 00     push        101h
  00402BDD: 8B 44 B3 08        mov         eax,dword ptr [ebx+esi*4+8]
  00402BE1: E8 40 00 00 00     call        00402C26
  00402BE6: FF 54 B3 08        call        dword ptr [ebx+esi*4+8]
  00402BEA: EB C3              jmp         00402BAF
  00402BEC: 64 8F 05 00 00 00  pop         dword ptr fs:[00000000h]
            00
  00402BF3: 83 C4 0C           add         esp,0Ch
  00402BF6: 5F                 pop         edi
  00402BF7: 5E                 pop         esi
  00402BF8: 5B                 pop         ebx
  00402BF9: C3                 ret
  00402BFA: 33 C0              xor         eax,eax
  00402BFC: 64 8B 0D 00 00 00  mov         ecx,dword ptr fs:[00000000h]
            00
  00402C03: 81 79 04 70 2B 40  cmp         dword ptr [ecx+4],402B70h
            00
  00402C0A: 75 10              jne         00402C1C
  00402C0C: 8B 51 0C           mov         edx,dword ptr [ecx+0Ch]
  00402C0F: 8B 52 0C           mov         edx,dword ptr [edx+0Ch]
  00402C12: 39 51 08           cmp         dword ptr [ecx+8],edx
  00402C15: 75 05              jne         00402C1C
  00402C17: B8 01 00 00 00     mov         eax,1
  00402C1C: C3                 ret
  00402C1D: 53                 push        ebx
  00402C1E: 51                 push        ecx
  00402C1F: BB 04 D1 40 00     mov         ebx,40D104h
  00402C24: EB 0A              jmp         00402C30
  00402C26: 53                 push        ebx
  00402C27: 51                 push        ecx
  00402C28: BB 04 D1 40 00     mov         ebx,40D104h
  00402C2D: 8B 4D 08           mov         ecx,dword ptr [ebp+8]
  00402C30: 89 4B 08           mov         dword ptr [ebx+8],ecx
  00402C33: 89 43 04           mov         dword ptr [ebx+4],eax
  00402C36: 89 6B 0C           mov         dword ptr [ebx+0Ch],ebp
  00402C39: 59                 pop         ecx
  00402C3A: 5B                 pop         ebx
  00402C3B: C2 04 00           ret         4
  00402C3E: CC                 int         3
  00402C3F: CC                 int         3
  00402C40: 56                 push        esi
  00402C41: 43                 inc         ebx
  00402C42: 32 30              xor         dh,byte ptr [eax]
  00402C44: 58                 pop         eax
  00402C45: 43                 inc         ebx
  00402C46: 30 30              xor         byte ptr [eax],dh
  00402C48: 55                 push        ebp
  00402C49: 8B EC              mov         ebp,esp
  00402C4B: 83 EC 08           sub         esp,8
  00402C4E: 53                 push        ebx
  00402C4F: 56                 push        esi
  00402C50: 57                 push        edi
  00402C51: 55                 push        ebp
  00402C52: FC                 cld
  00402C53: 8B 5D 0C           mov         ebx,dword ptr [ebp+0Ch]
  00402C56: 8B 45 08           mov         eax,dword ptr [ebp+8]
  00402C59: F7 40 04 06 00 00  test        dword ptr [eax+4],6
            00
  00402C60: 0F 85 82 00 00 00  jne         00402CE8
  00402C66: 89 45 F8           mov         dword ptr [ebp-8],eax
  00402C69: 8B 45 10           mov         eax,dword ptr [ebp+10h]
  00402C6C: 89 45 FC           mov         dword ptr [ebp-4],eax
  00402C6F: 8D 45 F8           lea         eax,[ebp-8]
  00402C72: 89 43 FC           mov         dword ptr [ebx-4],eax
  00402C75: 8B 73 0C           mov         esi,dword ptr [ebx+0Ch]
  00402C78: 8B 7B 08           mov         edi,dword ptr [ebx+8]
  00402C7B: 83 FE FF           cmp         esi,0FFh
  00402C7E: 74 61              je          00402CE1
  00402C80: 8D 0C 76           lea         ecx,[esi+esi*2]
  00402C83: 83 7C 8F 04 00     cmp         dword ptr [edi+ecx*4+4],0
  00402C88: 74 45              je          00402CCF
  00402C8A: 56                 push        esi
  00402C8B: 55                 push        ebp
  00402C8C: 8D 6B 10           lea         ebp,[ebx+10h]
  00402C8F: FF 54 8F 04        call        dword ptr [edi+ecx*4+4]
  00402C93: 5D                 pop         ebp
  00402C94: 5E                 pop         esi
  00402C95: 8B 5D 0C           mov         ebx,dword ptr [ebp+0Ch]
  00402C98: 0B C0              or          eax,eax
  00402C9A: 74 33              je          00402CCF
  00402C9C: 78 3C              js          00402CDA
  00402C9E: 8B 7B 08           mov         edi,dword ptr [ebx+8]
  00402CA1: 53                 push        ebx
  00402CA2: E8 A9 FE FF FF     call        00402B50
  00402CA7: 83 C4 04           add         esp,4
  00402CAA: 8D 6B 10           lea         ebp,[ebx+10h]
  00402CAD: 56                 push        esi
  00402CAE: 53                 push        ebx
  00402CAF: E8 DE FE FF FF     call        00402B92
  00402CB4: 83 C4 08           add         esp,8
  00402CB7: 8D 0C 76           lea         ecx,[esi+esi*2]
  00402CBA: 6A 01              push        1
  00402CBC: 8B 44 8F 08        mov         eax,dword ptr [edi+ecx*4+8]
  00402CC0: E8 61 FF FF FF     call        00402C26
  00402CC5: 8B 04 8F           mov         eax,dword ptr [edi+ecx*4]
  00402CC8: 89 43 0C           mov         dword ptr [ebx+0Ch],eax
  00402CCB: FF 54 8F 08        call        dword ptr [edi+ecx*4+8]
  00402CCF: 8B 7B 08           mov         edi,dword ptr [ebx+8]
  00402CD2: 8D 0C 76           lea         ecx,[esi+esi*2]
  00402CD5: 8B 34 8F           mov         esi,dword ptr [edi+ecx*4]
  00402CD8: EB A1              jmp         00402C7B
  00402CDA: B8 00 00 00 00     mov         eax,0
  00402CDF: EB 1C              jmp         00402CFD
  00402CE1: B8 01 00 00 00     mov         eax,1
  00402CE6: EB 15              jmp         00402CFD
  00402CE8: 55                 push        ebp
  00402CE9: 8D 6B 10           lea         ebp,[ebx+10h]
  00402CEC: 6A FF              push        0FFh
  00402CEE: 53                 push        ebx
  00402CEF: E8 9E FE FF FF     call        00402B92
  00402CF4: 83 C4 08           add         esp,8
  00402CF7: 5D                 pop         ebp
  00402CF8: B8 01 00 00 00     mov         eax,1
  00402CFD: 5D                 pop         ebp
  00402CFE: 5F                 pop         edi
  00402CFF: 5E                 pop         esi
  00402D00: 5B                 pop         ebx
  00402D01: 8B E5              mov         esp,ebp
  00402D03: 5D                 pop         ebp
  00402D04: C3                 ret
  00402D05: 55                 push        ebp
  00402D06: 8B 4C 24 08        mov         ecx,dword ptr [esp+8]
  00402D0A: 8B 29              mov         ebp,dword ptr [ecx]
  00402D0C: 8B 41 1C           mov         eax,dword ptr [ecx+1Ch]
  00402D0F: 50                 push        eax
  00402D10: 8B 41 18           mov         eax,dword ptr [ecx+18h]
  00402D13: 50                 push        eax
  00402D14: E8 79 FE FF FF     call        00402B92
  00402D19: 83 C4 08           add         esp,8
  00402D1C: 5D                 pop         ebp
  00402D1D: C2 04 00           ret         4
  00402D20: 55                 push        ebp
  00402D21: 8B EC              mov         ebp,esp
  00402D23: 83 3D 38 F9 40 00  cmp         dword ptr ds:[0040F938h],1
            01
  00402D2A: 74 12              je          00402D3E
  00402D2C: 83 3D 38 F9 40 00  cmp         dword ptr ds:[0040F938h],0
            00
  00402D33: 75 32              jne         00402D67
  00402D35: 83 3D 40 D0 40 00  cmp         dword ptr ds:[0040D040h],1
            01
  00402D3C: 75 29              jne         00402D67
  00402D3E: 68 FC 00 00 00     push        0FCh
  00402D43: E8 28 00 00 00     call        00402D70
  00402D48: 83 C4 04           add         esp,4
  00402D4B: 83 3D 9C FA 40 00  cmp         dword ptr ds:[0040FA9Ch],0
            00
  00402D52: 74 06              je          00402D5A
  00402D54: FF 15 9C FA 40 00  call        dword ptr ds:[0040FA9Ch]
  00402D5A: 68 FF 00 00 00     push        0FFh
  00402D5F: E8 0C 00 00 00     call        00402D70
  00402D64: 83 C4 04           add         esp,4
  00402D67: 5D                 pop         ebp
  00402D68: C3                 ret
  00402D69: CC                 int         3
  00402D6A: CC                 int         3
  00402D6B: CC                 int         3
  00402D6C: CC                 int         3
  00402D6D: CC                 int         3
  00402D6E: CC                 int         3
  00402D6F: CC                 int         3
  00402D70: 55                 push        ebp
  00402D71: 8B EC              mov         ebp,esp
  00402D73: 81 EC B0 01 00 00  sub         esp,1B0h
  00402D79: 53                 push        ebx
  00402D7A: 56                 push        esi
  00402D7B: 57                 push        edi
  00402D7C: C7 45 F8 00 00 00  mov         dword ptr [ebp-8],0
            00
  00402D83: EB 09              jmp         00402D8E
  00402D85: 8B 45 F8           mov         eax,dword ptr [ebp-8]
  00402D88: 83 C0 01           add         eax,1
  00402D8B: 89 45 F8           mov         dword ptr [ebp-8],eax
  00402D8E: 83 7D F8 12        cmp         dword ptr [ebp-8],12h
  00402D92: 73 13              jae         00402DA7
  00402D94: 8B 4D F8           mov         ecx,dword ptr [ebp-8]
  00402D97: 8B 55 08           mov         edx,dword ptr [ebp+8]
  00402D9A: 3B 14 CD 18 D1 40  cmp         edx,dword ptr [ecx*8+0040D118h]
            00
  00402DA1: 75 02              jne         00402DA5
  00402DA3: EB 02              jmp         00402DA7
  00402DA5: EB DE              jmp         00402D85
  00402DA7: 8B 45 F8           mov         eax,dword ptr [ebp-8]
  00402DAA: 8B 4D 08           mov         ecx,dword ptr [ebp+8]
  00402DAD: 3B 0C C5 18 D1 40  cmp         ecx,dword ptr [eax*8+0040D118h]
            00
  00402DB4: 0F 85 6E 01 00 00  jne         00402F28
  00402DBA: 81 7D 08 FC 00 00  cmp         dword ptr [ebp+8],0FCh
            00
  00402DC1: 74 21              je          00402DE4
  00402DC3: 8B 55 F8           mov         edx,dword ptr [ebp-8]
  00402DC6: 8B 04 D5 1C D1 40  mov         eax,dword ptr [edx*8+0040D11Ch]
            00
  00402DCD: 50                 push        eax
  00402DCE: 6A 00              push        0
  00402DD0: 6A 00              push        0
  00402DD2: 6A 00              push        0
  00402DD4: 6A 01              push        1
  00402DD6: E8 85 E4 FF FF     call        00401260
  00402DDB: 83 C4 14           add         esp,14h
  00402DDE: 83 F8 01           cmp         eax,1
  00402DE1: 75 01              jne         00402DE4
  00402DE3: CC                 int         3
  00402DE4: 83 3D 38 F9 40 00  cmp         dword ptr ds:[0040F938h],1
            01
  00402DEB: 74 12              je          00402DFF
  00402DED: 83 3D 38 F9 40 00  cmp         dword ptr ds:[0040F938h],0
            00
  00402DF4: 75 42              jne         00402E38
  00402DF6: 83 3D 40 D0 40 00  cmp         dword ptr ds:[0040D040h],1
            01
  00402DFD: 75 39              jne         00402E38
  00402DFF: 6A 00              push        0
  00402E01: 8D 4D FC           lea         ecx,[ebp-4]
  00402E04: 51                 push        ecx
  00402E05: 8B 55 F8           mov         edx,dword ptr [ebp-8]
  00402E08: 8B 04 D5 1C D1 40  mov         eax,dword ptr [edx*8+0040D11Ch]
            00
  00402E0F: 50                 push        eax
  00402E10: E8 3B 02 00 00     call        00403050
  00402E15: 83 C4 04           add         esp,4
  00402E18: 50                 push        eax
  00402E19: 8B 4D F8           mov         ecx,dword ptr [ebp-8]
  00402E1C: 8B 14 CD 1C D1 40  mov         edx,dword ptr [ecx*8+0040D11Ch]
            00
  00402E23: 52                 push        edx
  00402E24: 6A F4              push        0F4h
  00402E26: FF 15 10 B0 40 00  call        dword ptr ds:[0040B010h]
  00402E2C: 50                 push        eax
  00402E2D: FF 15 14 B0 40 00  call        dword ptr ds:[0040B014h]
  00402E33: E9 F0 00 00 00     jmp         00402F28
  00402E38: 81 7D 08 FC 00 00  cmp         dword ptr [ebp+8],0FCh
            00
  00402E3F: 0F 84 E3 00 00 00  je          00402F28
  00402E45: 68 04 01 00 00     push        104h
  00402E4A: 8D 85 F0 FE FF FF  lea         eax,[ebp+FFFFFEF0h]
  00402E50: 50                 push        eax
  00402E51: 6A 00              push        0
  00402E53: FF 15 2C B0 40 00  call        dword ptr ds:[0040B02Ch]
  00402E59: 85 C0              test        eax,eax
  00402E5B: 75 14              jne         00402E71
  00402E5D: 68 C4 B3 40 00     push        40B3C4h
  00402E62: 8D 8D F0 FE FF FF  lea         ecx,[ebp+FFFFFEF0h]
  00402E68: 51                 push        ecx
  00402E69: E8 62 03 00 00     call        004031D0
  00402E6E: 83 C4 08           add         esp,8
  00402E71: 8D 95 F0 FE FF FF  lea         edx,[ebp+FFFFFEF0h]
  00402E77: 89 55 F4           mov         dword ptr [ebp-0Ch],edx
  00402E7A: 8B 45 F4           mov         eax,dword ptr [ebp-0Ch]
  00402E7D: 50                 push        eax
  00402E7E: E8 CD 01 00 00     call        00403050
  00402E83: 83 C4 04           add         esp,4
  00402E86: 83 C0 01           add         eax,1
  00402E89: 83 F8 3C           cmp         eax,3Ch
  00402E8C: 76 2C              jbe         00402EBA
  00402E8E: 8D 8D F0 FE FF FF  lea         ecx,[ebp+FFFFFEF0h]
  00402E94: 51                 push        ecx
  00402E95: E8 B6 01 00 00     call        00403050
  00402E9A: 83 C4 04           add         esp,4
  00402E9D: 8B 55 F4           mov         edx,dword ptr [ebp-0Ch]
  00402EA0: 8D 44 02 C5        lea         eax,[edx+eax-3Bh]
  00402EA4: 89 45 F4           mov         dword ptr [ebp-0Ch],eax
  00402EA7: 6A 03              push        3
  00402EA9: 68 C0 B3 40 00     push        40B3C0h
  00402EAE: 8B 4D F4           mov         ecx,dword ptr [ebp-0Ch]
  00402EB1: 51                 push        ecx
  00402EB2: E8 19 08 00 00     call        004036D0
  00402EB7: 83 C4 0C           add         esp,0Ch
  00402EBA: 68 10 B7 40 00     push        40B710h
  00402EBF: 8D 95 50 FE FF FF  lea         edx,[ebp+FFFFFE50h]
  00402EC5: 52                 push        edx
  00402EC6: E8 05 03 00 00     call        004031D0
  00402ECB: 83 C4 08           add         esp,8
  00402ECE: 8B 45 F4           mov         eax,dword ptr [ebp-0Ch]
  00402ED1: 50                 push        eax
  00402ED2: 8D 8D 50 FE FF FF  lea         ecx,[ebp+FFFFFE50h]
  00402ED8: 51                 push        ecx
  00402ED9: E8 02 03 00 00     call        004031E0
  00402EDE: 83 C4 08           add         esp,8
  00402EE1: 68 38 B3 40 00     push        40B338h
  00402EE6: 8D 95 50 FE FF FF  lea         edx,[ebp+FFFFFE50h]
  00402EEC: 52                 push        edx
  00402EED: E8 EE 02 00 00     call        004031E0
  00402EF2: 83 C4 08           add         esp,8
  00402EF5: 8B 45 F8           mov         eax,dword ptr [ebp-8]
  00402EF8: 8B 0C C5 1C D1 40  mov         ecx,dword ptr [eax*8+0040D11Ch]
            00
  00402EFF: 51                 push        ecx
  00402F00: 8D 95 50 FE FF FF  lea         edx,[ebp+FFFFFE50h]
  00402F06: 52                 push        edx
  00402F07: E8 D4 02 00 00     call        004031E0
  00402F0C: 83 C4 08           add         esp,8
  00402F0F: 68 10 20 01 00     push        12010h
  00402F14: 68 E8 B6 40 00     push        40B6E8h
  00402F19: 8D 85 50 FE FF FF  lea         eax,[ebp+FFFFFE50h]
  00402F1F: 50                 push        eax
  00402F20: E8 EB 06 00 00     call        00403610
  00402F25: 83 C4 0C           add         esp,0Ch
  00402F28: 5F                 pop         edi
  00402F29: 5E                 pop         esi
  00402F2A: 5B                 pop         ebx
  00402F2B: 8B E5              mov         esp,ebp
  00402F2D: 5D                 pop         ebp
  00402F2E: C3                 ret
  00402F2F: CC                 int         3
  00402F30: 55                 push        ebp
  00402F31: 8B EC              mov         ebp,esp
  00402F33: 83 7D 10 0A        cmp         dword ptr [ebp+10h],0Ah
  00402F37: 75 1E              jne         00402F57
  00402F39: 83 7D 08 00        cmp         dword ptr [ebp+8],0
  00402F3D: 7D 18              jge         00402F57
  00402F3F: 6A 01              push        1
  00402F41: 8B 45 10           mov         eax,dword ptr [ebp+10h]
  00402F44: 50                 push        eax
  00402F45: 8B 4D 0C           mov         ecx,dword ptr [ebp+0Ch]
  00402F48: 51                 push        ecx
  00402F49: 8B 55 08           mov         edx,dword ptr [ebp+8]
  00402F4C: 52                 push        edx
  00402F4D: E8 2E 00 00 00     call        00402F80
  00402F52: 83 C4 10           add         esp,10h
  00402F55: EB 16              jmp         00402F6D
  00402F57: 6A 00              push        0
  00402F59: 8B 45 10           mov         eax,dword ptr [ebp+10h]
  00402F5C: 50                 push        eax
  00402F5D: 8B 4D 0C           mov         ecx,dword ptr [ebp+0Ch]
  00402F60: 51                 push        ecx
  00402F61: 8B 55 08           mov         edx,dword ptr [ebp+8]
  00402F64: 52                 push        edx
  00402F65: E8 16 00 00 00     call        00402F80
  00402F6A: 83 C4 10           add         esp,10h
  00402F6D: 8B 45 0C           mov         eax,dword ptr [ebp+0Ch]
  00402F70: 5D                 pop         ebp
  00402F71: C3                 ret
  00402F72: CC                 int         3
  00402F73: CC                 int         3
  00402F74: CC                 int         3
  00402F75: CC                 int         3
  00402F76: CC                 int         3
  00402F77: CC                 int         3
  00402F78: CC                 int         3
  00402F79: CC                 int         3
  00402F7A: CC                 int         3
  00402F7B: CC                 int         3
  00402F7C: CC                 int         3
  00402F7D: CC                 int         3
  00402F7E: CC                 int         3
  00402F7F: CC                 int         3
  00402F80: 55                 push        ebp
  00402F81: 8B EC              mov         ebp,esp
  00402F83: 83 EC 10           sub         esp,10h
  00402F86: 8B 45 0C           mov         eax,dword ptr [ebp+0Ch]
  00402F89: 89 45 FC           mov         dword ptr [ebp-4],eax
  00402F8C: 83 7D 14 00        cmp         dword ptr [ebp+14h],0
  00402F90: 74 17              je          00402FA9
  00402F92: 8B 4D FC           mov         ecx,dword ptr [ebp-4]
  00402F95: C6 01 2D           mov         byte ptr [ecx],2Dh
  00402F98: 8B 55 FC           mov         edx,dword ptr [ebp-4]
  00402F9B: 83 C2 01           add         edx,1
  00402F9E: 89 55 FC           mov         dword ptr [ebp-4],edx
  00402FA1: 8B 45 08           mov         eax,dword ptr [ebp+8]
  00402FA4: F7 D8              neg         eax
  00402FA6: 89 45 08           mov         dword ptr [ebp+8],eax
  00402FA9: 8B 4D FC           mov         ecx,dword ptr [ebp-4]
  00402FAC: 89 4D F8           mov         dword ptr [ebp-8],ecx
  00402FAF: 8B 45 08           mov         eax,dword ptr [ebp+8]
  00402FB2: 33 D2              xor         edx,edx
  00402FB4: F7 75 10           div         eax,dword ptr [ebp+10h]
  00402FB7: 89 55 F4           mov         dword ptr [ebp-0Ch],edx
  00402FBA: 8B 45 08           mov         eax,dword ptr [ebp+8]
  00402FBD: 33 D2              xor         edx,edx
  00402FBF: F7 75 10           div         eax,dword ptr [ebp+10h]
  00402FC2: 89 45 08           mov         dword ptr [ebp+8],eax
  00402FC5: 83 7D F4 09        cmp         dword ptr [ebp-0Ch],9
  00402FC9: 76 16              jbe         00402FE1
  00402FCB: 8B 55 F4           mov         edx,dword ptr [ebp-0Ch]
  00402FCE: 83 C2 57           add         edx,57h
  00402FD1: 8B 45 FC           mov         eax,dword ptr [ebp-4]
  00402FD4: 88 10              mov         byte ptr [eax],dl
  00402FD6: 8B 4D FC           mov         ecx,dword ptr [ebp-4]
  00402FD9: 83 C1 01           add         ecx,1
  00402FDC: 89 4D FC           mov         dword ptr [ebp-4],ecx
  00402FDF: EB 14              jmp         00402FF5
  00402FE1: 8B 55 F4           mov         edx,dword ptr [ebp-0Ch]
  00402FE4: 83 C2 30           add         edx,30h
  00402FE7: 8B 45 FC           mov         eax,dword ptr [ebp-4]
  00402FEA: 88 10              mov         byte ptr [eax],dl
  00402FEC: 8B 4D FC           mov         ecx,dword ptr [ebp-4]
  00402FEF: 83 C1 01           add         ecx,1
  00402FF2: 89 4D FC           mov         dword ptr [ebp-4],ecx
  00402FF5: 83 7D 08 00        cmp         dword ptr [ebp+8],0
  00402FF9: 77 B4              ja          00402FAF
  00402FFB: 8B 55 FC           mov         edx,dword ptr [ebp-4]
  00402FFE: C6 02 00           mov         byte ptr [edx],0
  00403001: 8B 45 FC           mov         eax,dword ptr [ebp-4]
  00403004: 83 E8 01           sub         eax,1
  00403007: 89 45 FC           mov         dword ptr [ebp-4],eax
  0040300A: 8B 4D FC           mov         ecx,dword ptr [ebp-4]
  0040300D: 8A 11              mov         dl,byte ptr [ecx]
  0040300F: 88 55 F0           mov         byte ptr [ebp-10h],dl
  00403012: 8B 45 FC           mov         eax,dword ptr [ebp-4]
  00403015: 8B 4D F8           mov         ecx,dword ptr [ebp-8]
  00403018: 8A 11              mov         dl,byte ptr [ecx]
  0040301A: 88 10              mov         byte ptr [eax],dl
  0040301C: 8B 45 F8           mov         eax,dword ptr [ebp-8]
  0040301F: 8A 4D F0           mov         cl,byte ptr [ebp-10h]
  00403022: 88 08              mov         byte ptr [eax],cl
  00403024: 8B 55 FC           mov         edx,dword ptr [ebp-4]
  00403027: 83 EA 01           sub         edx,1
  0040302A: 89 55 FC           mov         dword ptr [ebp-4],edx
  0040302D: 8B 45 F8           mov         eax,dword ptr [ebp-8]
  00403030: 83 C0 01           add         eax,1
  00403033: 89 45 F8           mov         dword ptr [ebp-8],eax
  00403036: 8B 4D F8           mov         ecx,dword ptr [ebp-8]
  00403039: 3B 4D FC           cmp         ecx,dword ptr [ebp-4]
  0040303C: 72 CC              jb          0040300A
  0040303E: 8B E5              mov         esp,ebp
  00403040: 5D                 pop         ebp
  00403041: C3                 ret
  00403042: CC                 int         3
  00403043: CC                 int         3
  00403044: CC                 int         3
  00403045: CC                 int         3
  00403046: CC                 int         3
  00403047: CC                 int         3
  00403048: CC                 int         3
  00403049: CC                 int         3
  0040304A: CC                 int         3
  0040304B: CC                 int         3
  0040304C: CC                 int         3
  0040304D: CC                 int         3
  0040304E: CC                 int         3
  0040304F: CC                 int         3
  00403050: 8B 4C 24 04        mov         ecx,dword ptr [esp+4]
  00403054: F7 C1 03 00 00 00  test        ecx,3
  0040305A: 74 14              je          00403070
  0040305C: 8A 01              mov         al,byte ptr [ecx]
  0040305E: 41                 inc         ecx
  0040305F: 84 C0              test        al,al
  00403061: 74 40              je          004030A3
  00403063: F7 C1 03 00 00 00  test        ecx,3
  00403069: 75 F1              jne         0040305C
  0040306B: 05 00 00 00 00     add         eax,0
  00403070: 8B 01              mov         eax,dword ptr [ecx]
  00403072: BA FF FE FE 7E     mov         edx,7EFEFEFFh
  00403077: 03 D0              add         edx,eax
  00403079: 83 F0 FF           xor         eax,0FFh
  0040307C: 33 C2              xor         eax,edx
  0040307E: 83 C1 04           add         ecx,4
  00403081: A9 00 01 01 81     test        eax,81010100h
  00403086: 74 E8              je          00403070
  00403088: 8B 41 FC           mov         eax,dword ptr [ecx-4]
  0040308B: 84 C0              test        al,al
  0040308D: 74 32              je          004030C1
  0040308F: 84 E4              test        ah,ah
  00403091: 74 24              je          004030B7
  00403093: A9 00 00 FF 00     test        eax,0FF0000h
  00403098: 74 13              je          004030AD
  0040309A: A9 00 00 00 FF     test        eax,0FF000000h
  0040309F: 74 02              je          004030A3
  004030A1: EB CD              jmp         00403070
  004030A3: 8D 41 FF           lea         eax,[ecx-1]
  004030A6: 8B 4C 24 04        mov         ecx,dword ptr [esp+4]
  004030AA: 2B C1              sub         eax,ecx
  004030AC: C3                 ret
  004030AD: 8D 41 FE           lea         eax,[ecx-2]
  004030B0: 8B 4C 24 04        mov         ecx,dword ptr [esp+4]
  004030B4: 2B C1              sub         eax,ecx
  004030B6: C3                 ret
  004030B7: 8D 41 FD           lea         eax,[ecx-3]
  004030BA: 8B 4C 24 04        mov         ecx,dword ptr [esp+4]
  004030BE: 2B C1              sub         eax,ecx
  004030C0: C3                 ret
  004030C1: 8D 41 FC           lea         eax,[ecx-4]
  004030C4: 8B 4C 24 04        mov         ecx,dword ptr [esp+4]
  004030C8: 2B C1              sub         eax,ecx
  004030CA: C3                 ret
  004030CB: CC                 int         3
  004030CC: CC                 int         3
  004030CD: CC                 int         3
  004030CE: CC                 int         3
  004030CF: CC                 int         3
  004030D0: 55                 push        ebp
  004030D1: 8B EC              mov         ebp,esp
  004030D3: 83 EC 30           sub         esp,30h
  004030D6: 53                 push        ebx
  004030D7: 56                 push        esi
  004030D8: 57                 push        edi
  004030D9: 8D 45 E0           lea         eax,[ebp-20h]
  004030DC: 89 45 DC           mov         dword ptr [ebp-24h],eax
  004030DF: 8D 4D 14           lea         ecx,[ebp+14h]
  004030E2: 89 4D D4           mov         dword ptr [ebp-2Ch],ecx
  004030E5: 83 7D 08 00        cmp         dword ptr [ebp+8],0
  004030E9: 75 1E              jne         00403109
  004030EB: 68 48 B7 40 00     push        40B748h
  004030F0: 6A 00              push        0
  004030F2: 6A 5D              push        5Dh
  004030F4: 68 3C B7 40 00     push        40B73Ch
  004030F9: 6A 02              push        2
  004030FB: E8 60 E1 FF FF     call        00401260
  00403100: 83 C4 14           add         esp,14h
  00403103: 83 F8 01           cmp         eax,1
  00403106: 75 01              jne         00403109
  00403108: CC                 int         3
  00403109: 33 D2              xor         edx,edx
  0040310B: 85 D2              test        edx,edx
  0040310D: 75 D6              jne         004030E5
  0040310F: 83 7D 10 00        cmp         dword ptr [ebp+10h],0
  00403113: 75 1E              jne         00403133
  00403115: 68 2C B7 40 00     push        40B72Ch
  0040311A: 6A 00              push        0
  0040311C: 6A 5E              push        5Eh
  0040311E: 68 3C B7 40 00     push        40B73Ch
  00403123: 6A 02              push        2
  00403125: E8 36 E1 FF FF     call        00401260
  0040312A: 83 C4 14           add         esp,14h
  0040312D: 83 F8 01           cmp         eax,1
  00403130: 75 01              jne         00403133
  00403132: CC                 int         3
  00403133: 33 C0              xor         eax,eax
  00403135: 85 C0              test        eax,eax
  00403137: 75 D6              jne         0040310F
  00403139: 8B 4D DC           mov         ecx,dword ptr [ebp-24h]
  0040313C: C7 41 0C 42 00 00  mov         dword ptr [ecx+0Ch],42h
            00
  00403143: 8B 55 DC           mov         edx,dword ptr [ebp-24h]
  00403146: 8B 45 08           mov         eax,dword ptr [ebp+8]
  00403149: 89 42 08           mov         dword ptr [edx+8],eax
  0040314C: 8B 4D DC           mov         ecx,dword ptr [ebp-24h]
  0040314F: 8B 55 08           mov         edx,dword ptr [ebp+8]
  00403152: 89 11              mov         dword ptr [ecx],edx
  00403154: 8B 45 DC           mov         eax,dword ptr [ebp-24h]
  00403157: 8B 4D 0C           mov         ecx,dword ptr [ebp+0Ch]
  0040315A: 89 48 04           mov         dword ptr [eax+4],ecx
  0040315D: 8B 55 D4           mov         edx,dword ptr [ebp-2Ch]
  00403160: 52                 push        edx
  00403161: 8B 45 10           mov         eax,dword ptr [ebp+10h]
  00403164: 50                 push        eax
  00403165: 8B 4D DC           mov         ecx,dword ptr [ebp-24h]
  00403168: 51                 push        ecx
  00403169: E8 B2 4F 00 00     call        00408120
  0040316E: 83 C4 0C           add         esp,0Ch
  00403171: 89 45 D8           mov         dword ptr [ebp-28h],eax
  00403174: 8B 55 DC           mov         edx,dword ptr [ebp-24h]
  00403177: 8B 42 04           mov         eax,dword ptr [edx+4]
  0040317A: 83 E8 01           sub         eax,1
  0040317D: 8B 4D DC           mov         ecx,dword ptr [ebp-24h]
  00403180: 89 41 04           mov         dword ptr [ecx+4],eax
  00403183: 8B 55 DC           mov         edx,dword ptr [ebp-24h]
  00403186: 83 7A 04 00        cmp         dword ptr [edx+4],0
  0040318A: 7C 22              jl          004031AE
  0040318C: 8B 45 DC           mov         eax,dword ptr [ebp-24h]
  0040318F: 8B 08              mov         ecx,dword ptr [eax]
  00403191: C6 01 00           mov         byte ptr [ecx],0
  00403194: 33 D2              xor         edx,edx
  00403196: 81 E2 FF 00 00 00  and         edx,0FFh
  0040319C: 89 55 D0           mov         dword ptr [ebp-30h],edx
  0040319F: 8B 45 DC           mov         eax,dword ptr [ebp-24h]
  004031A2: 8B 08              mov         ecx,dword ptr [eax]
  004031A4: 83 C1 01           add         ecx,1
  004031A7: 8B 55 DC           mov         edx,dword ptr [ebp-24h]
  004031AA: 89 0A              mov         dword ptr [edx],ecx
  004031AC: EB 11              jmp         004031BF
  004031AE: 8B 45 DC           mov         eax,dword ptr [ebp-24h]
  004031B1: 50                 push        eax
  004031B2: 6A 00              push        0
  004031B4: E8 E7 4C 00 00     call        00407EA0
  004031B9: 83 C4 08           add         esp,8
  004031BC: 89 45 D0           mov         dword ptr [ebp-30h],eax
  004031BF: 8B 45 D8           mov         eax,dword ptr [ebp-28h]
  004031C2: 5F                 pop         edi
  004031C3: 5E                 pop         esi
  004031C4: 5B                 pop         ebx
  004031C5: 8B E5              mov         esp,ebp
  004031C7: 5D                 pop         ebp
  004031C8: C3                 ret
  004031C9: CC                 int         3
  004031CA: CC                 int         3
  004031CB: CC                 int         3
  004031CC: CC                 int         3
  004031CD: CC                 int         3
  004031CE: CC                 int         3
  004031CF: CC                 int         3
  004031D0: 57                 push        edi
  004031D1: 8B 7C 24 08        mov         edi,dword ptr [esp+8]
  004031D5: EB 6A              jmp         00403241
  004031D7: 8D A4 24 00 00 00  lea         esp,[esp+00000000h]
            00
  004031DE: 8B FF              mov         edi,edi
  004031E0: 8B 4C 24 04        mov         ecx,dword ptr [esp+4]
  004031E4: 57                 push        edi
  004031E5: F7 C1 03 00 00 00  test        ecx,3
  004031EB: 74 0F              je          004031FC
  004031ED: 8A 01              mov         al,byte ptr [ecx]
  004031EF: 41                 inc         ecx
  004031F0: 84 C0              test        al,al
  004031F2: 74 3B              je          0040322F
  004031F4: F7 C1 03 00 00 00  test        ecx,3
  004031FA: 75 F1              jne         004031ED
  004031FC: 8B 01              mov         eax,dword ptr [ecx]
  004031FE: BA FF FE FE 7E     mov         edx,7EFEFEFFh
  00403203: 03 D0              add         edx,eax
  00403205: 83 F0 FF           xor         eax,0FFh
  00403208: 33 C2              xor         eax,edx
  0040320A: 83 C1 04           add         ecx,4
  0040320D: A9 00 01 01 81     test        eax,81010100h
  00403212: 74 E8              je          004031FC
  00403214: 8B 41 FC           mov         eax,dword ptr [ecx-4]
  00403217: 84 C0              test        al,al
  00403219: 74 23              je          0040323E
  0040321B: 84 E4              test        ah,ah
  0040321D: 74 1A              je          00403239
  0040321F: A9 00 00 FF 00     test        eax,0FF0000h
  00403224: 74 0E              je          00403234
  00403226: A9 00 00 00 FF     test        eax,0FF000000h
  0040322B: 74 02              je          0040322F
  0040322D: EB CD              jmp         004031FC
  0040322F: 8D 79 FF           lea         edi,[ecx-1]
  00403232: EB 0D              jmp         00403241
  00403234: 8D 79 FE           lea         edi,[ecx-2]
  00403237: EB 08              jmp         00403241
  00403239: 8D 79 FD           lea         edi,[ecx-3]
  0040323C: EB 03              jmp         00403241
  0040323E: 8D 79 FC           lea         edi,[ecx-4]
  00403241: 8B 4C 24 0C        mov         ecx,dword ptr [esp+0Ch]
  00403245: F7 C1 03 00 00 00  test        ecx,3
  0040324B: 74 19              je          00403266
  0040324D: 8A 11              mov         dl,byte ptr [ecx]
  0040324F: 41                 inc         ecx
  00403250: 84 D2              test        dl,dl
  00403252: 74 64              je          004032B8
  00403254: 88 17              mov         byte ptr [edi],dl
  00403256: 47                 inc         edi
  00403257: F7 C1 03 00 00 00  test        ecx,3
  0040325D: 75 EE              jne         0040324D
  0040325F: EB 05              jmp         00403266
  00403261: 89 17              mov         dword ptr [edi],edx
  00403263: 83 C7 04           add         edi,4
  00403266: BA FF FE FE 7E     mov         edx,7EFEFEFFh
  0040326B: 8B 01              mov         eax,dword ptr [ecx]
  0040326D: 03 D0              add         edx,eax
  0040326F: 83 F0 FF           xor         eax,0FFh
  00403272: 33 C2              xor         eax,edx
  00403274: 8B 11              mov         edx,dword ptr [ecx]
  00403276: 83 C1 04           add         ecx,4
  00403279: A9 00 01 01 81     test        eax,81010100h
  0040327E: 74 E1              je          00403261
  00403280: 84 D2              test        dl,dl
  00403282: 74 34              je          004032B8
  00403284: 84 F6              test        dh,dh
  00403286: 74 27              je          004032AF
  00403288: F7 C2 00 00 FF 00  test        edx,0FF0000h
  0040328E: 74 12              je          004032A2
  00403290: F7 C2 00 00 00 FF  test        edx,0FF000000h
  00403296: 74 02              je          0040329A
  00403298: EB C7              jmp         00403261
  0040329A: 89 17              mov         dword ptr [edi],edx
  0040329C: 8B 44 24 08        mov         eax,dword ptr [esp+8]
  004032A0: 5F                 pop         edi
  004032A1: C3                 ret
  004032A2: 66 89 17           mov         word ptr [edi],dx
  004032A5: 8B 44 24 08        mov         eax,dword ptr [esp+8]
  004032A9: C6 47 02 00        mov         byte ptr [edi+2],0
  004032AD: 5F                 pop         edi
  004032AE: C3                 ret
  004032AF: 66 89 17           mov         word ptr [edi],dx
  004032B2: 8B 44 24 08        mov         eax,dword ptr [esp+8]
  004032B6: 5F                 pop         edi
  004032B7: C3                 ret
  004032B8: 88 17              mov         byte ptr [edi],dl
  004032BA: 8B 44 24 08        mov         eax,dword ptr [esp+8]
  004032BE: 5F                 pop         edi
  004032BF: C3                 ret
  004032C0: 55                 push        ebp
  004032C1: 8B EC              mov         ebp,esp
  004032C3: 83 EC 2C           sub         esp,2Ch
  004032C6: 53                 push        ebx
  004032C7: 56                 push        esi
  004032C8: 57                 push        edi
  004032C9: 8D 45 E0           lea         eax,[ebp-20h]
  004032CC: 89 45 DC           mov         dword ptr [ebp-24h],eax
  004032CF: 83 7D 08 00        cmp         dword ptr [ebp+8],0
  004032D3: 75 1E              jne         004032F3
  004032D5: 68 48 B7 40 00     push        40B748h
  004032DA: 6A 00              push        0
  004032DC: 6A 5A              push        5Ah
  004032DE: 68 58 B7 40 00     push        40B758h
  004032E3: 6A 02              push        2
  004032E5: E8 76 DF FF FF     call        00401260
  004032EA: 83 C4 14           add         esp,14h
  004032ED: 83 F8 01           cmp         eax,1
  004032F0: 75 01              jne         004032F3
  004032F2: CC                 int         3
  004032F3: 33 C9              xor         ecx,ecx
  004032F5: 85 C9              test        ecx,ecx
  004032F7: 75 D6              jne         004032CF
  004032F9: 83 7D 10 00        cmp         dword ptr [ebp+10h],0
  004032FD: 75 1E              jne         0040331D
  004032FF: 68 2C B7 40 00     push        40B72Ch
  00403304: 6A 00              push        0
  00403306: 6A 5B              push        5Bh
  00403308: 68 58 B7 40 00     push        40B758h
  0040330D: 6A 02              push        2
  0040330F: E8 4C DF FF FF     call        00401260
  00403314: 83 C4 14           add         esp,14h
  00403317: 83 F8 01           cmp         eax,1
  0040331A: 75 01              jne         0040331D
  0040331C: CC                 int         3
  0040331D: 33 D2              xor         edx,edx
  0040331F: 85 D2              test        edx,edx
  00403321: 75 D6              jne         004032F9
  00403323: 8B 45 DC           mov         eax,dword ptr [ebp-24h]
  00403326: C7 40 0C 42 00 00  mov         dword ptr [eax+0Ch],42h
            00
  0040332D: 8B 4D DC           mov         ecx,dword ptr [ebp-24h]
  00403330: 8B 55 08           mov         edx,dword ptr [ebp+8]
  00403333: 89 51 08           mov         dword ptr [ecx+8],edx
  00403336: 8B 45 DC           mov         eax,dword ptr [ebp-24h]
  00403339: 8B 4D 08           mov         ecx,dword ptr [ebp+8]
  0040333C: 89 08              mov         dword ptr [eax],ecx
  0040333E: 8B 55 DC           mov         edx,dword ptr [ebp-24h]
  00403341: 8B 45 0C           mov         eax,dword ptr [ebp+0Ch]
  00403344: 89 42 04           mov         dword ptr [edx+4],eax
  00403347: 8B 4D 14           mov         ecx,dword ptr [ebp+14h]
  0040334A: 51                 push        ecx
  0040334B: 8B 55 10           mov         edx,dword ptr [ebp+10h]
  0040334E: 52                 push        edx
  0040334F: 8B 45 DC           mov         eax,dword ptr [ebp-24h]
  00403352: 50                 push        eax
  00403353: E8 C8 4D 00 00     call        00408120
  00403358: 83 C4 0C           add         esp,0Ch
  0040335B: 89 45 D8           mov         dword ptr [ebp-28h],eax
  0040335E: 8B 4D DC           mov         ecx,dword ptr [ebp-24h]
  00403361: 8B 51 04           mov         edx,dword ptr [ecx+4]
  00403364: 83 EA 01           sub         edx,1
  00403367: 8B 45 DC           mov         eax,dword ptr [ebp-24h]
  0040336A: 89 50 04           mov         dword ptr [eax+4],edx
  0040336D: 8B 4D DC           mov         ecx,dword ptr [ebp-24h]
  00403370: 83 79 04 00        cmp         dword ptr [ecx+4],0
  00403374: 7C 22              jl          00403398
  00403376: 8B 55 DC           mov         edx,dword ptr [ebp-24h]
  00403379: 8B 02              mov         eax,dword ptr [edx]
  0040337B: C6 00 00           mov         byte ptr [eax],0
  0040337E: 33 C9              xor         ecx,ecx
  00403380: 81 E1 FF 00 00 00  and         ecx,0FFh
  00403386: 89 4D D4           mov         dword ptr [ebp-2Ch],ecx
  00403389: 8B 55 DC           mov         edx,dword ptr [ebp-24h]
  0040338C: 8B 02              mov         eax,dword ptr [edx]
  0040338E: 83 C0 01           add         eax,1
  00403391: 8B 4D DC           mov         ecx,dword ptr [ebp-24h]
  00403394: 89 01              mov         dword ptr [ecx],eax
  00403396: EB 11              jmp         004033A9
  00403398: 8B 55 DC           mov         edx,dword ptr [ebp-24h]
  0040339B: 52                 push        edx
  0040339C: 6A 00              push        0
  0040339E: E8 FD 4A 00 00     call        00407EA0
  004033A3: 83 C4 08           add         esp,8
  004033A6: 89 45 D4           mov         dword ptr [ebp-2Ch],eax
  004033A9: 8B 45 D8           mov         eax,dword ptr [ebp-28h]
  004033AC: 5F                 pop         edi
  004033AD: 5E                 pop         esi
  004033AE: 5B                 pop         ebx
  004033AF: 8B E5              mov         esp,ebp
  004033B1: 5D                 pop         ebp
  004033B2: C3                 ret
  004033B3: CC                 int         3
  004033B4: CC                 int         3
  004033B5: CC                 int         3
  004033B6: CC                 int         3
  004033B7: CC                 int         3
  004033B8: CC                 int         3
  004033B9: CC                 int         3
  004033BA: CC                 int         3
  004033BB: CC                 int         3
  004033BC: CC                 int         3
  004033BD: CC                 int         3
  004033BE: CC                 int         3
  004033BF: CC                 int         3
  004033C0: 51                 push        ecx
  004033C1: 3D 00 10 00 00     cmp         eax,1000h
  004033C6: 8D 4C 24 08        lea         ecx,[esp+8]
  004033CA: 72 14              jb          004033E0
  004033CC: 81 E9 00 10 00 00  sub         ecx,1000h
  004033D2: 2D 00 10 00 00     sub         eax,1000h
  004033D7: 85 01              test        dword ptr [ecx],eax
  004033D9: 3D 00 10 00 00     cmp         eax,1000h
  004033DE: 73 EC              jae         004033CC
  004033E0: 2B C8              sub         ecx,eax
  004033E2: 8B C4              mov         eax,esp
  004033E4: 85 01              test        dword ptr [ecx],eax
  004033E6: 8B E1              mov         esp,ecx
  004033E8: 8B 08              mov         ecx,dword ptr [eax]
  004033EA: 8B 40 04           mov         eax,dword ptr [eax+4]
  004033ED: 50                 push        eax
  004033EE: C3                 ret
  004033EF: CC                 int         3
  004033F0: 55                 push        ebp
  004033F1: 8B EC              mov         ebp,esp
  004033F3: 83 EC 18           sub         esp,18h
  004033F6: 8B 45 08           mov         eax,dword ptr [ebp+8]
  004033F9: 89 45 E8           mov         dword ptr [ebp-18h],eax
  004033FC: 8B 4D E8           mov         ecx,dword ptr [ebp-18h]
  004033FF: 83 E9 02           sub         ecx,2
  00403402: 89 4D E8           mov         dword ptr [ebp-18h],ecx
  00403405: 83 7D E8 14        cmp         dword ptr [ebp-18h],14h
  00403409: 77 72              ja          0040347D
  0040340B: 8B 45 E8           mov         eax,dword ptr [ebp-18h]
  0040340E: 33 D2              xor         edx,edx
  00403410: 8A 90 8C 35 40 00  mov         dl,byte ptr [eax+0040358Ch]
  00403416: FF 24 95 74 35 40  jmp         dword ptr [edx*4+00403574h]
            00
  0040341D: C7 45 F0 A0 FA 40  mov         dword ptr [ebp-10h],40FAA0h
            00
  00403424: 8B 4D F0           mov         ecx,dword ptr [ebp-10h]
  00403427: 8B 11              mov         edx,dword ptr [ecx]
  00403429: 89 55 EC           mov         dword ptr [ebp-14h],edx
  0040342C: EB 57              jmp         00403485
  0040342E: C7 45 F0 A4 FA 40  mov         dword ptr [ebp-10h],40FAA4h
            00
  00403435: 8B 45 F0           mov         eax,dword ptr [ebp-10h]
  00403438: 8B 08              mov         ecx,dword ptr [eax]
  0040343A: 89 4D EC           mov         dword ptr [ebp-14h],ecx
  0040343D: EB 46              jmp         00403485
  0040343F: C7 45 F0 A8 FA 40  mov         dword ptr [ebp-10h],40FAA8h
            00
  00403446: 8B 55 F0           mov         edx,dword ptr [ebp-10h]
  00403449: 8B 02              mov         eax,dword ptr [edx]
  0040344B: 89 45 EC           mov         dword ptr [ebp-14h],eax
  0040344E: EB 35              jmp         00403485
  00403450: C7 45 F0 AC FA 40  mov         dword ptr [ebp-10h],40FAACh
            00
  00403457: 8B 4D F0           mov         ecx,dword ptr [ebp-10h]
  0040345A: 8B 11              mov         edx,dword ptr [ecx]
  0040345C: 89 55 EC           mov         dword ptr [ebp-14h],edx
  0040345F: EB 24              jmp         00403485
  00403461: 8B 45 08           mov         eax,dword ptr [ebp+8]
  00403464: 50                 push        eax
  00403465: E8 46 01 00 00     call        004035B0
  0040346A: 83 C4 04           add         esp,4
  0040346D: 83 C0 08           add         eax,8
  00403470: 89 45 F0           mov         dword ptr [ebp-10h],eax
  00403473: 8B 4D F0           mov         ecx,dword ptr [ebp-10h]
  00403476: 8B 11              mov         edx,dword ptr [ecx]
  00403478: 89 55 EC           mov         dword ptr [ebp-14h],edx
  0040347B: EB 08              jmp         00403485
  0040347D: 83 C8 FF           or          eax,0FFh
  00403480: E9 EB 00 00 00     jmp         00403570
  00403485: 83 7D EC 01        cmp         dword ptr [ebp-14h],1
  00403489: 75 07              jne         00403492
  0040348B: 33 C0              xor         eax,eax
  0040348D: E9 DE 00 00 00     jmp         00403570
  00403492: 83 7D EC 00        cmp         dword ptr [ebp-14h],0
  00403496: 75 07              jne         0040349F
  00403498: 6A 03              push        3
  0040349A: E8 C1 E4 FF FF     call        00401960
  0040349F: 83 7D 08 08        cmp         dword ptr [ebp+8],8
  004034A3: 74 0C              je          004034B1
  004034A5: 83 7D 08 0B        cmp         dword ptr [ebp+8],0Bh
  004034A9: 74 06              je          004034B1
  004034AB: 83 7D 08 04        cmp         dword ptr [ebp+8],4
  004034AF: 75 2B              jne         004034DC
  004034B1: A1 90 F9 40 00     mov         eax,[0040F990]
  004034B6: 89 45 F4           mov         dword ptr [ebp-0Ch],eax
  004034B9: C7 05 90 F9 40 00  mov         dword ptr ds:[0040F990h],0
            00 00 00 00
  004034C3: 83 7D 08 08        cmp         dword ptr [ebp+8],8
  004034C7: 75 13              jne         004034DC
  004034C9: 8B 0D F4 D0 40 00  mov         ecx,dword ptr ds:[0040D0F4h]
  004034CF: 89 4D FC           mov         dword ptr [ebp-4],ecx
  004034D2: C7 05 F4 D0 40 00  mov         dword ptr ds:[0040D0F4h],8Ch
            8C 00 00 00
  004034DC: 83 7D 08 08        cmp         dword ptr [ebp+8],8
  004034E0: 75 39              jne         0040351B
  004034E2: 8B 15 E8 D0 40 00  mov         edx,dword ptr ds:[0040D0E8h]
  004034E8: 89 55 F8           mov         dword ptr [ebp-8],edx
  004034EB: EB 09              jmp         004034F6
  004034ED: 8B 45 F8           mov         eax,dword ptr [ebp-8]
  004034F0: 83 C0 01           add         eax,1
  004034F3: 89 45 F8           mov         dword ptr [ebp-8],eax
  004034F6: 8B 0D E8 D0 40 00  mov         ecx,dword ptr ds:[0040D0E8h]
  004034FC: 03 0D EC D0 40 00  add         ecx,dword ptr ds:[0040D0ECh]
  00403502: 39 4D F8           cmp         dword ptr [ebp-8],ecx
  00403505: 7D 12              jge         00403519
  00403507: 8B 55 F8           mov         edx,dword ptr [ebp-8]
  0040350A: 6B D2 0C           imul        edx,edx,0Ch
  0040350D: C7 82 78 D0 40 00  mov         dword ptr [edx+0040D078h],0
            00 00 00 00
  00403517: EB D4              jmp         004034ED
  00403519: EB 09              jmp         00403524
  0040351B: 8B 45 F0           mov         eax,dword ptr [ebp-10h]
  0040351E: C7 00 00 00 00 00  mov         dword ptr [eax],0
  00403524: 83 7D 08 08        cmp         dword ptr [ebp+8],8
  00403528: 75 11              jne         0040353B
  0040352A: 8B 0D F4 D0 40 00  mov         ecx,dword ptr ds:[0040D0F4h]
  00403530: 51                 push        ecx
  00403531: 6A 08              push        8
  00403533: FF 55 EC           call        dword ptr [ebp-14h]
  00403536: 83 C4 08           add         esp,8
  00403539: EB 0A              jmp         00403545
  0040353B: 8B 55 08           mov         edx,dword ptr [ebp+8]
  0040353E: 52                 push        edx
  0040353F: FF 55 EC           call        dword ptr [ebp-14h]
  00403542: 83 C4 04           add         esp,4
  00403545: 83 7D 08 08        cmp         dword ptr [ebp+8],8
  00403549: 74 0C              je          00403557
  0040354B: 83 7D 08 0B        cmp         dword ptr [ebp+8],0Bh
  0040354F: 74 06              je          00403557
  00403551: 83 7D 08 04        cmp         dword ptr [ebp+8],4
  00403555: 75 17              jne         0040356E
  00403557: 8B 45 F4           mov         eax,dword ptr [ebp-0Ch]
  0040355A: A3 90 F9 40 00     mov         [0040F990],eax
  0040355F: 83 7D 08 08        cmp         dword ptr [ebp+8],8
  00403563: 75 09              jne         0040356E
  00403565: 8B 4D FC           mov         ecx,dword ptr [ebp-4]
  00403568: 89 0D F4 D0 40 00  mov         dword ptr ds:[0040D0F4h],ecx
  0040356E: 33 C0              xor         eax,eax
  00403570: 8B E5              mov         esp,ebp
  00403572: 5D                 pop         ebp
  00403573: C3                 ret
  00403574: 1D 34 40 00 61     sbb         eax,61004034h
  00403579: 34 40              xor         al,40h
  0040357B: 00 50 34           add         byte ptr [eax+34h],dl
  0040357E: 40                 inc         eax
  0040357F: 00 2E              add         byte ptr [esi],ch
  00403581: 34 40              xor         al,40h
  00403583: 00 3F              add         byte ptr [edi],bh
  00403585: 34 40              xor         al,40h
  00403587: 00 7D 34           add         byte ptr [ebp+34h],bh
  0040358A: 40                 inc         eax
  0040358B: 00 00              add         byte ptr [eax],al
  0040358D: 05 01 05 05 05     add         eax,5050501h
  00403592: 01 05 05 01 05 05  add         dword ptr ds:[05050105h],eax
  00403598: 05 02 05 05 05     add         eax,5050502h
  0040359D: 05 05 03 04 CC     add         eax,0CC040305h
  004035A2: CC                 int         3
  004035A3: CC                 int         3
  004035A4: CC                 int         3
  004035A5: CC                 int         3
  004035A6: CC                 int         3
  004035A7: CC                 int         3
  004035A8: CC                 int         3
  004035A9: CC                 int         3
  004035AA: CC                 int         3
  004035AB: CC                 int         3
  004035AC: CC                 int         3
  004035AD: CC                 int         3
  004035AE: CC                 int         3
  004035AF: CC                 int         3
  004035B0: 55                 push        ebp
  004035B1: 8B EC              mov         ebp,esp
  004035B3: 51                 push        ecx
  004035B4: C7 45 FC 70 D0 40  mov         dword ptr [ebp-4],40D070h
            00
  004035BB: 8B 45 FC           mov         eax,dword ptr [ebp-4]
  004035BE: 8B 48 04           mov         ecx,dword ptr [eax+4]
  004035C1: 3B 4D 08           cmp         ecx,dword ptr [ebp+8]
  004035C4: 74 1D              je          004035E3
  004035C6: 8B 55 FC           mov         edx,dword ptr [ebp-4]
  004035C9: 83 C2 0C           add         edx,0Ch
  004035CC: 89 55 FC           mov         dword ptr [ebp-4],edx
  004035CF: A1 F0 D0 40 00     mov         eax,[0040D0F0]
  004035D4: 6B C0 0C           imul        eax,eax,0Ch
  004035D7: 05 70 D0 40 00     add         eax,40D070h
  004035DC: 39 45 FC           cmp         dword ptr [ebp-4],eax
  004035DF: 73 02              jae         004035E3
  004035E1: EB D8              jmp         004035BB
  004035E3: 8B 0D F0 D0 40 00  mov         ecx,dword ptr ds:[0040D0F0h]
  004035E9: 6B C9 0C           imul        ecx,ecx,0Ch
  004035EC: 81 C1 70 D0 40 00  add         ecx,40D070h
  004035F2: 39 4D FC           cmp         dword ptr [ebp-4],ecx
  004035F5: 73 10              jae         00403607
  004035F7: 8B 55 FC           mov         edx,dword ptr [ebp-4]
  004035FA: 8B 42 04           mov         eax,dword ptr [edx+4]
  004035FD: 3B 45 08           cmp         eax,dword ptr [ebp+8]
  00403600: 75 05              jne         00403607
  00403602: 8B 45 FC           mov         eax,dword ptr [ebp-4]
  00403605: EB 02              jmp         00403609
  00403607: 33 C0              xor         eax,eax
  00403609: 8B E5              mov         esp,ebp
  0040360B: 5D                 pop         ebp
  0040360C: C3                 ret
  0040360D: CC                 int         3
  0040360E: CC                 int         3
  0040360F: CC                 int         3
  00403610: 55                 push        ebp
  00403611: 8B EC              mov         ebp,esp
  00403613: 83 EC 08           sub         esp,8
  00403616: C7 45 FC 00 00 00  mov         dword ptr [ebp-4],0
            00
  0040361D: 83 3D B4 FA 40 00  cmp         dword ptr ds:[0040FAB4h],0
            00
  00403624: 75 5D              jne         00403683
  00403626: 68 98 B2 40 00     push        40B298h
  0040362B: FF 15 24 B0 40 00  call        dword ptr ds:[0040B024h]
  00403631: 89 45 F8           mov         dword ptr [ebp-8],eax
  00403634: 83 7D F8 00        cmp         dword ptr [ebp-8],0
  00403638: 74 1D              je          00403657
  0040363A: 68 88 B7 40 00     push        40B788h
  0040363F: 8B 45 F8           mov         eax,dword ptr [ebp-8]
  00403642: 50                 push        eax
  00403643: FF 15 20 B0 40 00  call        dword ptr ds:[0040B020h]
  00403649: A3 B4 FA 40 00     mov         [0040FAB4],eax
  0040364E: 83 3D B4 FA 40 00  cmp         dword ptr ds:[0040FAB4h],0
            00
  00403655: 75 04              jne         0040365B
  00403657: 33 C0              xor         eax,eax
  00403659: EB 6C              jmp         004036C7
  0040365B: 68 78 B7 40 00     push        40B778h
  00403660: 8B 4D F8           mov         ecx,dword ptr [ebp-8]
  00403663: 51                 push        ecx
  00403664: FF 15 20 B0 40 00  call        dword ptr ds:[0040B020h]
  0040366A: A3 B8 FA 40 00     mov         [0040FAB8],eax
  0040366F: 68 64 B7 40 00     push        40B764h
  00403674: 8B 55 F8           mov         edx,dword ptr [ebp-8]
  00403677: 52                 push        edx
  00403678: FF 15 20 B0 40 00  call        dword ptr ds:[0040B020h]
  0040367E: A3 BC FA 40 00     mov         [0040FABC],eax
  00403683: 83 3D B8 FA 40 00  cmp         dword ptr ds:[0040FAB8h],0
            00
  0040368A: 74 09              je          00403695
  0040368C: FF 15 B8 FA 40 00  call        dword ptr ds:[0040FAB8h]
  00403692: 89 45 FC           mov         dword ptr [ebp-4],eax
  00403695: 83 7D FC 00        cmp         dword ptr [ebp-4],0
  00403699: 74 16              je          004036B1
  0040369B: 83 3D BC FA 40 00  cmp         dword ptr ds:[0040FABCh],0
            00
  004036A2: 74 0D              je          004036B1
  004036A4: 8B 45 FC           mov         eax,dword ptr [ebp-4]
  004036A7: 50                 push        eax
  004036A8: FF 15 BC FA 40 00  call        dword ptr ds:[0040FABCh]
  004036AE: 89 45 FC           mov         dword ptr [ebp-4],eax
  004036B1: 8B 4D 10           mov         ecx,dword ptr [ebp+10h]
  004036B4: 51                 push        ecx
  004036B5: 8B 55 0C           mov         edx,dword ptr [ebp+0Ch]
  004036B8: 52                 push        edx
  004036B9: 8B 45 08           mov         eax,dword ptr [ebp+8]
  004036BC: 50                 push        eax
  004036BD: 8B 4D FC           mov         ecx,dword ptr [ebp-4]
  004036C0: 51                 push        ecx
  004036C1: FF 15 B4 FA 40 00  call        dword ptr ds:[0040FAB4h]
  004036C7: 8B E5              mov         esp,ebp
  004036C9: 5D                 pop         ebp
  004036CA: C3                 ret
  004036CB: CC                 int         3
  004036CC: CC                 int         3
  004036CD: CC                 int         3
  004036CE: CC                 int         3
  004036CF: CC                 int         3
  004036D0: 8B 4C 24 0C        mov         ecx,dword ptr [esp+0Ch]
  004036D4: 57                 push        edi
  004036D5: 85 C9              test        ecx,ecx
  004036D7: 74 7A              je          00403753
  004036D9: 56                 push        esi
  004036DA: 53                 push        ebx
  004036DB: 8B D9              mov         ebx,ecx
  004036DD: 8B 74 24 14        mov         esi,dword ptr [esp+14h]
  004036E1: F7 C6 03 00 00 00  test        esi,3
  004036E7: 8B 7C 24 10        mov         edi,dword ptr [esp+10h]
  004036EB: 75 07              jne         004036F4
  004036ED: C1 E9 02           shr         ecx,2
  004036F0: 75 6F              jne         00403761
  004036F2: EB 21              jmp         00403715
  004036F4: 8A 06              mov         al,byte ptr [esi]
  004036F6: 46                 inc         esi
  004036F7: 88 07              mov         byte ptr [edi],al
  004036F9: 47                 inc         edi
  004036FA: 49                 dec         ecx
  004036FB: 74 25              je          00403722
  004036FD: 84 C0              test        al,al
  004036FF: 74 29              je          0040372A
  00403701: F7 C6 03 00 00 00  test        esi,3
  00403707: 75 EB              jne         004036F4
  00403709: 8B D9              mov         ebx,ecx
  0040370B: C1 E9 02           shr         ecx,2
  0040370E: 75 51              jne         00403761
  00403710: 83 E3 03           and         ebx,3
  00403713: 74 0D              je          00403722
  00403715: 8A 06              mov         al,byte ptr [esi]
  00403717: 46                 inc         esi
  00403718: 88 07              mov         byte ptr [edi],al
  0040371A: 47                 inc         edi
  0040371B: 84 C0              test        al,al
  0040371D: 74 2F              je          0040374E
  0040371F: 4B                 dec         ebx
  00403720: 75 F3              jne         00403715
  00403722: 8B 44 24 10        mov         eax,dword ptr [esp+10h]
  00403726: 5B                 pop         ebx
  00403727: 5E                 pop         esi
  00403728: 5F                 pop         edi
  00403729: C3                 ret
  0040372A: F7 C7 03 00 00 00  test        edi,3
  00403730: 74 12              je          00403744
  00403732: 88 07              mov         byte ptr [edi],al
  00403734: 47                 inc         edi
  00403735: 49                 dec         ecx
  00403736: 0F 84 8A 00 00 00  je          004037C6
  0040373C: F7 C7 03 00 00 00  test        edi,3
  00403742: 75 EE              jne         00403732
  00403744: 8B D9              mov         ebx,ecx
  00403746: C1 E9 02           shr         ecx,2
  00403749: 75 6C              jne         004037B7
  0040374B: 88 07              mov         byte ptr [edi],al
  0040374D: 47                 inc         edi
  0040374E: 4B                 dec         ebx
  0040374F: 75 FA              jne         0040374B
  00403751: 5B                 pop         ebx
  00403752: 5E                 pop         esi
  00403753: 8B 44 24 08        mov         eax,dword ptr [esp+8]
  00403757: 5F                 pop         edi
  00403758: C3                 ret
  00403759: 89 17              mov         dword ptr [edi],edx
  0040375B: 83 C7 04           add         edi,4
  0040375E: 49                 dec         ecx
  0040375F: 74 AF              je          00403710
  00403761: BA FF FE FE 7E     mov         edx,7EFEFEFFh
  00403766: 8B 06              mov         eax,dword ptr [esi]
  00403768: 03 D0              add         edx,eax
  0040376A: 83 F0 FF           xor         eax,0FFh
  0040376D: 33 C2              xor         eax,edx
  0040376F: 8B 16              mov         edx,dword ptr [esi]
  00403771: 83 C6 04           add         esi,4
  00403774: A9 00 01 01 81     test        eax,81010100h
  00403779: 74 DE              je          00403759
  0040377B: 84 D2              test        dl,dl
  0040377D: 74 2C              je          004037AB
  0040377F: 84 F6              test        dh,dh
  00403781: 74 1E              je          004037A1
  00403783: F7 C2 00 00 FF 00  test        edx,0FF0000h
  00403789: 74 0C              je          00403797
  0040378B: F7 C2 00 00 00 FF  test        edx,0FF000000h
  00403791: 75 C6              jne         00403759
  00403793: 89 17              mov         dword ptr [edi],edx
  00403795: EB 18              jmp         004037AF
  00403797: 81 E2 FF FF 00 00  and         edx,0FFFFh
  0040379D: 89 17              mov         dword ptr [edi],edx
  0040379F: EB 0E              jmp         004037AF
  004037A1: 81 E2 FF 00 00 00  and         edx,0FFh
  004037A7: 89 17              mov         dword ptr [edi],edx
  004037A9: EB 04              jmp         004037AF
  004037AB: 33 D2              xor         edx,edx
  004037AD: 89 17              mov         dword ptr [edi],edx
  004037AF: 83 C7 04           add         edi,4
  004037B2: 33 C0              xor         eax,eax
  004037B4: 49                 dec         ecx
  004037B5: 74 0A              je          004037C1
  004037B7: 33 C0              xor         eax,eax
  004037B9: 89 07              mov         dword ptr [edi],eax
  004037BB: 83 C7 04           add         edi,4
  004037BE: 49                 dec         ecx
  004037BF: 75 F8              jne         004037B9
  004037C1: 83 E3 03           and         ebx,3
  004037C4: 75 85              jne         0040374B
  004037C6: 8B 44 24 10        mov         eax,dword ptr [esp+10h]
  004037CA: 5B                 pop         ebx
  004037CB: 5E                 pop         esi
  004037CC: 5F                 pop         edi
  004037CD: C3                 ret
  004037CE: CC                 int         3
  004037CF: CC                 int         3
  004037D0: 55                 push        ebp
  004037D1: 8B EC              mov         ebp,esp
  004037D3: 51                 push        ecx
  004037D4: 8B 45 14           mov         eax,dword ptr [ebp+14h]
  004037D7: 50                 push        eax
  004037D8: 8B 4D 10           mov         ecx,dword ptr [ebp+10h]
  004037DB: 51                 push        ecx
  004037DC: 8B 55 0C           mov         edx,dword ptr [ebp+0Ch]
  004037DF: 52                 push        edx
  004037E0: A1 DC FA 40 00     mov         eax,[0040FADC]
  004037E5: 50                 push        eax
  004037E6: 8B 4D 08           mov         ecx,dword ptr [ebp+8]
  004037E9: 51                 push        ecx
  004037EA: E8 11 00 00 00     call        00403800
  004037EF: 83 C4 14           add         esp,14h
  004037F2: 89 45 FC           mov         dword ptr [ebp-4],eax
  004037F5: 8B 45 FC           mov         eax,dword ptr [ebp-4]
  004037F8: 8B E5              mov         esp,ebp
  004037FA: 5D                 pop         ebp
  004037FB: C3                 ret
  004037FC: CC                 int         3
  004037FD: CC                 int         3
  004037FE: CC                 int         3
  004037FF: CC                 int         3
  00403800: 55                 push        ebp
  00403801: 8B EC              mov         ebp,esp
  00403803: 51                 push        ecx
  00403804: 8B 45 18           mov         eax,dword ptr [ebp+18h]
  00403807: 50                 push        eax
  00403808: 8B 4D 14           mov         ecx,dword ptr [ebp+14h]
  0040380B: 51                 push        ecx
  0040380C: 8B 55 10           mov         edx,dword ptr [ebp+10h]
  0040380F: 52                 push        edx
  00403810: 8B 45 08           mov         eax,dword ptr [ebp+8]
  00403813: 50                 push        eax
  00403814: E8 37 00 00 00     call        00403850
  00403819: 83 C4 10           add         esp,10h
  0040381C: 89 45 FC           mov         dword ptr [ebp-4],eax
  0040381F: 83 7D FC 00        cmp         dword ptr [ebp-4],0
  00403823: 75 06              jne         0040382B
  00403825: 83 7D 0C 00        cmp         dword ptr [ebp+0Ch],0
  00403829: 75 05              jne         00403830
  0040382B: 8B 45 FC           mov         eax,dword ptr [ebp-4]
  0040382E: EB 16              jmp         00403846
  00403830: 8B 4D 08           mov         ecx,dword ptr [ebp+8]
  00403833: 51                 push        ecx
  00403834: E8 17 58 00 00     call        00409050
  00403839: 83 C4 04           add         esp,4
  0040383C: 85 C0              test        eax,eax
  0040383E: 75 04              jne         00403844
  00403840: 33 C0              xor         eax,eax
  00403842: EB 02              jmp         00403846
  00403844: EB BE              jmp         00403804
  00403846: 8B E5              mov         esp,ebp
  00403848: 5D                 pop         ebp
  00403849: C3                 ret
  0040384A: CC                 int         3
  0040384B: CC                 int         3
  0040384C: CC                 int         3
  0040384D: CC                 int         3
  0040384E: CC                 int         3
  0040384F: CC                 int         3
  00403850: 55                 push        ebp
  00403851: 8B EC              mov         ebp,esp
  00403853: 83 EC 10           sub         esp,10h
  00403856: 53                 push        ebx
  00403857: 56                 push        esi
  00403858: 57                 push        edi
  00403859: C7 45 F4 00 00 00  mov         dword ptr [ebp-0Ch],0
            00
  00403860: A1 B0 D1 40 00     mov         eax,[0040D1B0]
  00403865: 83 E0 04           and         eax,4
  00403868: 85 C0              test        eax,eax
  0040386A: 74 30              je          0040389C
  0040386C: E8 DF 07 00 00     call        00404050
  00403871: 85 C0              test        eax,eax
  00403873: 75 21              jne         00403896
  00403875: 68 7C B8 40 00     push        40B87Ch
  0040387A: 6A 00              push        0
  0040387C: 68 4C 01 00 00     push        14Ch
  00403881: 68 70 B8 40 00     push        40B870h
  00403886: 6A 02              push        2
  00403888: E8 D3 D9 FF FF     call        00401260
  0040388D: 83 C4 14           add         esp,14h
  00403890: 83 F8 01           cmp         eax,1
  00403893: 75 01              jne         00403896
  00403895: CC                 int         3
  00403896: 33 C9              xor         ecx,ecx
  00403898: 85 C9              test        ecx,ecx
  0040389A: 75 D0              jne         0040386C
  0040389C: 8B 15 B4 D1 40 00  mov         edx,dword ptr ds:[0040D1B4h]
  004038A2: 89 55 F8           mov         dword ptr [ebp-8],edx
  004038A5: 8B 45 F8           mov         eax,dword ptr [ebp-8]
  004038A8: 3B 05 B8 D1 40 00  cmp         eax,dword ptr ds:[0040D1B8h]
  004038AE: 75 01              jne         004038B1
  004038B0: CC                 int         3
  004038B1: 8B 4D 14           mov         ecx,dword ptr [ebp+14h]
  004038B4: 51                 push        ecx
  004038B5: 8B 55 10           mov         edx,dword ptr [ebp+10h]
  004038B8: 52                 push        edx
  004038B9: 8B 45 F8           mov         eax,dword ptr [ebp-8]
  004038BC: 50                 push        eax
  004038BD: 8B 4D 0C           mov         ecx,dword ptr [ebp+0Ch]
  004038C0: 51                 push        ecx
  004038C1: 8B 55 08           mov         edx,dword ptr [ebp+8]
  004038C4: 52                 push        edx
  004038C5: 6A 00              push        0
  004038C7: 6A 01              push        1
  004038C9: FF 15 10 F3 40 00  call        dword ptr ds:[0040F310h]
  004038CF: 83 C4 1C           add         esp,1Ch
  004038D2: 85 C0              test        eax,eax
  004038D4: 75 5E              jne         00403934
  004038D6: 83 7D 10 00        cmp         dword ptr [ebp+10h],0
  004038DA: 74 2B              je          00403907
  004038DC: 8B 45 14           mov         eax,dword ptr [ebp+14h]
  004038DF: 50                 push        eax
  004038E0: 8B 4D 10           mov         ecx,dword ptr [ebp+10h]
  004038E3: 51                 push        ecx
  004038E4: 68 38 B8 40 00     push        40B838h
  004038E9: 6A 00              push        0
  004038EB: 6A 00              push        0
  004038ED: 6A 00              push        0
  004038EF: 6A 00              push        0
  004038F1: E8 6A D9 FF FF     call        00401260
  004038F6: 83 C4 1C           add         esp,1Ch
  004038F9: 83 F8 01           cmp         eax,1
  004038FC: 75 01              jne         004038FF
  004038FE: CC                 int         3
  004038FF: 33 D2              xor         edx,edx
  00403901: 85 D2              test        edx,edx
  00403903: 75 D7              jne         004038DC
  00403905: EB 26              jmp         0040392D
  00403907: 68 14 B8 40 00     push        40B814h
  0040390C: 68 10 B8 40 00     push        40B810h
  00403911: 6A 00              push        0
  00403913: 6A 00              push        0
  00403915: 6A 00              push        0
  00403917: 6A 00              push        0
  00403919: E8 42 D9 FF FF     call        00401260
  0040391E: 83 C4 18           add         esp,18h
  00403921: 83 F8 01           cmp         eax,1
  00403924: 75 01              jne         00403927
  00403926: CC                 int         3
  00403927: 33 C0              xor         eax,eax
  00403929: 85 C0              test        eax,eax
  0040392B: 75 DA              jne         00403907
  0040392D: 33 C0              xor         eax,eax
  0040392F: E9 28 02 00 00     jmp         00403B5C
  00403934: 8B 4D 0C           mov         ecx,dword ptr [ebp+0Ch]
  00403937: 81 E1 FF FF 00 00  and         ecx,0FFFFh
  0040393D: 83 F9 02           cmp         ecx,2
  00403940: 74 14              je          00403956
  00403942: 8B 15 B0 D1 40 00  mov         edx,dword ptr ds:[0040D1B0h]
  00403948: 83 E2 01           and         edx,1
  0040394B: 85 D2              test        edx,edx
  0040394D: 75 07              jne         00403956
  0040394F: C7 45 F4 01 00 00  mov         dword ptr [ebp-0Ch],1
            00
  00403956: 83 7D 08 E0        cmp         dword ptr [ebp+8],0E0h
  0040395A: 77 0B              ja          00403967
  0040395C: 8B 45 08           mov         eax,dword ptr [ebp+8]
  0040395F: 83 C0 24           add         eax,24h
  00403962: 83 F8 E0           cmp         eax,0E0h
  00403965: 76 2C              jbe         00403993
  00403967: 8B 4D 08           mov         ecx,dword ptr [ebp+8]
  0040396A: 51                 push        ecx
  0040396B: 68 EC B7 40 00     push        40B7ECh
  00403970: 6A 00              push        0
  00403972: 6A 00              push        0
  00403974: 6A 00              push        0
  00403976: 6A 01              push        1
  00403978: E8 E3 D8 FF FF     call        00401260
  0040397D: 83 C4 18           add         esp,18h
  00403980: 83 F8 01           cmp         eax,1
  00403983: 75 01              jne         00403986
  00403985: CC                 int         3
  00403986: 33 D2              xor         edx,edx
  00403988: 85 D2              test        edx,edx
  0040398A: 75 DB              jne         00403967
  0040398C: 33 C0              xor         eax,eax
  0040398E: E9 C9 01 00 00     jmp         00403B5C
  00403993: 8B 45 0C           mov         eax,dword ptr [ebp+0Ch]
  00403996: 25 FF FF 00 00     and         eax,0FFFFh
  0040399B: 83 F8 04           cmp         eax,4
  0040399E: 74 40              je          004039E0
  004039A0: 83 7D 0C 01        cmp         dword ptr [ebp+0Ch],1
  004039A4: 74 3A              je          004039E0
  004039A6: 8B 4D 0C           mov         ecx,dword ptr [ebp+0Ch]
  004039A9: 81 E1 FF FF 00 00  and         ecx,0FFFFh
  004039AF: 83 F9 02           cmp         ecx,2
  004039B2: 74 2C              je          004039E0
  004039B4: 83 7D 0C 03        cmp         dword ptr [ebp+0Ch],3
  004039B8: 74 26              je          004039E0
  004039BA: 68 B8 B7 40 00     push        40B7B8h
  004039BF: 68 10 B8 40 00     push        40B810h
  004039C4: 6A 00              push        0
  004039C6: 6A 00              push        0
  004039C8: 6A 00              push        0
  004039CA: 6A 01              push        1
  004039CC: E8 8F D8 FF FF     call        00401260
  004039D1: 83 C4 18           add         esp,18h
  004039D4: 83 F8 01           cmp         eax,1
  004039D7: 75 01              jne         004039DA
  004039D9: CC                 int         3
  004039DA: 33 D2              xor         edx,edx
  004039DC: 85 D2              test        edx,edx
  004039DE: 75 DA              jne         004039BA
  004039E0: 8B 45 08           mov         eax,dword ptr [ebp+8]
  004039E3: 83 C0 24           add         eax,24h
  004039E6: 89 45 F0           mov         dword ptr [ebp-10h],eax
  004039E9: 8B 4D F0           mov         ecx,dword ptr [ebp-10h]
  004039EC: 51                 push        ecx
  004039ED: E8 EE 56 00 00     call        004090E0
  004039F2: 83 C4 04           add         esp,4
  004039F5: 89 45 FC           mov         dword ptr [ebp-4],eax
  004039F8: 83 7D FC 00        cmp         dword ptr [ebp-4],0
  004039FC: 75 07              jne         00403A05
  004039FE: 33 C0              xor         eax,eax
  00403A00: E9 57 01 00 00     jmp         00403B5C
  00403A05: 8B 15 B4 D1 40 00  mov         edx,dword ptr ds:[0040D1B4h]
  00403A0B: 83 C2 01           add         edx,1
  00403A0E: 89 15 B4 D1 40 00  mov         dword ptr ds:[0040D1B4h],edx
  00403A14: 83 7D F4 00        cmp         dword ptr [ebp-0Ch],0
  00403A18: 74 49              je          00403A63
  00403A1A: 8B 45 FC           mov         eax,dword ptr [ebp-4]
  00403A1D: C7 00 00 00 00 00  mov         dword ptr [eax],0
  00403A23: 8B 4D FC           mov         ecx,dword ptr [ebp-4]
  00403A26: C7 41 04 00 00 00  mov         dword ptr [ecx+4],0
            00
  00403A2D: 8B 55 FC           mov         edx,dword ptr [ebp-4]
  00403A30: C7 42 08 00 00 00  mov         dword ptr [edx+8],0
            00
  00403A37: 8B 45 FC           mov         eax,dword ptr [ebp-4]
  00403A3A: C7 40 0C BC BA DC  mov         dword ptr [eax+0Ch],0FEDCBABCh
            FE
  00403A41: 8B 4D FC           mov         ecx,dword ptr [ebp-4]
  00403A44: 8B 55 08           mov         edx,dword ptr [ebp+8]
  00403A47: 89 51 10           mov         dword ptr [ecx+10h],edx
  00403A4A: 8B 45 FC           mov         eax,dword ptr [ebp-4]
  00403A4D: C7 40 14 03 00 00  mov         dword ptr [eax+14h],3
            00
  00403A54: 8B 4D FC           mov         ecx,dword ptr [ebp-4]
  00403A57: C7 41 18 00 00 00  mov         dword ptr [ecx+18h],0
            00
  00403A5E: E9 A0 00 00 00     jmp         00403B03
  00403A63: 8B 15 C4 FA 40 00  mov         edx,dword ptr ds:[0040FAC4h]
  00403A69: 03 55 08           add         edx,dword ptr [ebp+8]
  00403A6C: 89 15 C4 FA 40 00  mov         dword ptr ds:[0040FAC4h],edx
  00403A72: A1 CC FA 40 00     mov         eax,[0040FACC]
  00403A77: 03 45 08           add         eax,dword ptr [ebp+8]
  00403A7A: A3 CC FA 40 00     mov         [0040FACC],eax
  00403A7F: 8B 0D CC FA 40 00  mov         ecx,dword ptr ds:[0040FACCh]
  00403A85: 3B 0D D0 FA 40 00  cmp         ecx,dword ptr ds:[0040FAD0h]
  00403A8B: 76 0C              jbe         00403A99
  00403A8D: 8B 15 CC FA 40 00  mov         edx,dword ptr ds:[0040FACCh]
  00403A93: 89 15 D0 FA 40 00  mov         dword ptr ds:[0040FAD0h],edx
  00403A99: 83 3D C8 FA 40 00  cmp         dword ptr ds:[0040FAC8h],0
            00
  00403AA0: 74 0D              je          00403AAF
  00403AA2: A1 C8 FA 40 00     mov         eax,[0040FAC8]
  00403AA7: 8B 4D FC           mov         ecx,dword ptr [ebp-4]
  00403AAA: 89 48 04           mov         dword ptr [eax+4],ecx
  00403AAD: EB 09              jmp         00403AB8
  00403AAF: 8B 55 FC           mov         edx,dword ptr [ebp-4]
  00403AB2: 89 15 C0 FA 40 00  mov         dword ptr ds:[0040FAC0h],edx
  00403AB8: 8B 45 FC           mov         eax,dword ptr [ebp-4]
  00403ABB: 8B 0D C8 FA 40 00  mov         ecx,dword ptr ds:[0040FAC8h]
  00403AC1: 89 08              mov         dword ptr [eax],ecx
  00403AC3: 8B 55 FC           mov         edx,dword ptr [ebp-4]
  00403AC6: C7 42 04 00 00 00  mov         dword ptr [edx+4],0
            00
  00403ACD: 8B 45 FC           mov         eax,dword ptr [ebp-4]
  00403AD0: 8B 4D 10           mov         ecx,dword ptr [ebp+10h]
  00403AD3: 89 48 08           mov         dword ptr [eax+8],ecx
  00403AD6: 8B 55 FC           mov         edx,dword ptr [ebp-4]
  00403AD9: 8B 45 14           mov         eax,dword ptr [ebp+14h]
  00403ADC: 89 42 0C           mov         dword ptr [edx+0Ch],eax
  00403ADF: 8B 4D FC           mov         ecx,dword ptr [ebp-4]
  00403AE2: 8B 55 08           mov         edx,dword ptr [ebp+8]
  00403AE5: 89 51 10           mov         dword ptr [ecx+10h],edx
  00403AE8: 8B 45 FC           mov         eax,dword ptr [ebp-4]
  00403AEB: 8B 4D 0C           mov         ecx,dword ptr [ebp+0Ch]
  00403AEE: 89 48 14           mov         dword ptr [eax+14h],ecx
  00403AF1: 8B 55 FC           mov         edx,dword ptr [ebp-4]
  00403AF4: 8B 45 F8           mov         eax,dword ptr [ebp-8]
  00403AF7: 89 42 18           mov         dword ptr [edx+18h],eax
  00403AFA: 8B 4D FC           mov         ecx,dword ptr [ebp-4]
  00403AFD: 89 0D C8 FA 40 00  mov         dword ptr ds:[0040FAC8h],ecx
  00403B03: 6A 04              push        4
  00403B05: 33 D2              xor         edx,edx
  00403B07: 8A 15 BC D1 40 00  mov         dl,byte ptr ds:[0040D1BCh]
  00403B0D: 52                 push        edx
  00403B0E: 8B 45 FC           mov         eax,dword ptr [ebp-4]
  00403B11: 83 C0 1C           add         eax,1Ch
  00403B14: 50                 push        eax
  00403B15: E8 66 55 00 00     call        00409080
  00403B1A: 83 C4 0C           add         esp,0Ch
  00403B1D: 6A 04              push        4
  00403B1F: 33 C9              xor         ecx,ecx
  00403B21: 8A 0D BC D1 40 00  mov         cl,byte ptr ds:[0040D1BCh]
  00403B27: 51                 push        ecx
  00403B28: 8B 55 08           mov         edx,dword ptr [ebp+8]
  00403B2B: 8B 45 FC           mov         eax,dword ptr [ebp-4]
  00403B2E: 8D 4C 10 20        lea         ecx,[eax+edx+20h]
  00403B32: 51                 push        ecx
  00403B33: E8 48 55 00 00     call        00409080
  00403B38: 83 C4 0C           add         esp,0Ch
  00403B3B: 8B 55 08           mov         edx,dword ptr [ebp+8]
  00403B3E: 52                 push        edx
  00403B3F: 33 C0              xor         eax,eax
  00403B41: A0 BE D1 40 00     mov         al,[0040D1BE]
  00403B46: 50                 push        eax
  00403B47: 8B 4D FC           mov         ecx,dword ptr [ebp-4]
  00403B4A: 83 C1 20           add         ecx,20h
  00403B4D: 51                 push        ecx
  00403B4E: E8 2D 55 00 00     call        00409080
  00403B53: 83 C4 0C           add         esp,0Ch
  00403B56: 8B 45 FC           mov         eax,dword ptr [ebp-4]
  00403B59: 83 C0 20           add         eax,20h
  00403B5C: 5F                 pop         edi
  00403B5D: 5E                 pop         esi
  00403B5E: 5B                 pop         ebx
  00403B5F: 8B E5              mov         esp,ebp
  00403B61: 5D                 pop         ebp
  00403B62: C3                 ret
  00403B63: CC                 int         3
  00403B64: CC                 int         3
  00403B65: CC                 int         3
  00403B66: CC                 int         3
  00403B67: CC                 int         3
  00403B68: CC                 int         3
  00403B69: CC                 int         3
  00403B6A: CC                 int         3
  00403B6B: CC                 int         3
  00403B6C: CC                 int         3
  00403B6D: CC                 int         3
  00403B6E: CC                 int         3
  00403B6F: CC                 int         3
  00403B70: 55                 push        ebp
  00403B71: 8B EC              mov         ebp,esp
  00403B73: 83 EC 0C           sub         esp,0Ch
  00403B76: 8B 45 0C           mov         eax,dword ptr [ebp+0Ch]
  00403B79: 0F AF 45 08        imul        eax,dword ptr [ebp+8]
  00403B7D: 89 45 0C           mov         dword ptr [ebp+0Ch],eax
  00403B80: 8B 4D 18           mov         ecx,dword ptr [ebp+18h]
  00403B83: 51                 push        ecx
  00403B84: 8B 55 14           mov         edx,dword ptr [ebp+14h]
  00403B87: 52                 push        edx
  00403B88: 8B 45 10           mov         eax,dword ptr [ebp+10h]
  00403B8B: 50                 push        eax
  00403B8C: 8B 4D 0C           mov         ecx,dword ptr [ebp+0Ch]
  00403B8F: 51                 push        ecx
  00403B90: E8 3B FC FF FF     call        004037D0
  00403B95: 83 C4 10           add         esp,10h
  00403B98: 89 45 F8           mov         dword ptr [ebp-8],eax
  00403B9B: 83 7D F8 00        cmp         dword ptr [ebp-8],0
  00403B9F: 74 28              je          00403BC9
  00403BA1: 8B 55 F8           mov         edx,dword ptr [ebp-8]
  00403BA4: 89 55 F4           mov         dword ptr [ebp-0Ch],edx
  00403BA7: 8B 45 F4           mov         eax,dword ptr [ebp-0Ch]
  00403BAA: 03 45 0C           add         eax,dword ptr [ebp+0Ch]
  00403BAD: 89 45 FC           mov         dword ptr [ebp-4],eax
  00403BB0: 8B 4D F4           mov         ecx,dword ptr [ebp-0Ch]
  00403BB3: 3B 4D FC           cmp         ecx,dword ptr [ebp-4]
  00403BB6: 73 11              jae         00403BC9
  00403BB8: 8B 55 F4           mov         edx,dword ptr [ebp-0Ch]
  00403BBB: C6 02 00           mov         byte ptr [edx],0
  00403BBE: 8B 45 F4           mov         eax,dword ptr [ebp-0Ch]
  00403BC1: 83 C0 01           add         eax,1
  00403BC4: 89 45 F4           mov         dword ptr [ebp-0Ch],eax
  00403BC7: EB E7              jmp         00403BB0
  00403BC9: 8B 45 F8           mov         eax,dword ptr [ebp-8]
  00403BCC: 8B E5              mov         esp,ebp
  00403BCE: 5D                 pop         ebp
  00403BCF: C3                 ret
  00403BD0: 55                 push        ebp
  00403BD1: 8B EC              mov         ebp,esp
  00403BD3: 51                 push        ecx
  00403BD4: 53                 push        ebx
  00403BD5: 56                 push        esi
  00403BD6: 57                 push        edi
  00403BD7: A1 B0 D1 40 00     mov         eax,[0040D1B0]
  00403BDC: 83 E0 04           and         eax,4
  00403BDF: 85 C0              test        eax,eax
  00403BE1: 74 30              je          00403C13
  00403BE3: E8 68 04 00 00     call        00404050
  00403BE8: 85 C0              test        eax,eax
  00403BEA: 75 21              jne         00403C0D
  00403BEC: 68 7C B8 40 00     push        40B87Ch
  00403BF1: 6A 00              push        0
  00403BF3: 68 02 04 00 00     push        402h
  00403BF8: 68 70 B8 40 00     push        40B870h
  00403BFD: 6A 02              push        2
  00403BFF: E8 5C D6 FF FF     call        00401260
  00403C04: 83 C4 14           add         esp,14h
  00403C07: 83 F8 01           cmp         eax,1
  00403C0A: 75 01              jne         00403C0D
  00403C0C: CC                 int         3
  00403C0D: 33 C9              xor         ecx,ecx
  00403C0F: 85 C9              test        ecx,ecx
  00403C11: 75 D0              jne         00403BE3
  00403C13: 83 7D 08 00        cmp         dword ptr [ebp+8],0
  00403C17: 75 05              jne         00403C1E
  00403C19: E9 97 03 00 00     jmp         00403FB5
  00403C1E: 6A 00              push        0
  00403C20: 6A 00              push        0
  00403C22: 6A 00              push        0
  00403C24: 8B 55 0C           mov         edx,dword ptr [ebp+0Ch]
  00403C27: 52                 push        edx
  00403C28: 6A 00              push        0
  00403C2A: 8B 45 08           mov         eax,dword ptr [ebp+8]
  00403C2D: 50                 push        eax
  00403C2E: 6A 03              push        3
  00403C30: FF 15 10 F3 40 00  call        dword ptr ds:[0040F310h]
  00403C36: 83 C4 1C           add         esp,1Ch
  00403C39: 85 C0              test        eax,eax
  00403C3B: 75 2B              jne         00403C68
  00403C3D: 68 C4 B9 40 00     push        40B9C4h
  00403C42: 68 10 B8 40 00     push        40B810h
  00403C47: 6A 00              push        0
  00403C49: 6A 00              push        0
  00403C4B: 6A 00              push        0
  00403C4D: 6A 00              push        0
  00403C4F: E8 0C D6 FF FF     call        00401260
  00403C54: 83 C4 18           add         esp,18h
  00403C57: 83 F8 01           cmp         eax,1
  00403C5A: 75 01              jne         00403C5D
  00403C5C: CC                 int         3
  00403C5D: 33 C9              xor         ecx,ecx
  00403C5F: 85 C9              test        ecx,ecx
  00403C61: 75 DA              jne         00403C3D
  00403C63: E9 4D 03 00 00     jmp         00403FB5
  00403C68: 8B 55 08           mov         edx,dword ptr [ebp+8]
  00403C6B: 52                 push        edx
  00403C6C: E8 BF 07 00 00     call        00404430
  00403C71: 83 C4 04           add         esp,4
  00403C74: 85 C0              test        eax,eax
  00403C76: 75 21              jne         00403C99
  00403C78: 68 90 B8 40 00     push        40B890h
  00403C7D: 6A 00              push        0
  00403C7F: 68 14 04 00 00     push        414h
  00403C84: 68 70 B8 40 00     push        40B870h
  00403C89: 6A 02              push        2
  00403C8B: E8 D0 D5 FF FF     call        00401260
  00403C90: 83 C4 14           add         esp,14h
  00403C93: 83 F8 01           cmp         eax,1
  00403C96: 75 01              jne         00403C99
  00403C98: CC                 int         3
  00403C99: 33 C0              xor         eax,eax
  00403C9B: 85 C0              test        eax,eax
  00403C9D: 75 C9              jne         00403C68
  00403C9F: 8B 4D 08           mov         ecx,dword ptr [ebp+8]
  00403CA2: 83 E9 20           sub         ecx,20h
  00403CA5: 89 4D FC           mov         dword ptr [ebp-4],ecx
  00403CA8: 8B 55 FC           mov         edx,dword ptr [ebp-4]
  00403CAB: 8B 42 14           mov         eax,dword ptr [edx+14h]
  00403CAE: 25 FF FF 00 00     and         eax,0FFFFh
  00403CB3: 83 F8 04           cmp         eax,4
  00403CB6: 74 43              je          00403CFB
  00403CB8: 8B 4D FC           mov         ecx,dword ptr [ebp-4]
  00403CBB: 83 79 14 01        cmp         dword ptr [ecx+14h],1
  00403CBF: 74 3A              je          00403CFB
  00403CC1: 8B 55 FC           mov         edx,dword ptr [ebp-4]
  00403CC4: 8B 42 14           mov         eax,dword ptr [edx+14h]
  00403CC7: 25 FF FF 00 00     and         eax,0FFFFh
  00403CCC: 83 F8 02           cmp         eax,2
  00403CCF: 74 2A              je          00403CFB
  00403CD1: 8B 4D FC           mov         ecx,dword ptr [ebp-4]
  00403CD4: 83 79 14 03        cmp         dword ptr [ecx+14h],3
  00403CD8: 74 21              je          00403CFB
  00403CDA: 68 9C B9 40 00     push        40B99Ch
  00403CDF: 6A 00              push        0
  00403CE1: 68 1A 04 00 00     push        41Ah
  00403CE6: 68 70 B8 40 00     push        40B870h
  00403CEB: 6A 02              push        2
  00403CED: E8 6E D5 FF FF     call        00401260
  00403CF2: 83 C4 14           add         esp,14h
  00403CF5: 83 F8 01           cmp         eax,1
  00403CF8: 75 01              jne         00403CFB
  00403CFA: CC                 int         3
  00403CFB: 33 D2              xor         edx,edx
  00403CFD: 85 D2              test        edx,edx
  00403CFF: 75 A7              jne         00403CA8
  00403D01: A1 B0 D1 40 00     mov         eax,[0040D1B0]
  00403D06: 83 E0 04           and         eax,4
  00403D09: 85 C0              test        eax,eax
  00403D0B: 0F 85 C5 00 00 00  jne         00403DD6
  00403D11: 6A 04              push        4
  00403D13: 8A 0D BC D1 40 00  mov         cl,byte ptr ds:[0040D1BCh]
  00403D19: 51                 push        ecx
  00403D1A: 8B 55 FC           mov         edx,dword ptr [ebp-4]
  00403D1D: 83 C2 1C           add         edx,1Ch
  00403D20: 52                 push        edx
  00403D21: E8 9A 02 00 00     call        00403FC0
  00403D26: 83 C4 0C           add         esp,0Ch
  00403D29: 85 C0              test        eax,eax
  00403D2B: 75 43              jne         00403D70
  00403D2D: 8B 45 FC           mov         eax,dword ptr [ebp-4]
  00403D30: 83 C0 20           add         eax,20h
  00403D33: 50                 push        eax
  00403D34: 8B 4D FC           mov         ecx,dword ptr [ebp-4]
  00403D37: 8B 51 18           mov         edx,dword ptr [ecx+18h]
  00403D3A: 52                 push        edx
  00403D3B: 8B 45 FC           mov         eax,dword ptr [ebp-4]
  00403D3E: 8B 48 14           mov         ecx,dword ptr [eax+14h]
  00403D41: 81 E1 FF FF 00 00  and         ecx,0FFFFh
  00403D47: 8B 14 8D C0 D1 40  mov         edx,dword ptr [ecx*4+0040D1C0h]
            00
  00403D4E: 52                 push        edx
  00403D4F: 68 70 B9 40 00     push        40B970h
  00403D54: 6A 00              push        0
  00403D56: 6A 00              push        0
  00403D58: 6A 00              push        0
  00403D5A: 6A 01              push        1
  00403D5C: E8 FF D4 FF FF     call        00401260
  00403D61: 83 C4 20           add         esp,20h
  00403D64: 83 F8 01           cmp         eax,1
  00403D67: 75 01              jne         00403D6A
  00403D69: CC                 int         3
  00403D6A: 33 C0              xor         eax,eax
  00403D6C: 85 C0              test        eax,eax
  00403D6E: 75 BD              jne         00403D2D
  00403D70: 6A 04              push        4
  00403D72: 8A 0D BC D1 40 00  mov         cl,byte ptr ds:[0040D1BCh]
  00403D78: 51                 push        ecx
  00403D79: 8B 55 FC           mov         edx,dword ptr [ebp-4]
  00403D7C: 8B 42 10           mov         eax,dword ptr [edx+10h]
  00403D7F: 8B 4D FC           mov         ecx,dword ptr [ebp-4]
  00403D82: 8D 54 01 20        lea         edx,[ecx+eax+20h]
  00403D86: 52                 push        edx
  00403D87: E8 34 02 00 00     call        00403FC0
  00403D8C: 83 C4 0C           add         esp,0Ch
  00403D8F: 85 C0              test        eax,eax
  00403D91: 75 43              jne         00403DD6
  00403D93: 8B 45 FC           mov         eax,dword ptr [ebp-4]
  00403D96: 83 C0 20           add         eax,20h
  00403D99: 50                 push        eax
  00403D9A: 8B 4D FC           mov         ecx,dword ptr [ebp-4]
  00403D9D: 8B 51 18           mov         edx,dword ptr [ecx+18h]
  00403DA0: 52                 push        edx
  00403DA1: 8B 45 FC           mov         eax,dword ptr [ebp-4]
  00403DA4: 8B 48 14           mov         ecx,dword ptr [eax+14h]
  00403DA7: 81 E1 FF FF 00 00  and         ecx,0FFFFh
  00403DAD: 8B 14 8D C0 D1 40  mov         edx,dword ptr [ecx*4+0040D1C0h]
            00
  00403DB4: 52                 push        edx
  00403DB5: 68 44 B9 40 00     push        40B944h
  00403DBA: 6A 00              push        0
  00403DBC: 6A 00              push        0
  00403DBE: 6A 00              push        0
  00403DC0: 6A 01              push        1
  00403DC2: E8 99 D4 FF FF     call        00401260
  00403DC7: 83 C4 20           add         esp,20h
  00403DCA: 83 F8 01           cmp         eax,1
  00403DCD: 75 01              jne         00403DD0
  00403DCF: CC                 int         3
  00403DD0: 33 C0              xor         eax,eax
  00403DD2: 85 C0              test        eax,eax
  00403DD4: 75 BD              jne         00403D93
  00403DD6: 8B 4D FC           mov         ecx,dword ptr [ebp-4]
  00403DD9: 83 79 14 03        cmp         dword ptr [ecx+14h],3
  00403DDD: 75 6C              jne         00403E4B
  00403DDF: 8B 55 FC           mov         edx,dword ptr [ebp-4]
  00403DE2: 81 7A 0C BC BA DC  cmp         dword ptr [edx+0Ch],0FEDCBABCh
            FE
  00403DE9: 75 09              jne         00403DF4
  00403DEB: 8B 45 FC           mov         eax,dword ptr [ebp-4]
  00403DEE: 83 78 18 00        cmp         dword ptr [eax+18h],0
  00403DF2: 74 21              je          00403E15
  00403DF4: 68 04 B9 40 00     push        40B904h
  00403DF9: 6A 00              push        0
  00403DFB: 68 2F 04 00 00     push        42Fh
  00403E00: 68 70 B8 40 00     push        40B870h
  00403E05: 6A 02              push        2
  00403E07: E8 54 D4 FF FF     call        00401260
  00403E0C: 83 C4 14           add         esp,14h
  00403E0F: 83 F8 01           cmp         eax,1
  00403E12: 75 01              jne         00403E15
  00403E14: CC                 int         3
  00403E15: 33 C9              xor         ecx,ecx
  00403E17: 85 C9              test        ecx,ecx
  00403E19: 75 C4              jne         00403DDF
  00403E1B: 8B 55 FC           mov         edx,dword ptr [ebp-4]
  00403E1E: 8B 42 10           mov         eax,dword ptr [edx+10h]
  00403E21: 83 C0 24           add         eax,24h
  00403E24: 50                 push        eax
  00403E25: 33 C9              xor         ecx,ecx
  00403E27: 8A 0D BD D1 40 00  mov         cl,byte ptr ds:[0040D1BDh]
  00403E2D: 51                 push        ecx
  00403E2E: 8B 55 FC           mov         edx,dword ptr [ebp-4]
  00403E31: 52                 push        edx
  00403E32: E8 49 52 00 00     call        00409080
  00403E37: 83 C4 0C           add         esp,0Ch
  00403E3A: 8B 45 FC           mov         eax,dword ptr [ebp-4]
  00403E3D: 50                 push        eax
  00403E3E: E8 7D 53 00 00     call        004091C0
  00403E43: 83 C4 04           add         esp,4
  00403E46: E9 6A 01 00 00     jmp         00403FB5
  00403E4B: 8B 4D FC           mov         ecx,dword ptr [ebp-4]
  00403E4E: 83 79 14 02        cmp         dword ptr [ecx+14h],2
  00403E52: 75 0D              jne         00403E61
  00403E54: 83 7D 0C 01        cmp         dword ptr [ebp+0Ch],1
  00403E58: 75 07              jne         00403E61
  00403E5A: C7 45 0C 02 00 00  mov         dword ptr [ebp+0Ch],2
            00
  00403E61: 8B 55 FC           mov         edx,dword ptr [ebp-4]
  00403E64: 8B 42 14           mov         eax,dword ptr [edx+14h]
  00403E67: 3B 45 0C           cmp         eax,dword ptr [ebp+0Ch]
  00403E6A: 74 21              je          00403E8D
  00403E6C: 68 E4 B8 40 00     push        40B8E4h
  00403E71: 6A 00              push        0
  00403E73: 68 3C 04 00 00     push        43Ch
  00403E78: 68 70 B8 40 00     push        40B870h
  00403E7D: 6A 02              push        2
  00403E7F: E8 DC D3 FF FF     call        00401260
  00403E84: 83 C4 14           add         esp,14h
  00403E87: 83 F8 01           cmp         eax,1
  00403E8A: 75 01              jne         00403E8D
  00403E8C: CC                 int         3
  00403E8D: 33 C9              xor         ecx,ecx
  00403E8F: 85 C9              test        ecx,ecx
  00403E91: 75 CE              jne         00403E61
  00403E93: 8B 55 FC           mov         edx,dword ptr [ebp-4]
  00403E96: A1 CC FA 40 00     mov         eax,[0040FACC]
  00403E9B: 2B 42 10           sub         eax,dword ptr [edx+10h]
  00403E9E: A3 CC FA 40 00     mov         [0040FACC],eax
  00403EA3: 8B 0D B0 D1 40 00  mov         ecx,dword ptr ds:[0040D1B0h]
  00403EA9: 83 E1 02           and         ecx,2
  00403EAC: 85 C9              test        ecx,ecx
  00403EAE: 0F 85 D8 00 00 00  jne         00403F8C
  00403EB4: 8B 55 FC           mov         edx,dword ptr [ebp-4]
  00403EB7: 83 3A 00           cmp         dword ptr [edx],0
  00403EBA: 74 10              je          00403ECC
  00403EBC: 8B 45 FC           mov         eax,dword ptr [ebp-4]
  00403EBF: 8B 08              mov         ecx,dword ptr [eax]
  00403EC1: 8B 55 FC           mov         edx,dword ptr [ebp-4]
  00403EC4: 8B 42 04           mov         eax,dword ptr [edx+4]
  00403EC7: 89 41 04           mov         dword ptr [ecx+4],eax
  00403ECA: EB 3E              jmp         00403F0A
  00403ECC: 8B 0D C0 FA 40 00  mov         ecx,dword ptr ds:[0040FAC0h]
  00403ED2: 3B 4D FC           cmp         ecx,dword ptr [ebp-4]
  00403ED5: 74 21              je          00403EF8
  00403ED7: 68 CC B8 40 00     push        40B8CCh
  00403EDC: 6A 00              push        0
  00403EDE: 68 4B 04 00 00     push        44Bh
  00403EE3: 68 70 B8 40 00     push        40B870h
  00403EE8: 6A 02              push        2
  00403EEA: E8 71 D3 FF FF     call        00401260
  00403EEF: 83 C4 14           add         esp,14h
  00403EF2: 83 F8 01           cmp         eax,1
  00403EF5: 75 01              jne         00403EF8
  00403EF7: CC                 int         3
  00403EF8: 33 D2              xor         edx,edx
  00403EFA: 85 D2              test        edx,edx
  00403EFC: 75 CE              jne         00403ECC
  00403EFE: 8B 45 FC           mov         eax,dword ptr [ebp-4]
  00403F01: 8B 48 04           mov         ecx,dword ptr [eax+4]
  00403F04: 89 0D C0 FA 40 00  mov         dword ptr ds:[0040FAC0h],ecx
  00403F0A: 8B 55 FC           mov         edx,dword ptr [ebp-4]
  00403F0D: 83 7A 04 00        cmp         dword ptr [edx+4],0
  00403F11: 74 0F              je          00403F22
  00403F13: 8B 45 FC           mov         eax,dword ptr [ebp-4]
  00403F16: 8B 48 04           mov         ecx,dword ptr [eax+4]
  00403F19: 8B 55 FC           mov         edx,dword ptr [ebp-4]
  00403F1C: 8B 02              mov         eax,dword ptr [edx]
  00403F1E: 89 01              mov         dword ptr [ecx],eax
  00403F20: EB 3D              jmp         00403F5F
  00403F22: 8B 0D C8 FA 40 00  mov         ecx,dword ptr ds:[0040FAC8h]
  00403F28: 3B 4D FC           cmp         ecx,dword ptr [ebp-4]
  00403F2B: 74 21              je          00403F4E
  00403F2D: 68 B4 B8 40 00     push        40B8B4h
  00403F32: 6A 00              push        0
  00403F34: 68 55 04 00 00     push        455h
  00403F39: 68 70 B8 40 00     push        40B870h
  00403F3E: 6A 02              push        2
  00403F40: E8 1B D3 FF FF     call        00401260
  00403F45: 83 C4 14           add         esp,14h
  00403F48: 83 F8 01           cmp         eax,1
  00403F4B: 75 01              jne         00403F4E
  00403F4D: CC                 int         3
  00403F4E: 33 D2              xor         edx,edx
  00403F50: 85 D2              test        edx,edx
  00403F52: 75 CE              jne         00403F22
  00403F54: 8B 45 FC           mov         eax,dword ptr [ebp-4]
  00403F57: 8B 08              mov         ecx,dword ptr [eax]
  00403F59: 89 0D C8 FA 40 00  mov         dword ptr ds:[0040FAC8h],ecx
  00403F5F: 8B 55 FC           mov         edx,dword ptr [ebp-4]
  00403F62: 8B 42 10           mov         eax,dword ptr [edx+10h]
  00403F65: 83 C0 24           add         eax,24h
  00403F68: 50                 push        eax
  00403F69: 33 C9              xor         ecx,ecx
  00403F6B: 8A 0D BD D1 40 00  mov         cl,byte ptr ds:[0040D1BDh]
  00403F71: 51                 push        ecx
  00403F72: 8B 55 FC           mov         edx,dword ptr [ebp-4]
  00403F75: 52                 push        edx
  00403F76: E8 05 51 00 00     call        00409080
  00403F7B: 83 C4 0C           add         esp,0Ch
  00403F7E: 8B 45 FC           mov         eax,dword ptr [ebp-4]
  00403F81: 50                 push        eax
  00403F82: E8 39 52 00 00     call        004091C0
  00403F87: 83 C4 04           add         esp,4
  00403F8A: EB 29              jmp         00403FB5
  00403F8C: 8B 4D FC           mov         ecx,dword ptr [ebp-4]
  00403F8F: C7 41 14 00 00 00  mov         dword ptr [ecx+14h],0
            00
  00403F96: 8B 55 FC           mov         edx,dword ptr [ebp-4]
  00403F99: 8B 42 10           mov         eax,dword ptr [edx+10h]
  00403F9C: 50                 push        eax
  00403F9D: 33 C9              xor         ecx,ecx
  00403F9F: 8A 0D BD D1 40 00  mov         cl,byte ptr ds:[0040D1BDh]
  00403FA5: 51                 push        ecx
  00403FA6: 8B 55 FC           mov         edx,dword ptr [ebp-4]
  00403FA9: 83 C2 20           add         edx,20h
  00403FAC: 52                 push        edx
  00403FAD: E8 CE 50 00 00     call        00409080
  00403FB2: 83 C4 0C           add         esp,0Ch
  00403FB5: 5F                 pop         edi
  00403FB6: 5E                 pop         esi
  00403FB7: 5B                 pop         ebx
  00403FB8: 8B E5              mov         esp,ebp
  00403FBA: 5D                 pop         ebp
  00403FBB: C3                 ret
  00403FBC: CC                 int         3
  00403FBD: CC                 int         3
  00403FBE: CC                 int         3
  00403FBF: CC                 int         3
  00403FC0: 55                 push        ebp
  00403FC1: 8B EC              mov         ebp,esp
  00403FC3: 51                 push        ecx
  00403FC4: 53                 push        ebx
  00403FC5: 56                 push        esi
  00403FC6: 57                 push        edi
  00403FC7: C7 45 FC 01 00 00  mov         dword ptr [ebp-4],1
            00
  00403FCE: 8B 45 10           mov         eax,dword ptr [ebp+10h]
  00403FD1: 8B 4D 10           mov         ecx,dword ptr [ebp+10h]
  00403FD4: 83 E9 01           sub         ecx,1
  00403FD7: 89 4D 10           mov         dword ptr [ebp+10h],ecx
  00403FDA: 85 C0              test        eax,eax
  00403FDC: 74 60              je          0040403E
  00403FDE: 8B 55 08           mov         edx,dword ptr [ebp+8]
  00403FE1: 33 C0              xor         eax,eax
  00403FE3: 8A 02              mov         al,byte ptr [edx]
  00403FE5: 8B 4D 0C           mov         ecx,dword ptr [ebp+0Ch]
  00403FE8: 81 E1 FF 00 00 00  and         ecx,0FFh
  00403FEE: 8B 55 08           mov         edx,dword ptr [ebp+8]
  00403FF1: 83 C2 01           add         edx,1
  00403FF4: 89 55 08           mov         dword ptr [ebp+8],edx
  00403FF7: 3B C1              cmp         eax,ecx
  00403FF9: 74 41              je          0040403C
  00403FFB: 8B 45 0C           mov         eax,dword ptr [ebp+0Ch]
  00403FFE: 25 FF 00 00 00     and         eax,0FFh
  00404003: 50                 push        eax
  00404004: 8B 4D 08           mov         ecx,dword ptr [ebp+8]
  00404007: 33 D2              xor         edx,edx
  00404009: 8A 51 FF           mov         dl,byte ptr [ecx-1]
  0040400C: 52                 push        edx
  0040400D: 8B 45 08           mov         eax,dword ptr [ebp+8]
  00404010: 83 E8 01           sub         eax,1
  00404013: 50                 push        eax
  00404014: 68 E0 B9 40 00     push        40B9E0h
  00404019: 6A 00              push        0
  0040401B: 6A 00              push        0
  0040401D: 6A 00              push        0
  0040401F: 6A 00              push        0
  00404021: E8 3A D2 FF FF     call        00401260
  00404026: 83 C4 20           add         esp,20h
  00404029: 83 F8 01           cmp         eax,1
  0040402C: 75 01              jne         0040402F
  0040402E: CC                 int         3
  0040402F: 33 C9              xor         ecx,ecx
  00404031: 85 C9              test        ecx,ecx
  00404033: 75 C6              jne         00403FFB
  00404035: C7 45 FC 00 00 00  mov         dword ptr [ebp-4],0
            00
  0040403C: EB 90              jmp         00403FCE
  0040403E: 8B 45 FC           mov         eax,dword ptr [ebp-4]
  00404041: 5F                 pop         edi
  00404042: 5E                 pop         esi
  00404043: 5B                 pop         ebx
  00404044: 8B E5              mov         esp,ebp
  00404046: 5D                 pop         ebp
  00404047: C3                 ret
  00404048: CC                 int         3
  00404049: CC                 int         3
  0040404A: CC                 int         3
  0040404B: CC                 int         3
  0040404C: CC                 int         3
  0040404D: CC                 int         3
  0040404E: CC                 int         3
  0040404F: CC                 int         3
  00404050: 55                 push        ebp
  00404051: 8B EC              mov         ebp,esp
  00404053: 83 EC 18           sub         esp,18h
  00404056: 53                 push        ebx
  00404057: 56                 push        esi
  00404058: 57                 push        edi
  00404059: A1 B0 D1 40 00     mov         eax,[0040D1B0]
  0040405E: 83 E0 01           and         eax,1
  00404061: 85 C0              test        eax,eax
  00404063: 75 0A              jne         0040406F
  00404065: B8 01 00 00 00     mov         eax,1
  0040406A: E9 20 03 00 00     jmp         0040438F
  0040406F: E8 1C 52 00 00     call        00409290
  00404074: 89 45 F4           mov         dword ptr [ebp-0Ch],eax
  00404077: 83 7D F4 FF        cmp         dword ptr [ebp-0Ch],0FFh
  0040407B: 0F 84 02 01 00 00  je          00404183
  00404081: 83 7D F4 FE        cmp         dword ptr [ebp-0Ch],0FEh
  00404085: 0F 84 F8 00 00 00  je          00404183
  0040408B: 8B 4D F4           mov         ecx,dword ptr [ebp-0Ch]
  0040408E: 89 4D E8           mov         dword ptr [ebp-18h],ecx
  00404091: 8B 55 E8           mov         edx,dword ptr [ebp-18h]
  00404094: 83 C2 06           add         edx,6
  00404097: 89 55 E8           mov         dword ptr [ebp-18h],edx
  0040409A: 83 7D E8 03        cmp         dword ptr [ebp-18h],3
  0040409E: 0F 87 AD 00 00 00  ja          00404151
  004040A4: 8B 45 E8           mov         eax,dword ptr [ebp-18h]
  004040A7: FF 24 85 96 43 40  jmp         dword ptr [eax*4+00404396h]
            00
  004040AE: 68 34 BB 40 00     push        40BB34h
  004040B3: 68 10 B8 40 00     push        40B810h
  004040B8: 6A 00              push        0
  004040BA: 6A 00              push        0
  004040BC: 6A 00              push        0
  004040BE: 6A 00              push        0
  004040C0: E8 9B D1 FF FF     call        00401260
  004040C5: 83 C4 18           add         esp,18h
  004040C8: 83 F8 01           cmp         eax,1
  004040CB: 75 01              jne         004040CE
  004040CD: CC                 int         3
  004040CE: 33 C9              xor         ecx,ecx
  004040D0: 85 C9              test        ecx,ecx
  004040D2: 75 DA              jne         004040AE
  004040D4: E9 9E 00 00 00     jmp         00404177
  004040D9: 68 10 BB 40 00     push        40BB10h
  004040DE: 68 10 B8 40 00     push        40B810h
  004040E3: 6A 00              push        0
  004040E5: 6A 00              push        0
  004040E7: 6A 00              push        0
  004040E9: 6A 00              push        0
  004040EB: E8 70 D1 FF FF     call        00401260
  004040F0: 83 C4 18           add         esp,18h
  004040F3: 83 F8 01           cmp         eax,1
  004040F6: 75 01              jne         004040F9
  004040F8: CC                 int         3
  004040F9: 33 D2              xor         edx,edx
  004040FB: 85 D2              test        edx,edx
  004040FD: 75 DA              jne         004040D9
  004040FF: EB 76              jmp         00404177
  00404101: 68 EC BA 40 00     push        40BAECh
  00404106: 68 10 B8 40 00     push        40B810h
  0040410B: 6A 00              push        0
  0040410D: 6A 00              push        0
  0040410F: 6A 00              push        0
  00404111: 6A 00              push        0
  00404113: E8 48 D1 FF FF     call        00401260
  00404118: 83 C4 18           add         esp,18h
  0040411B: 83 F8 01           cmp         eax,1
  0040411E: 75 01              jne         00404121
  00404120: CC                 int         3
  00404121: 33 C0              xor         eax,eax
  00404123: 85 C0              test        eax,eax
  00404125: 75 DA              jne         00404101
  00404127: EB 4E              jmp         00404177
  00404129: 68 C8 BA 40 00     push        40BAC8h
  0040412E: 68 10 B8 40 00     push        40B810h
  00404133: 6A 00              push        0
  00404135: 6A 00              push        0
  00404137: 6A 00              push        0
  00404139: 6A 00              push        0
  0040413B: E8 20 D1 FF FF     call        00401260
  00404140: 83 C4 18           add         esp,18h
  00404143: 83 F8 01           cmp         eax,1
  00404146: 75 01              jne         00404149
  00404148: CC                 int         3
  00404149: 33 C9              xor         ecx,ecx
  0040414B: 85 C9              test        ecx,ecx
  0040414D: 75 DA              jne         00404129
  0040414F: EB 26              jmp         00404177
  00404151: 68 9C BA 40 00     push        40BA9Ch
  00404156: 68 10 B8 40 00     push        40B810h
  0040415B: 6A 00              push        0
  0040415D: 6A 00              push        0
  0040415F: 6A 00              push        0
  00404161: 6A 00              push        0
  00404163: E8 F8 D0 FF FF     call        00401260
  00404168: 83 C4 18           add         esp,18h
  0040416B: 83 F8 01           cmp         eax,1
  0040416E: 75 01              jne         00404171
  00404170: CC                 int         3
  00404171: 33 D2              xor         edx,edx
  00404173: 85 D2              test        edx,edx
  00404175: 75 DA              jne         00404151
  00404177: C7 45 FC 00 00 00  mov         dword ptr [ebp-4],0
            00
  0040417E: E9 09 02 00 00     jmp         0040438C
  00404183: C7 45 FC 01 00 00  mov         dword ptr [ebp-4],1
            00
  0040418A: A1 C8 FA 40 00     mov         eax,[0040FAC8]
  0040418F: 89 45 F8           mov         dword ptr [ebp-8],eax
  00404192: EB 08              jmp         0040419C
  00404194: 8B 4D F8           mov         ecx,dword ptr [ebp-8]
  00404197: 8B 11              mov         edx,dword ptr [ecx]
  00404199: 89 55 F8           mov         dword ptr [ebp-8],edx
  0040419C: 83 7D F8 00        cmp         dword ptr [ebp-8],0
  004041A0: 0F 84 E6 01 00 00  je          0040438C
  004041A6: C7 45 F0 01 00 00  mov         dword ptr [ebp-10h],1
            00
  004041AD: 8B 45 F8           mov         eax,dword ptr [ebp-8]
  004041B0: 8B 48 14           mov         ecx,dword ptr [eax+14h]
  004041B3: 81 E1 FF FF 00 00  and         ecx,0FFFFh
  004041B9: 83 F9 04           cmp         ecx,4
  004041BC: 74 23              je          004041E1
  004041BE: 8B 55 F8           mov         edx,dword ptr [ebp-8]
  004041C1: 83 7A 14 01        cmp         dword ptr [edx+14h],1
  004041C5: 74 1A              je          004041E1
  004041C7: 8B 45 F8           mov         eax,dword ptr [ebp-8]
  004041CA: 8B 48 14           mov         ecx,dword ptr [eax+14h]
  004041CD: 81 E1 FF FF 00 00  and         ecx,0FFFFh
  004041D3: 83 F9 02           cmp         ecx,2
  004041D6: 74 09              je          004041E1
  004041D8: 8B 55 F8           mov         edx,dword ptr [ebp-8]
  004041DB: 83 7A 14 03        cmp         dword ptr [edx+14h],3
  004041DF: 75 18              jne         004041F9
  004041E1: 8B 45 F8           mov         eax,dword ptr [ebp-8]
  004041E4: 8B 48 14           mov         ecx,dword ptr [eax+14h]
  004041E7: 81 E1 FF FF 00 00  and         ecx,0FFFFh
  004041ED: 8B 14 8D C0 D1 40  mov         edx,dword ptr [ecx*4+0040D1C0h]
            00
  004041F4: 89 55 EC           mov         dword ptr [ebp-14h],edx
  004041F7: EB 07              jmp         00404200
  004041F9: C7 45 EC 94 BA 40  mov         dword ptr [ebp-14h],40BA94h
            00
  00404200: 6A 04              push        4
  00404202: A0 BC D1 40 00     mov         al,[0040D1BC]
  00404207: 50                 push        eax
  00404208: 8B 4D F8           mov         ecx,dword ptr [ebp-8]
  0040420B: 83 C1 1C           add         ecx,1Ch
  0040420E: 51                 push        ecx
  0040420F: E8 AC FD FF FF     call        00403FC0
  00404214: 83 C4 0C           add         esp,0Ch
  00404217: 85 C0              test        eax,eax
  00404219: 75 3A              jne         00404255
  0040421B: 8B 55 F8           mov         edx,dword ptr [ebp-8]
  0040421E: 83 C2 20           add         edx,20h
  00404221: 52                 push        edx
  00404222: 8B 45 F8           mov         eax,dword ptr [ebp-8]
  00404225: 8B 48 18           mov         ecx,dword ptr [eax+18h]
  00404228: 51                 push        ecx
  00404229: 8B 55 EC           mov         edx,dword ptr [ebp-14h]
  0040422C: 52                 push        edx
  0040422D: 68 70 B9 40 00     push        40B970h
  00404232: 6A 00              push        0
  00404234: 6A 00              push        0
  00404236: 6A 00              push        0
  00404238: 6A 00              push        0
  0040423A: E8 21 D0 FF FF     call        00401260
  0040423F: 83 C4 20           add         esp,20h
  00404242: 83 F8 01           cmp         eax,1
  00404245: 75 01              jne         00404248
  00404247: CC                 int         3
  00404248: 33 C0              xor         eax,eax
  0040424A: 85 C0              test        eax,eax
  0040424C: 75 CD              jne         0040421B
  0040424E: C7 45 F0 00 00 00  mov         dword ptr [ebp-10h],0
            00
  00404255: 6A 04              push        4
  00404257: 8A 0D BC D1 40 00  mov         cl,byte ptr ds:[0040D1BCh]
  0040425D: 51                 push        ecx
  0040425E: 8B 55 F8           mov         edx,dword ptr [ebp-8]
  00404261: 8B 42 10           mov         eax,dword ptr [edx+10h]
  00404264: 8B 4D F8           mov         ecx,dword ptr [ebp-8]
  00404267: 8D 54 01 20        lea         edx,[ecx+eax+20h]
  0040426B: 52                 push        edx
  0040426C: E8 4F FD FF FF     call        00403FC0
  00404271: 83 C4 0C           add         esp,0Ch
  00404274: 85 C0              test        eax,eax
  00404276: 75 3A              jne         004042B2
  00404278: 8B 45 F8           mov         eax,dword ptr [ebp-8]
  0040427B: 83 C0 20           add         eax,20h
  0040427E: 50                 push        eax
  0040427F: 8B 4D F8           mov         ecx,dword ptr [ebp-8]
  00404282: 8B 51 18           mov         edx,dword ptr [ecx+18h]
  00404285: 52                 push        edx
  00404286: 8B 45 EC           mov         eax,dword ptr [ebp-14h]
  00404289: 50                 push        eax
  0040428A: 68 44 B9 40 00     push        40B944h
  0040428F: 6A 00              push        0
  00404291: 6A 00              push        0
  00404293: 6A 00              push        0
  00404295: 6A 00              push        0
  00404297: E8 C4 CF FF FF     call        00401260
  0040429C: 83 C4 20           add         esp,20h
  0040429F: 83 F8 01           cmp         eax,1
  004042A2: 75 01              jne         004042A5
  004042A4: CC                 int         3
  004042A5: 33 C9              xor         ecx,ecx
  004042A7: 85 C9              test        ecx,ecx
  004042A9: 75 CD              jne         00404278
  004042AB: C7 45 F0 00 00 00  mov         dword ptr [ebp-10h],0
            00
  004042B2: 8B 55 F8           mov         edx,dword ptr [ebp-8]
  004042B5: 83 7A 14 00        cmp         dword ptr [edx+14h],0
  004042B9: 75 50              jne         0040430B
  004042BB: 8B 45 F8           mov         eax,dword ptr [ebp-8]
  004042BE: 8B 48 10           mov         ecx,dword ptr [eax+10h]
  004042C1: 51                 push        ecx
  004042C2: 8A 15 BD D1 40 00  mov         dl,byte ptr ds:[0040D1BDh]
  004042C8: 52                 push        edx
  004042C9: 8B 45 F8           mov         eax,dword ptr [ebp-8]
  004042CC: 83 C0 20           add         eax,20h
  004042CF: 50                 push        eax
  004042D0: E8 EB FC FF FF     call        00403FC0
  004042D5: 83 C4 0C           add         esp,0Ch
  004042D8: 85 C0              test        eax,eax
  004042DA: 75 2F              jne         0040430B
  004042DC: 8B 4D F8           mov         ecx,dword ptr [ebp-8]
  004042DF: 83 C1 20           add         ecx,20h
  004042E2: 51                 push        ecx
  004042E3: 68 68 BA 40 00     push        40BA68h
  004042E8: 6A 00              push        0
  004042EA: 6A 00              push        0
  004042EC: 6A 00              push        0
  004042EE: 6A 00              push        0
  004042F0: E8 6B CF FF FF     call        00401260
  004042F5: 83 C4 18           add         esp,18h
  004042F8: 83 F8 01           cmp         eax,1
  004042FB: 75 01              jne         004042FE
  004042FD: CC                 int         3
  004042FE: 33 D2              xor         edx,edx
  00404300: 85 D2              test        edx,edx
  00404302: 75 D8              jne         004042DC
  00404304: C7 45 F0 00 00 00  mov         dword ptr [ebp-10h],0
            00
  0040430B: 83 7D F0 00        cmp         dword ptr [ebp-10h],0
  0040430F: 75 76              jne         00404387
  00404311: 8B 45 F8           mov         eax,dword ptr [ebp-8]
  00404314: 83 78 08 00        cmp         dword ptr [eax+8],0
  00404318: 74 33              je          0040434D
  0040431A: 8B 4D F8           mov         ecx,dword ptr [ebp-8]
  0040431D: 8B 51 0C           mov         edx,dword ptr [ecx+0Ch]
  00404320: 52                 push        edx
  00404321: 8B 45 F8           mov         eax,dword ptr [ebp-8]
  00404324: 8B 48 08           mov         ecx,dword ptr [eax+8]
  00404327: 51                 push        ecx
  00404328: 8B 55 EC           mov         edx,dword ptr [ebp-14h]
  0040432B: 52                 push        edx
  0040432C: 68 48 BA 40 00     push        40BA48h
  00404331: 6A 00              push        0
  00404333: 6A 00              push        0
  00404335: 6A 00              push        0
  00404337: 6A 00              push        0
  00404339: E8 22 CF FF FF     call        00401260
  0040433E: 83 C4 20           add         esp,20h
  00404341: 83 F8 01           cmp         eax,1
  00404344: 75 01              jne         00404347
  00404346: CC                 int         3
  00404347: 33 C0              xor         eax,eax
  00404349: 85 C0              test        eax,eax
  0040434B: 75 CD              jne         0040431A
  0040434D: 8B 4D F8           mov         ecx,dword ptr [ebp-8]
  00404350: 8B 51 10           mov         edx,dword ptr [ecx+10h]
  00404353: 52                 push        edx
  00404354: 8B 45 F8           mov         eax,dword ptr [ebp-8]
  00404357: 83 C0 20           add         eax,20h
  0040435A: 50                 push        eax
  0040435B: 8B 4D EC           mov         ecx,dword ptr [ebp-14h]
  0040435E: 51                 push        ecx
  0040435F: 68 1C BA 40 00     push        40BA1Ch
  00404364: 6A 00              push        0
  00404366: 6A 00              push        0
  00404368: 6A 00              push        0
  0040436A: 6A 00              push        0
  0040436C: E8 EF CE FF FF     call        00401260
  00404371: 83 C4 20           add         esp,20h
  00404374: 83 F8 01           cmp         eax,1
  00404377: 75 01              jne         0040437A
  00404379: CC                 int         3
  0040437A: 33 D2              xor         edx,edx
  0040437C: 85 D2              test        edx,edx
  0040437E: 75 CD              jne         0040434D
  00404380: C7 45 FC 00 00 00  mov         dword ptr [ebp-4],0
            00
  00404387: E9 08 FE FF FF     jmp         00404194
  0040438C: 8B 45 FC           mov         eax,dword ptr [ebp-4]
  0040438F: 5F                 pop         edi
  00404390: 5E                 pop         esi
  00404391: 5B                 pop         ebx
  00404392: 8B E5              mov         esp,ebp
  00404394: 5D                 pop         ebp
  00404395: C3                 ret
  00404396: 29 41 40           sub         dword ptr [ecx+40h],eax
  00404399: 00 01              add         byte ptr [ecx],al
  0040439B: 41                 inc         ecx
  0040439C: 40                 inc         eax
  0040439D: 00 D9              add         cl,bl
  0040439F: 40                 inc         eax
  004043A0: 40                 inc         eax
  004043A1: 00 AE 40 40 00 CC  add         byte ptr [esi+CC004040h],ch
  004043A7: CC                 int         3
  004043A8: CC                 int         3
  004043A9: CC                 int         3
  004043AA: CC                 int         3
  004043AB: CC                 int         3
  004043AC: CC                 int         3
  004043AD: CC                 int         3
  004043AE: CC                 int         3
  004043AF: CC                 int         3
  004043B0: 55                 push        ebp
  004043B1: 8B EC              mov         ebp,esp
  004043B3: 51                 push        ecx
  004043B4: A1 B0 D1 40 00     mov         eax,[0040D1B0]
  004043B9: 89 45 FC           mov         dword ptr [ebp-4],eax
  004043BC: 83 7D 08 FF        cmp         dword ptr [ebp+8],0FFh
  004043C0: 74 09              je          004043CB
  004043C2: 8B 4D 08           mov         ecx,dword ptr [ebp+8]
  004043C5: 89 0D B0 D1 40 00  mov         dword ptr ds:[0040D1B0h],ecx
  004043CB: 8B 45 FC           mov         eax,dword ptr [ebp-4]
  004043CE: 8B E5              mov         esp,ebp
  004043D0: 5D                 pop         ebp
  004043D1: C3                 ret
  004043D2: CC                 int         3
  004043D3: CC                 int         3
  004043D4: CC                 int         3
  004043D5: CC                 int         3
  004043D6: CC                 int         3
  004043D7: CC                 int         3
  004043D8: CC                 int         3
  004043D9: CC                 int         3
  004043DA: CC                 int         3
  004043DB: CC                 int         3
  004043DC: CC                 int         3
  004043DD: CC                 int         3
  004043DE: CC                 int         3
  004043DF: CC                 int         3
  004043E0: 55                 push        ebp
  004043E1: 8B EC              mov         ebp,esp
  004043E3: 51                 push        ecx
  004043E4: 83 7D 08 00        cmp         dword ptr [ebp+8],0
  004043E8: 74 33              je          0040441D
  004043EA: 8B 45 0C           mov         eax,dword ptr [ebp+0Ch]
  004043ED: 50                 push        eax
  004043EE: 8B 4D 08           mov         ecx,dword ptr [ebp+8]
  004043F1: 51                 push        ecx
  004043F2: FF 15 84 B0 40 00  call        dword ptr ds:[0040B084h]
  004043F8: 85 C0              test        eax,eax
  004043FA: 75 21              jne         0040441D
  004043FC: 83 7D 10 00        cmp         dword ptr [ebp+10h],0
  00404400: 74 12              je          00404414
  00404402: 8B 55 0C           mov         edx,dword ptr [ebp+0Ch]
  00404405: 52                 push        edx
  00404406: 8B 45 08           mov         eax,dword ptr [ebp+8]
  00404409: 50                 push        eax
  0040440A: FF 15 80 B0 40 00  call        dword ptr ds:[0040B080h]
  00404410: 85 C0              test        eax,eax
  00404412: 75 09              jne         0040441D
  00404414: C7 45 FC 01 00 00  mov         dword ptr [ebp-4],1
            00
  0040441B: EB 07              jmp         00404424
  0040441D: C7 45 FC 00 00 00  mov         dword ptr [ebp-4],0
            00
  00404424: 8B 45 FC           mov         eax,dword ptr [ebp-4]
  00404427: 8B E5              mov         esp,ebp
  00404429: 5D                 pop         ebp
  0040442A: C3                 ret
  0040442B: CC                 int         3
  0040442C: CC                 int         3
  0040442D: CC                 int         3
  0040442E: CC                 int         3
  0040442F: CC                 int         3
  00404430: 55                 push        ebp
  00404431: 8B EC              mov         ebp,esp
  00404433: 83 EC 10           sub         esp,10h
  00404436: 83 7D 08 00        cmp         dword ptr [ebp+8],0
  0040443A: 75 07              jne         00404443
  0040443C: 33 C0              xor         eax,eax
  0040443E: E9 0D 01 00 00     jmp         00404550
  00404443: 6A 01              push        1
  00404445: 6A 20              push        20h
  00404447: 8B 45 08           mov         eax,dword ptr [ebp+8]
  0040444A: 83 E8 20           sub         eax,20h
  0040444D: 50                 push        eax
  0040444E: E8 8D FF FF FF     call        004043E0
  00404453: 83 C4 0C           add         esp,0Ch
  00404456: 85 C0              test        eax,eax
  00404458: 75 07              jne         00404461
  0040445A: 33 C0              xor         eax,eax
  0040445C: E9 EF 00 00 00     jmp         00404550
  00404461: 83 3D 70 0D 41 00  cmp         dword ptr ds:[00410D70h],3
            03
  00404468: 75 64              jne         004044CE
  0040446A: 8B 4D 08           mov         ecx,dword ptr [ebp+8]
  0040446D: 83 E9 20           sub         ecx,20h
  00404470: 51                 push        ecx
  00404471: E8 CA 16 00 00     call        00405B40
  00404476: 83 C4 04           add         esp,4
  00404479: 89 45 FC           mov         dword ptr [ebp-4],eax
  0040447C: 83 7D FC 00        cmp         dword ptr [ebp-4],0
  00404480: 74 18              je          0040449A
  00404482: 8B 55 08           mov         edx,dword ptr [ebp+8]
  00404485: 83 EA 20           sub         edx,20h
  00404488: 52                 push        edx
  00404489: 8B 45 FC           mov         eax,dword ptr [ebp-4]
  0040448C: 50                 push        eax
  0040448D: E8 0E 17 00 00     call        00405BA0
  00404492: 83 C4 08           add         esp,8
  00404495: E9 B6 00 00 00     jmp         00404550
  0040449A: 8B 0D 4C F9 40 00  mov         ecx,dword ptr ds:[0040F94Ch]
  004044A0: 81 E1 00 80 00 00  and         ecx,8000h
  004044A6: 85 C9              test        ecx,ecx
  004044A8: 74 0A              je          004044B4
  004044AA: B8 01 00 00 00     mov         eax,1
  004044AF: E9 9C 00 00 00     jmp         00404550
  004044B4: 8B 55 08           mov         edx,dword ptr [ebp+8]
  004044B7: 83 EA 20           sub         edx,20h
  004044BA: 52                 push        edx
  004044BB: 6A 00              push        0
  004044BD: A1 6C 0D 41 00     mov         eax,[00410D6C]
  004044C2: 50                 push        eax
  004044C3: FF 15 88 B0 40 00  call        dword ptr ds:[0040B088h]
  004044C9: E9 82 00 00 00     jmp         00404550
  004044CE: 83 3D 70 0D 41 00  cmp         dword ptr ds:[00410D70h],2
            02
  004044D5: 75 63              jne         0040453A
  004044D7: 8D 4D F8           lea         ecx,[ebp-8]
  004044DA: 51                 push        ecx
  004044DB: 8D 55 F0           lea         edx,[ebp-10h]
  004044DE: 52                 push        edx
  004044DF: 8B 45 08           mov         eax,dword ptr [ebp+8]
  004044E2: 83 E8 20           sub         eax,20h
  004044E5: 50                 push        eax
  004044E6: E8 15 2F 00 00     call        00407400
  004044EB: 83 C4 0C           add         esp,0Ch
  004044EE: 89 45 F4           mov         dword ptr [ebp-0Ch],eax
  004044F1: 83 7D F4 00        cmp         dword ptr [ebp-0Ch],0
  004044F5: 74 16              je          0040450D
  004044F7: 8B 4D F4           mov         ecx,dword ptr [ebp-0Ch]
  004044FA: 33 D2              xor         edx,edx
  004044FC: 8A 11              mov         dl,byte ptr [ecx]
  004044FE: 85 D2              test        edx,edx
  00404500: 74 07              je          00404509
  00404502: B8 01 00 00 00     mov         eax,1
  00404507: EB 47              jmp         00404550
  00404509: 33 C0              xor         eax,eax
  0040450B: EB 43              jmp         00404550
  0040450D: A1 4C F9 40 00     mov         eax,[0040F94C]
  00404512: 25 00 80 00 00     and         eax,8000h
  00404517: 85 C0              test        eax,eax
  00404519: 74 07              je          00404522
  0040451B: B8 01 00 00 00     mov         eax,1
  00404520: EB 2E              jmp         00404550
  00404522: 8B 4D 08           mov         ecx,dword ptr [ebp+8]
  00404525: 83 E9 20           sub         ecx,20h
  00404528: 51                 push        ecx
  00404529: 6A 00              push        0
  0040452B: 8B 15 6C 0D 41 00  mov         edx,dword ptr ds:[00410D6Ch]
  00404531: 52                 push        edx
  00404532: FF 15 88 B0 40 00  call        dword ptr ds:[0040B088h]
  00404538: EB 16              jmp         00404550
  0040453A: 8B 45 08           mov         eax,dword ptr [ebp+8]
  0040453D: 83 E8 20           sub         eax,20h
  00404540: 50                 push        eax
  00404541: 6A 00              push        0
  00404543: 8B 0D 6C 0D 41 00  mov         ecx,dword ptr ds:[00410D6Ch]
  00404549: 51                 push        ecx
  0040454A: FF 15 88 B0 40 00  call        dword ptr ds:[0040B088h]
  00404550: 8B E5              mov         esp,ebp
  00404552: 5D                 pop         ebp
  00404553: C3                 ret
  00404554: CC                 int         3
  00404555: CC                 int         3
  00404556: CC                 int         3
  00404557: CC                 int         3
  00404558: CC                 int         3
  00404559: CC                 int         3
  0040455A: CC                 int         3
  0040455B: CC                 int         3
  0040455C: CC                 int         3
  0040455D: CC                 int         3
  0040455E: CC                 int         3
  0040455F: CC                 int         3
  00404560: 55                 push        ebp
  00404561: 8B EC              mov         ebp,esp
  00404563: 83 EC 08           sub         esp,8
  00404566: 53                 push        ebx
  00404567: 56                 push        esi
  00404568: 57                 push        edi
  00404569: 83 7D 08 00        cmp         dword ptr [ebp+8],0
  0040456D: 75 2B              jne         0040459A
  0040456F: 68 7C BB 40 00     push        40BB7Ch
  00404574: 68 10 B8 40 00     push        40B810h
  00404579: 6A 00              push        0
  0040457B: 6A 00              push        0
  0040457D: 6A 00              push        0
  0040457F: 6A 00              push        0
  00404581: E8 DA CC FF FF     call        00401260
  00404586: 83 C4 18           add         esp,18h
  00404589: 83 F8 01           cmp         eax,1
  0040458C: 75 01              jne         0040458F
  0040458E: CC                 int         3
  0040458F: 33 C0              xor         eax,eax
  00404591: 85 C0              test        eax,eax
  00404593: 75 DA              jne         0040456F
  00404595: E9 15 01 00 00     jmp         004046AF
  0040459A: 8B 4D 08           mov         ecx,dword ptr [ebp+8]
  0040459D: 8B 15 C8 FA 40 00  mov         edx,dword ptr ds:[0040FAC8h]
  004045A3: 89 11              mov         dword ptr [ecx],edx
  004045A5: C7 45 FC 00 00 00  mov         dword ptr [ebp-4],0
            00
  004045AC: EB 09              jmp         004045B7
  004045AE: 8B 45 FC           mov         eax,dword ptr [ebp-4]
  004045B1: 83 C0 01           add         eax,1
  004045B4: 89 45 FC           mov         dword ptr [ebp-4],eax
  004045B7: 83 7D FC 05        cmp         dword ptr [ebp-4],5
  004045BB: 7D 1E              jge         004045DB
  004045BD: 8B 4D FC           mov         ecx,dword ptr [ebp-4]
  004045C0: 8B 55 08           mov         edx,dword ptr [ebp+8]
  004045C3: C7 44 8A 18 00 00  mov         dword ptr [edx+ecx*4+18h],0
            00 00
  004045CB: 8B 45 FC           mov         eax,dword ptr [ebp-4]
  004045CE: 8B 4D 08           mov         ecx,dword ptr [ebp+8]
  004045D1: C7 44 81 04 00 00  mov         dword ptr [ecx+eax*4+4],0
            00 00
  004045D9: EB D3              jmp         004045AE
  004045DB: 8B 15 C8 FA 40 00  mov         edx,dword ptr ds:[0040FAC8h]
  004045E1: 89 55 F8           mov         dword ptr [ebp-8],edx
  004045E4: EB 08              jmp         004045EE
  004045E6: 8B 45 F8           mov         eax,dword ptr [ebp-8]
  004045E9: 8B 08              mov         ecx,dword ptr [eax]
  004045EB: 89 4D F8           mov         dword ptr [ebp-8],ecx
  004045EE: 83 7D F8 00        cmp         dword ptr [ebp-8],0
  004045F2: 0F 84 9F 00 00 00  je          00404697
  004045F8: 8B 55 F8           mov         edx,dword ptr [ebp-8]
  004045FB: 8B 42 14           mov         eax,dword ptr [edx+14h]
  004045FE: 25 FF FF 00 00     and         eax,0FFFFh
  00404603: 85 C0              test        eax,eax
  00404605: 7C 66              jl          0040466D
  00404607: 8B 4D F8           mov         ecx,dword ptr [ebp-8]
  0040460A: 8B 51 14           mov         edx,dword ptr [ecx+14h]
  0040460D: 81 E2 FF FF 00 00  and         edx,0FFFFh
  00404613: 83 FA 05           cmp         edx,5
  00404616: 7D 55              jge         0040466D
  00404618: 8B 45 F8           mov         eax,dword ptr [ebp-8]
  0040461B: 8B 48 14           mov         ecx,dword ptr [eax+14h]
  0040461E: 81 E1 FF FF 00 00  and         ecx,0FFFFh
  00404624: 8B 55 08           mov         edx,dword ptr [ebp+8]
  00404627: 8B 44 8A 04        mov         eax,dword ptr [edx+ecx*4+4]
  0040462B: 83 C0 01           add         eax,1
  0040462E: 8B 4D F8           mov         ecx,dword ptr [ebp-8]
  00404631: 8B 51 14           mov         edx,dword ptr [ecx+14h]
  00404634: 81 E2 FF FF 00 00  and         edx,0FFFFh
  0040463A: 8B 4D 08           mov         ecx,dword ptr [ebp+8]
  0040463D: 89 44 91 04        mov         dword ptr [ecx+edx*4+4],eax
  00404641: 8B 55 F8           mov         edx,dword ptr [ebp-8]
  00404644: 8B 42 14           mov         eax,dword ptr [edx+14h]
  00404647: 25 FF FF 00 00     and         eax,0FFFFh
  0040464C: 8B 4D 08           mov         ecx,dword ptr [ebp+8]
  0040464F: 8B 54 81 18        mov         edx,dword ptr [ecx+eax*4+18h]
  00404653: 8B 45 F8           mov         eax,dword ptr [ebp-8]
  00404656: 03 50 10           add         edx,dword ptr [eax+10h]
  00404659: 8B 4D F8           mov         ecx,dword ptr [ebp-8]
  0040465C: 8B 41 14           mov         eax,dword ptr [ecx+14h]
  0040465F: 25 FF FF 00 00     and         eax,0FFFFh
  00404664: 8B 4D 08           mov         ecx,dword ptr [ebp+8]
  00404667: 89 54 81 18        mov         dword ptr [ecx+eax*4+18h],edx
  0040466B: EB 25              jmp         00404692
  0040466D: 8B 55 F8           mov         edx,dword ptr [ebp-8]
  00404670: 52                 push        edx
  00404671: 68 58 BB 40 00     push        40BB58h
  00404676: 6A 00              push        0
  00404678: 6A 00              push        0
  0040467A: 6A 00              push        0
  0040467C: 6A 00              push        0
  0040467E: E8 DD CB FF FF     call        00401260
  00404683: 83 C4 18           add         esp,18h
  00404686: 83 F8 01           cmp         eax,1
  00404689: 75 01              jne         0040468C
  0040468B: CC                 int         3
  0040468C: 33 C0              xor         eax,eax
  0040468E: 85 C0              test        eax,eax
  00404690: 75 DB              jne         0040466D
  00404692: E9 4F FF FF FF     jmp         004045E6
  00404697: 8B 4D 08           mov         ecx,dword ptr [ebp+8]
  0040469A: 8B 15 D0 FA 40 00  mov         edx,dword ptr ds:[0040FAD0h]
  004046A0: 89 51 2C           mov         dword ptr [ecx+2Ch],edx
  004046A3: 8B 45 08           mov         eax,dword ptr [ebp+8]
  004046A6: 8B 0D C4 FA 40 00  mov         ecx,dword ptr ds:[0040FAC4h]
  004046AC: 89 48 30           mov         dword ptr [eax+30h],ecx
  004046AF: 5F                 pop         edi
  004046B0: 5E                 pop         esi
  004046B1: 5B                 pop         ebx
  004046B2: 8B E5              mov         esp,ebp
  004046B4: 5D                 pop         ebp
  004046B5: C3                 ret
  004046B6: CC                 int         3
  004046B7: CC                 int         3
  004046B8: CC                 int         3
  004046B9: CC                 int         3
  004046BA: CC                 int         3
  004046BB: CC                 int         3
  004046BC: CC                 int         3
  004046BD: CC                 int         3
  004046BE: CC                 int         3
  004046BF: CC                 int         3
  004046C0: 55                 push        ebp
  004046C1: 8B EC              mov         ebp,esp
  004046C3: 83 EC 08           sub         esp,8
  004046C6: 53                 push        ebx
  004046C7: 56                 push        esi
  004046C8: 57                 push        edi
  004046C9: C7 45 F8 00 00 00  mov         dword ptr [ebp-8],0
            00
  004046D0: 68 74 BC 40 00     push        40BC74h
  004046D5: 68 10 B8 40 00     push        40B810h
  004046DA: 6A 00              push        0
  004046DC: 6A 00              push        0
  004046DE: 6A 00              push        0
  004046E0: 6A 00              push        0
  004046E2: E8 79 CB FF FF     call        00401260
  004046E7: 83 C4 18           add         esp,18h
  004046EA: 83 F8 01           cmp         eax,1
  004046ED: 75 01              jne         004046F0
  004046EF: CC                 int         3
  004046F0: 33 C0              xor         eax,eax
  004046F2: 85 C0              test        eax,eax
  004046F4: 75 DA              jne         004046D0
  004046F6: 83 7D 08 00        cmp         dword ptr [ebp+8],0
  004046FA: 74 08              je          00404704
  004046FC: 8B 4D 08           mov         ecx,dword ptr [ebp+8]
  004046FF: 8B 11              mov         edx,dword ptr [ecx]
  00404701: 89 55 F8           mov         dword ptr [ebp-8],edx
  00404704: A1 C8 FA 40 00     mov         eax,[0040FAC8]
  00404709: 89 45 FC           mov         dword ptr [ebp-4],eax
  0040470C: EB 08              jmp         00404716
  0040470E: 8B 4D FC           mov         ecx,dword ptr [ebp-4]
  00404711: 8B 11              mov         edx,dword ptr [ecx]
  00404713: 89 55 FC           mov         dword ptr [ebp-4],edx
  00404716: 83 7D FC 00        cmp         dword ptr [ebp-4],0
  0040471A: 0F 84 18 02 00 00  je          00404938
  00404720: 8B 45 FC           mov         eax,dword ptr [ebp-4]
  00404723: 3B 45 F8           cmp         eax,dword ptr [ebp-8]
  00404726: 0F 84 0C 02 00 00  je          00404938
  0040472C: 8B 4D FC           mov         ecx,dword ptr [ebp-4]
  0040472F: 8B 51 14           mov         edx,dword ptr [ecx+14h]
  00404732: 81 E2 FF FF 00 00  and         edx,0FFFFh
  00404738: 83 FA 03           cmp         edx,3
  0040473B: 74 2D              je          0040476A
  0040473D: 8B 45 FC           mov         eax,dword ptr [ebp-4]
  00404740: 8B 48 14           mov         ecx,dword ptr [eax+14h]
  00404743: 81 E1 FF FF 00 00  and         ecx,0FFFFh
  00404749: 85 C9              test        ecx,ecx
  0040474B: 74 1D              je          0040476A
  0040474D: 8B 55 FC           mov         edx,dword ptr [ebp-4]
  00404750: 8B 42 14           mov         eax,dword ptr [edx+14h]
  00404753: 25 FF FF 00 00     and         eax,0FFFFh
  00404758: 83 F8 02           cmp         eax,2
  0040475B: 75 12              jne         0040476F
  0040475D: 8B 0D B0 D1 40 00  mov         ecx,dword ptr ds:[0040D1B0h]
  00404763: 83 E1 10           and         ecx,10h
  00404766: 85 C9              test        ecx,ecx
  00404768: 75 05              jne         0040476F
  0040476A: E9 C4 01 00 00     jmp         00404933
  0040476F: 8B 55 FC           mov         edx,dword ptr [ebp-4]
  00404772: 83 7A 08 00        cmp         dword ptr [edx+8],0
  00404776: 74 70              je          004047E8
  00404778: 6A 00              push        0
  0040477A: 6A 01              push        1
  0040477C: 8B 45 FC           mov         eax,dword ptr [ebp-4]
  0040477F: 8B 48 08           mov         ecx,dword ptr [eax+8]
  00404782: 51                 push        ecx
  00404783: E8 58 FC FF FF     call        004043E0
  00404788: 83 C4 0C           add         esp,0Ch
  0040478B: 85 C0              test        eax,eax
  0040478D: 75 2A              jne         004047B9
  0040478F: 8B 55 FC           mov         edx,dword ptr [ebp-4]
  00404792: 8B 42 0C           mov         eax,dword ptr [edx+0Ch]
  00404795: 50                 push        eax
  00404796: 68 60 BC 40 00     push        40BC60h
  0040479B: 6A 00              push        0
  0040479D: 6A 00              push        0
  0040479F: 6A 00              push        0
  004047A1: 6A 00              push        0
  004047A3: E8 B8 CA FF FF     call        00401260
  004047A8: 83 C4 18           add         esp,18h
  004047AB: 83 F8 01           cmp         eax,1
  004047AE: 75 01              jne         004047B1
  004047B0: CC                 int         3
  004047B1: 33 C9              xor         ecx,ecx
  004047B3: 85 C9              test        ecx,ecx
  004047B5: 75 D8              jne         0040478F
  004047B7: EB 2F              jmp         004047E8
  004047B9: 8B 55 FC           mov         edx,dword ptr [ebp-4]
  004047BC: 8B 42 0C           mov         eax,dword ptr [edx+0Ch]
  004047BF: 50                 push        eax
  004047C0: 8B 4D FC           mov         ecx,dword ptr [ebp-4]
  004047C3: 8B 51 08           mov         edx,dword ptr [ecx+8]
  004047C6: 52                 push        edx
  004047C7: 68 54 BC 40 00     push        40BC54h
  004047CC: 6A 00              push        0
  004047CE: 6A 00              push        0
  004047D0: 6A 00              push        0
  004047D2: 6A 00              push        0
  004047D4: E8 87 CA FF FF     call        00401260
  004047D9: 83 C4 1C           add         esp,1Ch
  004047DC: 83 F8 01           cmp         eax,1
  004047DF: 75 01              jne         004047E2
  004047E1: CC                 int         3
  004047E2: 33 C0              xor         eax,eax
  004047E4: 85 C0              test        eax,eax
  004047E6: 75 D1              jne         004047B9
  004047E8: 8B 4D FC           mov         ecx,dword ptr [ebp-4]
  004047EB: 8B 51 18           mov         edx,dword ptr [ecx+18h]
  004047EE: 52                 push        edx
  004047EF: 68 4C BC 40 00     push        40BC4Ch
  004047F4: 6A 00              push        0
  004047F6: 6A 00              push        0
  004047F8: 6A 00              push        0
  004047FA: 6A 00              push        0
  004047FC: E8 5F CA FF FF     call        00401260
  00404801: 83 C4 18           add         esp,18h
  00404804: 83 F8 01           cmp         eax,1
  00404807: 75 01              jne         0040480A
  00404809: CC                 int         3
  0040480A: 33 C0              xor         eax,eax
  0040480C: 85 C0              test        eax,eax
  0040480E: 75 D8              jne         004047E8
  00404810: 8B 4D FC           mov         ecx,dword ptr [ebp-4]
  00404813: 8B 51 14           mov         edx,dword ptr [ecx+14h]
  00404816: 81 E2 FF FF 00 00  and         edx,0FFFFh
  0040481C: 83 FA 04           cmp         edx,4
  0040481F: 75 71              jne         00404892
  00404821: 8B 45 FC           mov         eax,dword ptr [ebp-4]
  00404824: 8B 48 10           mov         ecx,dword ptr [eax+10h]
  00404827: 51                 push        ecx
  00404828: 8B 55 FC           mov         edx,dword ptr [ebp-4]
  0040482B: 8B 42 14           mov         eax,dword ptr [edx+14h]
  0040482E: C1 F8 10           sar         eax,10h
  00404831: 25 FF FF 00 00     and         eax,0FFFFh
  00404836: 50                 push        eax
  00404837: 8B 4D FC           mov         ecx,dword ptr [ebp-4]
  0040483A: 83 C1 20           add         ecx,20h
  0040483D: 51                 push        ecx
  0040483E: 68 18 BC 40 00     push        40BC18h
  00404843: 6A 00              push        0
  00404845: 6A 00              push        0
  00404847: 6A 00              push        0
  00404849: 6A 00              push        0
  0040484B: E8 10 CA FF FF     call        00401260
  00404850: 83 C4 20           add         esp,20h
  00404853: 83 F8 01           cmp         eax,1
  00404856: 75 01              jne         00404859
  00404858: CC                 int         3
  00404859: 33 D2              xor         edx,edx
  0040485B: 85 D2              test        edx,edx
  0040485D: 75 C2              jne         00404821
  0040485F: 83 3D 68 0D 41 00  cmp         dword ptr ds:[00410D68h],0
            00
  00404866: 74 19              je          00404881
  00404868: 8B 45 FC           mov         eax,dword ptr [ebp-4]
  0040486B: 8B 48 10           mov         ecx,dword ptr [eax+10h]
  0040486E: 51                 push        ecx
  0040486F: 8B 55 FC           mov         edx,dword ptr [ebp-4]
  00404872: 83 C2 20           add         edx,20h
  00404875: 52                 push        edx
  00404876: FF 15 68 0D 41 00  call        dword ptr ds:[00410D68h]
  0040487C: 83 C4 08           add         esp,8
  0040487F: EB 0C              jmp         0040488D
  00404881: 8B 45 FC           mov         eax,dword ptr [ebp-4]
  00404884: 50                 push        eax
  00404885: E8 E6 00 00 00     call        00404970
  0040488A: 83 C4 04           add         esp,4
  0040488D: E9 A1 00 00 00     jmp         00404933
  00404892: 8B 4D FC           mov         ecx,dword ptr [ebp-4]
  00404895: 83 79 14 01        cmp         dword ptr [ecx+14h],1
  00404899: 75 3D              jne         004048D8
  0040489B: 8B 55 FC           mov         edx,dword ptr [ebp-4]
  0040489E: 8B 42 10           mov         eax,dword ptr [edx+10h]
  004048A1: 50                 push        eax
  004048A2: 8B 4D FC           mov         ecx,dword ptr [ebp-4]
  004048A5: 83 C1 20           add         ecx,20h
  004048A8: 51                 push        ecx
  004048A9: 68 F0 BB 40 00     push        40BBF0h
  004048AE: 6A 00              push        0
  004048B0: 6A 00              push        0
  004048B2: 6A 00              push        0
  004048B4: 6A 00              push        0
  004048B6: E8 A5 C9 FF FF     call        00401260
  004048BB: 83 C4 1C           add         esp,1Ch
  004048BE: 83 F8 01           cmp         eax,1
  004048C1: 75 01              jne         004048C4
  004048C3: CC                 int         3
  004048C4: 33 D2              xor         edx,edx
  004048C6: 85 D2              test        edx,edx
  004048C8: 75 D1              jne         0040489B
  004048CA: 8B 45 FC           mov         eax,dword ptr [ebp-4]
  004048CD: 50                 push        eax
  004048CE: E8 9D 00 00 00     call        00404970
  004048D3: 83 C4 04           add         esp,4
  004048D6: EB 5B              jmp         00404933
  004048D8: 8B 4D FC           mov         ecx,dword ptr [ebp-4]
  004048DB: 8B 51 14           mov         edx,dword ptr [ecx+14h]
  004048DE: 81 E2 FF FF 00 00  and         edx,0FFFFh
  004048E4: 83 FA 02           cmp         edx,2
  004048E7: 75 4A              jne         00404933
  004048E9: 8B 45 FC           mov         eax,dword ptr [ebp-4]
  004048EC: 8B 48 10           mov         ecx,dword ptr [eax+10h]
  004048EF: 51                 push        ecx
  004048F0: 8B 55 FC           mov         edx,dword ptr [ebp-4]
  004048F3: 8B 42 14           mov         eax,dword ptr [edx+14h]
  004048F6: C1 F8 10           sar         eax,10h
  004048F9: 25 FF FF 00 00     and         eax,0FFFFh
  004048FE: 50                 push        eax
  004048FF: 8B 4D FC           mov         ecx,dword ptr [ebp-4]
  00404902: 83 C1 20           add         ecx,20h
  00404905: 51                 push        ecx
  00404906: 68 BC BB 40 00     push        40BBBCh
  0040490B: 6A 00              push        0
  0040490D: 6A 00              push        0
  0040490F: 6A 00              push        0
  00404911: 6A 00              push        0
  00404913: E8 48 C9 FF FF     call        00401260
  00404918: 83 C4 20           add         esp,20h
  0040491B: 83 F8 01           cmp         eax,1
  0040491E: 75 01              jne         00404921
  00404920: CC                 int         3
  00404921: 33 D2              xor         edx,edx
  00404923: 85 D2              test        edx,edx
  00404925: 75 C2              jne         004048E9
  00404927: 8B 45 FC           mov         eax,dword ptr [ebp-4]
  0040492A: 50                 push        eax
  0040492B: E8 40 00 00 00     call        00404970
  00404930: 83 C4 04           add         esp,4
  00404933: E9 D6 FD FF FF     jmp         0040470E
  00404938: 68 A4 BB 40 00     push        40BBA4h
  0040493D: 68 10 B8 40 00     push        40B810h
  00404942: 6A 00              push        0
  00404944: 6A 00              push        0
  00404946: 6A 00              push        0
  00404948: 6A 00              push        0
  0040494A: E8 11 C9 FF FF     call        00401260
  0040494F: 83 C4 18           add         esp,18h
  00404952: 83 F8 01           cmp         eax,1
  00404955: 75 01              jne         00404958
  00404957: CC                 int         3
  00404958: 33 C9              xor         ecx,ecx
  0040495A: 85 C9              test        ecx,ecx
  0040495C: 75 DA              jne         00404938
  0040495E: 5F                 pop         edi
  0040495F: 5E                 pop         esi
  00404960: 5B                 pop         ebx
  00404961: 8B E5              mov         esp,ebp
  00404963: 5D                 pop         ebp
  00404964: C3                 ret
  00404965: CC                 int         3
  00404966: CC                 int         3
  00404967: CC                 int         3
  00404968: CC                 int         3
  00404969: CC                 int         3
  0040496A: CC                 int         3
  0040496B: CC                 int         3
  0040496C: CC                 int         3
  0040496D: CC                 int         3
  0040496E: CC                 int         3
  0040496F: CC                 int         3
  00404970: 55                 push        ebp
  00404971: 8B EC              mov         ebp,esp
  00404973: 83 EC 5C           sub         esp,5Ch
  00404976: 53                 push        ebx
  00404977: 56                 push        esi
  00404978: 57                 push        edi
  00404979: C7 45 B4 00 00 00  mov         dword ptr [ebp-4Ch],0
            00
  00404980: EB 09              jmp         0040498B
  00404982: 8B 45 B4           mov         eax,dword ptr [ebp-4Ch]
  00404985: 83 C0 01           add         eax,1
  00404988: 89 45 B4           mov         dword ptr [ebp-4Ch],eax
  0040498B: 8B 4D 08           mov         ecx,dword ptr [ebp+8]
  0040498E: 83 79 10 10        cmp         dword ptr [ecx+10h],10h
  00404992: 7D 0B              jge         0040499F
  00404994: 8B 55 08           mov         edx,dword ptr [ebp+8]
  00404997: 8B 42 10           mov         eax,dword ptr [edx+10h]
  0040499A: 89 45 AC           mov         dword ptr [ebp-54h],eax
  0040499D: EB 07              jmp         004049A6
  0040499F: C7 45 AC 10 00 00  mov         dword ptr [ebp-54h],10h
            00
  004049A6: 8B 4D B4           mov         ecx,dword ptr [ebp-4Ch]
  004049A9: 3B 4D AC           cmp         ecx,dword ptr [ebp-54h]
  004049AC: 0F 8D 9A 00 00 00  jge         00404A4C
  004049B2: 8B 55 08           mov         edx,dword ptr [ebp+8]
  004049B5: 03 55 B4           add         edx,dword ptr [ebp-4Ch]
  004049B8: 8A 42 20           mov         al,byte ptr [edx+20h]
  004049BB: 88 45 B0           mov         byte ptr [ebp-50h],al
  004049BE: 83 3D 20 F5 40 00  cmp         dword ptr ds:[0040F520h],1
            01
  004049C5: 7E 1C              jle         004049E3
  004049C7: 68 57 01 00 00     push        157h
  004049CC: 8B 4D B0           mov         ecx,dword ptr [ebp-50h]
  004049CF: 81 E1 FF 00 00 00  and         ecx,0FFh
  004049D5: 51                 push        ecx
  004049D6: E8 45 4A 00 00     call        00409420
  004049DB: 83 C4 08           add         esp,8
  004049DE: 89 45 A8           mov         dword ptr [ebp-58h],eax
  004049E1: EB 1D              jmp         00404A00
  004049E3: 8B 55 B0           mov         edx,dword ptr [ebp-50h]
  004049E6: 81 E2 FF 00 00 00  and         edx,0FFh
  004049EC: A1 14 F3 40 00     mov         eax,[0040F314]
  004049F1: 33 C9              xor         ecx,ecx
  004049F3: 66 8B 0C 50        mov         cx,word ptr [eax+edx*2]
  004049F7: 81 E1 57 01 00 00  and         ecx,157h
  004049FD: 89 4D A8           mov         dword ptr [ebp-58h],ecx
  00404A00: 83 7D A8 00        cmp         dword ptr [ebp-58h],0
  00404A04: 74 0E              je          00404A14
  00404A06: 8B 55 B0           mov         edx,dword ptr [ebp-50h]
  00404A09: 81 E2 FF 00 00 00  and         edx,0FFh
  00404A0F: 89 55 A4           mov         dword ptr [ebp-5Ch],edx
  00404A12: EB 07              jmp         00404A1B
  00404A14: C7 45 A4 20 00 00  mov         dword ptr [ebp-5Ch],20h
            00
  00404A1B: 8B 45 B4           mov         eax,dword ptr [ebp-4Ch]
  00404A1E: 8A 4D A4           mov         cl,byte ptr [ebp-5Ch]
  00404A21: 88 4C 05 B8        mov         byte ptr [ebp+eax-48h],cl
  00404A25: 8B 55 B0           mov         edx,dword ptr [ebp-50h]
  00404A28: 81 E2 FF 00 00 00  and         edx,0FFh
  00404A2E: 52                 push        edx
  00404A2F: 68 98 BC 40 00     push        40BC98h
  00404A34: 8B 45 B4           mov         eax,dword ptr [ebp-4Ch]
  00404A37: 6B C0 03           imul        eax,eax,3
  00404A3A: 8D 4C 05 CC        lea         ecx,[ebp+eax-34h]
  00404A3E: 51                 push        ecx
  00404A3F: E8 DC 48 00 00     call        00409320
  00404A44: 83 C4 0C           add         esp,0Ch
  00404A47: E9 36 FF FF FF     jmp         00404982
  00404A4C: 8B 55 B4           mov         edx,dword ptr [ebp-4Ch]
  00404A4F: C6 44 15 B8 00     mov         byte ptr [ebp+edx-48h],0
  00404A54: 8D 45 CC           lea         eax,[ebp-34h]
  00404A57: 50                 push        eax
  00404A58: 8D 4D B8           lea         ecx,[ebp-48h]
  00404A5B: 51                 push        ecx
  00404A5C: 68 88 BC 40 00     push        40BC88h
  00404A61: 6A 00              push        0
  00404A63: 6A 00              push        0
  00404A65: 6A 00              push        0
  00404A67: 6A 00              push        0
  00404A69: E8 F2 C7 FF FF     call        00401260
  00404A6E: 83 C4 1C           add         esp,1Ch
  00404A71: 83 F8 01           cmp         eax,1
  00404A74: 75 01              jne         00404A77
  00404A76: CC                 int         3
  00404A77: 33 D2              xor         edx,edx
  00404A79: 85 D2              test        edx,edx
  00404A7B: 75 D7              jne         00404A54
  00404A7D: 5F                 pop         edi
  00404A7E: 5E                 pop         esi
  00404A7F: 5B                 pop         ebx
  00404A80: 8B E5              mov         esp,ebp
  00404A82: 5D                 pop         ebp
  00404A83: C3                 ret
  00404A84: CC                 int         3
  00404A85: CC                 int         3
  00404A86: CC                 int         3
  00404A87: CC                 int         3
  00404A88: CC                 int         3
  00404A89: CC                 int         3
  00404A8A: CC                 int         3
  00404A8B: CC                 int         3
  00404A8C: CC                 int         3
  00404A8D: CC                 int         3
  00404A8E: CC                 int         3
  00404A8F: CC                 int         3
  00404A90: 55                 push        ebp
  00404A91: 8B EC              mov         ebp,esp
  00404A93: 83 EC 34           sub         esp,34h
  00404A96: 53                 push        ebx
  00404A97: 56                 push        esi
  00404A98: 57                 push        edi
  00404A99: 8D 45 CC           lea         eax,[ebp-34h]
  00404A9C: 50                 push        eax
  00404A9D: E8 BE FA FF FF     call        00404560
  00404AA2: 83 C4 04           add         esp,4
  00404AA5: 83 7D E0 00        cmp         dword ptr [ebp-20h],0
  00404AA9: 75 19              jne         00404AC4
  00404AAB: 83 7D D4 00        cmp         dword ptr [ebp-2Ch],0
  00404AAF: 75 13              jne         00404AC4
  00404AB1: 8B 0D B0 D1 40 00  mov         ecx,dword ptr ds:[0040D1B0h]
  00404AB7: 83 E1 10           and         ecx,10h
  00404ABA: 85 C9              test        ecx,ecx
  00404ABC: 74 3D              je          00404AFB
  00404ABE: 83 7D D8 00        cmp         dword ptr [ebp-28h],0
  00404AC2: 74 37              je          00404AFB
  00404AC4: 68 A0 BC 40 00     push        40BCA0h
  00404AC9: 68 10 B8 40 00     push        40B810h
  00404ACE: 6A 00              push        0
  00404AD0: 6A 00              push        0
  00404AD2: 6A 00              push        0
  00404AD4: 6A 00              push        0
  00404AD6: E8 85 C7 FF FF     call        00401260
  00404ADB: 83 C4 18           add         esp,18h
  00404ADE: 83 F8 01           cmp         eax,1
  00404AE1: 75 01              jne         00404AE4
  00404AE3: CC                 int         3
  00404AE4: 33 D2              xor         edx,edx
  00404AE6: 85 D2              test        edx,edx
  00404AE8: 75 DA              jne         00404AC4
  00404AEA: 6A 00              push        0
  00404AEC: E8 CF FB FF FF     call        004046C0
  00404AF1: 83 C4 04           add         esp,4
  00404AF4: B8 01 00 00 00     mov         eax,1
  00404AF9: EB 02              jmp         00404AFD
  00404AFB: 33 C0              xor         eax,eax
  00404AFD: 5F                 pop         edi
  00404AFE: 5E                 pop         esi
  00404AFF: 5B                 pop         ebx
  00404B00: 8B E5              mov         esp,ebp
  00404B02: 5D                 pop         ebp
  00404B03: C3                 ret
  00404B04: CC                 int         3
  00404B05: CC                 int         3
  00404B06: CC                 int         3
  00404B07: CC                 int         3
  00404B08: CC                 int         3
  00404B09: CC                 int         3
  00404B0A: CC                 int         3
  00404B0B: CC                 int         3
  00404B0C: CC                 int         3
  00404B0D: CC                 int         3
  00404B0E: CC                 int         3
  00404B0F: CC                 int         3
  00404B10: 55                 push        ebp
  00404B11: 8B EC              mov         ebp,esp
  00404B13: 83 EC 28           sub         esp,28h
  00404B16: 8B 45 08           mov         eax,dword ptr [ebp+8]
  00404B19: 50                 push        eax
  00404B1A: E8 F1 02 00 00     call        00404E10
  00404B1F: 83 C4 04           add         esp,4
  00404B22: 89 45 08           mov         dword ptr [ebp+8],eax
  00404B25: 8B 4D 08           mov         ecx,dword ptr [ebp+8]
  00404B28: 3B 0D 40 0B 41 00  cmp         ecx,dword ptr ds:[00410B40h]
  00404B2E: 75 07              jne         00404B37
  00404B30: 33 C0              xor         eax,eax
  00404B32: E9 D3 02 00 00     jmp         00404E0A
  00404B37: 83 7D 08 00        cmp         dword ptr [ebp+8],0
  00404B3B: 75 11              jne         00404B4E
  00404B3D: E8 AE 03 00 00     call        00404EF0
  00404B42: E8 29 04 00 00     call        00404F70
  00404B47: 33 C0              xor         eax,eax
  00404B49: E9 BC 02 00 00     jmp         00404E0A
  00404B4E: C7 45 FC 00 00 00  mov         dword ptr [ebp-4],0
            00
  00404B55: EB 09              jmp         00404B60
  00404B57: 8B 55 FC           mov         edx,dword ptr [ebp-4]
  00404B5A: 83 C2 01           add         edx,1
  00404B5D: 89 55 FC           mov         dword ptr [ebp-4],edx
  00404B60: 83 7D FC 05        cmp         dword ptr [ebp-4],5
  00404B64: 0F 83 3D 01 00 00  jae         00404CA7
  00404B6A: 8B 45 FC           mov         eax,dword ptr [ebp-4]
  00404B6D: 6B C0 30           imul        eax,eax,30h
  00404B70: 8B 88 E0 D1 40 00  mov         ecx,dword ptr [eax+0040D1E0h]
  00404B76: 3B 4D 08           cmp         ecx,dword ptr [ebp+8]
  00404B79: 0F 85 23 01 00 00  jne         00404CA2
  00404B7F: C7 45 DC 00 00 00  mov         dword ptr [ebp-24h],0
            00
  00404B86: EB 09              jmp         00404B91
  00404B88: 8B 55 DC           mov         edx,dword ptr [ebp-24h]
  00404B8B: 83 C2 01           add         edx,1
  00404B8E: 89 55 DC           mov         dword ptr [ebp-24h],edx
  00404B91: 81 7D DC 01 01 00  cmp         dword ptr [ebp-24h],101h
            00
  00404B98: 73 0C              jae         00404BA6
  00404B9A: 8B 45 DC           mov         eax,dword ptr [ebp-24h]
  00404B9D: C6 80 60 0C 41 00  mov         byte ptr [eax+00410C60h],0
            00
  00404BA4: EB E2              jmp         00404B88
  00404BA6: C7 45 F4 00 00 00  mov         dword ptr [ebp-0Ch],0
            00
  00404BAD: EB 09              jmp         00404BB8
  00404BAF: 8B 4D F4           mov         ecx,dword ptr [ebp-0Ch]
  00404BB2: 83 C1 01           add         ecx,1
  00404BB5: 89 4D F4           mov         dword ptr [ebp-0Ch],ecx
  00404BB8: 83 7D F4 04        cmp         dword ptr [ebp-0Ch],4
  00404BBC: 73 7B              jae         00404C39
  00404BBE: 8B 55 FC           mov         edx,dword ptr [ebp-4]
  00404BC1: 6B D2 30           imul        edx,edx,30h
  00404BC4: 8B 45 F4           mov         eax,dword ptr [ebp-0Ch]
  00404BC7: 8D 8C C2 F0 D1 40  lea         ecx,[edx+eax*8+0040D1F0h]
            00
  00404BCE: 89 4D F8           mov         dword ptr [ebp-8],ecx
  00404BD1: EB 09              jmp         00404BDC
  00404BD3: 8B 55 F8           mov         edx,dword ptr [ebp-8]
  00404BD6: 83 C2 02           add         edx,2
  00404BD9: 89 55 F8           mov         dword ptr [ebp-8],edx
  00404BDC: 8B 45 F8           mov         eax,dword ptr [ebp-8]
  00404BDF: 33 C9              xor         ecx,ecx
  00404BE1: 8A 08              mov         cl,byte ptr [eax]
  00404BE3: 85 C9              test        ecx,ecx
  00404BE5: 74 4D              je          00404C34
  00404BE7: 8B 55 F8           mov         edx,dword ptr [ebp-8]
  00404BEA: 33 C0              xor         eax,eax
  00404BEC: 8A 42 01           mov         al,byte ptr [edx+1]
  00404BEF: 85 C0              test        eax,eax
  00404BF1: 74 41              je          00404C34
  00404BF3: 8B 4D F8           mov         ecx,dword ptr [ebp-8]
  00404BF6: 33 D2              xor         edx,edx
  00404BF8: 8A 11              mov         dl,byte ptr [ecx]
  00404BFA: 89 55 DC           mov         dword ptr [ebp-24h],edx
  00404BFD: EB 09              jmp         00404C08
  00404BFF: 8B 45 DC           mov         eax,dword ptr [ebp-24h]
  00404C02: 83 C0 01           add         eax,1
  00404C05: 89 45 DC           mov         dword ptr [ebp-24h],eax
  00404C08: 8B 4D F8           mov         ecx,dword ptr [ebp-8]
  00404C0B: 33 D2              xor         edx,edx
  00404C0D: 8A 51 01           mov         dl,byte ptr [ecx+1]
  00404C10: 39 55 DC           cmp         dword ptr [ebp-24h],edx
  00404C13: 77 1D              ja          00404C32
  00404C15: 8B 45 DC           mov         eax,dword ptr [ebp-24h]
  00404C18: 8B 4D F4           mov         ecx,dword ptr [ebp-0Ch]
  00404C1B: 8A 90 61 0C 41 00  mov         dl,byte ptr [eax+00410C61h]
  00404C21: 0A 91 D8 D1 40 00  or          dl,byte ptr [ecx+0040D1D8h]
  00404C27: 8B 45 DC           mov         eax,dword ptr [ebp-24h]
  00404C2A: 88 90 61 0C 41 00  mov         byte ptr [eax+00410C61h],dl
  00404C30: EB CD              jmp         00404BFF
  00404C32: EB 9F              jmp         00404BD3
  00404C34: E9 76 FF FF FF     jmp         00404BAF
  00404C39: 8B 4D 08           mov         ecx,dword ptr [ebp+8]
  00404C3C: 89 0D 40 0B 41 00  mov         dword ptr ds:[00410B40h],ecx
  00404C42: C7 05 5C 0B 41 00  mov         dword ptr ds:[00410B5Ch],1
            01 00 00 00
  00404C4C: 8B 15 40 0B 41 00  mov         edx,dword ptr ds:[00410B40h]
  00404C52: 52                 push        edx
  00404C53: E8 18 02 00 00     call        00404E70
  00404C58: 83 C4 04           add         esp,4
  00404C5B: A3 64 0D 41 00     mov         [00410D64],eax
  00404C60: C7 45 F4 00 00 00  mov         dword ptr [ebp-0Ch],0
            00
  00404C67: EB 09              jmp         00404C72
  00404C69: 8B 45 F4           mov         eax,dword ptr [ebp-0Ch]
  00404C6C: 83 C0 01           add         eax,1
  00404C6F: 89 45 F4           mov         dword ptr [ebp-0Ch],eax
  00404C72: 83 7D F4 06        cmp         dword ptr [ebp-0Ch],6
  00404C76: 73 1E              jae         00404C96
  00404C78: 8B 4D FC           mov         ecx,dword ptr [ebp-4]
  00404C7B: 6B C9 30           imul        ecx,ecx,30h
  00404C7E: 8B 55 F4           mov         edx,dword ptr [ebp-0Ch]
  00404C81: 8B 45 F4           mov         eax,dword ptr [ebp-0Ch]
  00404C84: 66 8B 8C 41 E4 D1  mov         cx,word ptr [ecx+eax*2+0040D1E4h]
            40 00
  00404C8C: 66 89 0C 55 50 0B  mov         word ptr [edx*2+00410B50h],cx
            41 00
  00404C94: EB D3              jmp         00404C69
  00404C96: E8 D5 02 00 00     call        00404F70
  00404C9B: 33 C0              xor         eax,eax
  00404C9D: E9 68 01 00 00     jmp         00404E0A
  00404CA2: E9 B0 FE FF FF     jmp         00404B57
  00404CA7: 8D 55 E0           lea         edx,[ebp-20h]
  00404CAA: 52                 push        edx
  00404CAB: 8B 45 08           mov         eax,dword ptr [ebp+8]
  00404CAE: 50                 push        eax
  00404CAF: FF 15 8C B0 40 00  call        dword ptr ds:[0040B08Ch]
  00404CB5: 83 F8 01           cmp         eax,1
  00404CB8: 0F 85 32 01 00 00  jne         00404DF0
  00404CBE: C7 45 DC 00 00 00  mov         dword ptr [ebp-24h],0
            00
  00404CC5: EB 09              jmp         00404CD0
  00404CC7: 8B 4D DC           mov         ecx,dword ptr [ebp-24h]
  00404CCA: 83 C1 01           add         ecx,1
  00404CCD: 89 4D DC           mov         dword ptr [ebp-24h],ecx
  00404CD0: 81 7D DC 01 01 00  cmp         dword ptr [ebp-24h],101h
            00
  00404CD7: 73 0C              jae         00404CE5
  00404CD9: 8B 55 DC           mov         edx,dword ptr [ebp-24h]
  00404CDC: C6 82 60 0C 41 00  mov         byte ptr [edx+00410C60h],0
            00
  00404CE3: EB E2              jmp         00404CC7
  00404CE5: 8B 45 08           mov         eax,dword ptr [ebp+8]
  00404CE8: A3 40 0B 41 00     mov         [00410B40],eax
  00404CED: C7 05 64 0D 41 00  mov         dword ptr ds:[00410D64h],0
            00 00 00 00
  00404CF7: 83 7D E0 01        cmp         dword ptr [ebp-20h],1
  00404CFB: 0F 86 B5 00 00 00  jbe         00404DB6
  00404D01: 8D 4D E6           lea         ecx,[ebp-1Ah]
  00404D04: 89 4D D8           mov         dword ptr [ebp-28h],ecx
  00404D07: EB 09              jmp         00404D12
  00404D09: 8B 55 D8           mov         edx,dword ptr [ebp-28h]
  00404D0C: 83 C2 02           add         edx,2
  00404D0F: 89 55 D8           mov         dword ptr [ebp-28h],edx
  00404D12: 8B 45 D8           mov         eax,dword ptr [ebp-28h]
  00404D15: 33 C9              xor         ecx,ecx
  00404D17: 8A 08              mov         cl,byte ptr [eax]
  00404D19: 85 C9              test        ecx,ecx
  00404D1B: 74 47              je          00404D64
  00404D1D: 8B 55 D8           mov         edx,dword ptr [ebp-28h]
  00404D20: 33 C0              xor         eax,eax
  00404D22: 8A 42 01           mov         al,byte ptr [edx+1]
  00404D25: 85 C0              test        eax,eax
  00404D27: 74 3B              je          00404D64
  00404D29: 8B 4D D8           mov         ecx,dword ptr [ebp-28h]
  00404D2C: 33 D2              xor         edx,edx
  00404D2E: 8A 11              mov         dl,byte ptr [ecx]
  00404D30: 89 55 DC           mov         dword ptr [ebp-24h],edx
  00404D33: EB 09              jmp         00404D3E
  00404D35: 8B 45 DC           mov         eax,dword ptr [ebp-24h]
  00404D38: 83 C0 01           add         eax,1
  00404D3B: 89 45 DC           mov         dword ptr [ebp-24h],eax
  00404D3E: 8B 4D D8           mov         ecx,dword ptr [ebp-28h]
  00404D41: 33 D2              xor         edx,edx
  00404D43: 8A 51 01           mov         dl,byte ptr [ecx+1]
  00404D46: 39 55 DC           cmp         dword ptr [ebp-24h],edx
  00404D49: 77 17              ja          00404D62
  00404D4B: 8B 45 DC           mov         eax,dword ptr [ebp-24h]
  00404D4E: 8A 88 61 0C 41 00  mov         cl,byte ptr [eax+00410C61h]
  00404D54: 80 C9 04           or          cl,4
  00404D57: 8B 55 DC           mov         edx,dword ptr [ebp-24h]
  00404D5A: 88 8A 61 0C 41 00  mov         byte ptr [edx+00410C61h],cl
  00404D60: EB D3              jmp         00404D35
  00404D62: EB A5              jmp         00404D09
  00404D64: C7 45 DC 01 00 00  mov         dword ptr [ebp-24h],1
            00
  00404D6B: EB 09              jmp         00404D76
  00404D6D: 8B 45 DC           mov         eax,dword ptr [ebp-24h]
  00404D70: 83 C0 01           add         eax,1
  00404D73: 89 45 DC           mov         dword ptr [ebp-24h],eax
  00404D76: 81 7D DC FF 00 00  cmp         dword ptr [ebp-24h],0FFh
            00
  00404D7D: 73 17              jae         00404D96
  00404D7F: 8B 4D DC           mov         ecx,dword ptr [ebp-24h]
  00404D82: 8A 91 61 0C 41 00  mov         dl,byte ptr [ecx+00410C61h]
  00404D88: 80 CA 08           or          dl,8
  00404D8B: 8B 45 DC           mov         eax,dword ptr [ebp-24h]
  00404D8E: 88 90 61 0C 41 00  mov         byte ptr [eax+00410C61h],dl
  00404D94: EB D7              jmp         00404D6D
  00404D96: 8B 0D 40 0B 41 00  mov         ecx,dword ptr ds:[00410B40h]
  00404D9C: 51                 push        ecx
  00404D9D: E8 CE 00 00 00     call        00404E70
  00404DA2: 83 C4 04           add         esp,4
  00404DA5: A3 64 0D 41 00     mov         [00410D64],eax
  00404DAA: C7 05 5C 0B 41 00  mov         dword ptr ds:[00410B5Ch],1
            01 00 00 00
  00404DB4: EB 0A              jmp         00404DC0
  00404DB6: C7 05 5C 0B 41 00  mov         dword ptr ds:[00410B5Ch],0
            00 00 00 00
  00404DC0: C7 45 F4 00 00 00  mov         dword ptr [ebp-0Ch],0
            00
  00404DC7: EB 09              jmp         00404DD2
  00404DC9: 8B 55 F4           mov         edx,dword ptr [ebp-0Ch]
  00404DCC: 83 C2 01           add         edx,1
  00404DCF: 89 55 F4           mov         dword ptr [ebp-0Ch],edx
  00404DD2: 83 7D F4 06        cmp         dword ptr [ebp-0Ch],6
  00404DD6: 73 0F              jae         00404DE7
  00404DD8: 8B 45 F4           mov         eax,dword ptr [ebp-0Ch]
  00404DDB: 66 C7 04 45 50 0B  mov         word ptr [eax*2+00410B50h],0
            41 00 00 00
  00404DE5: EB E2              jmp         00404DC9
  00404DE7: E8 84 01 00 00     call        00404F70
  00404DEC: 33 C0              xor         eax,eax
  00404DEE: EB 1A              jmp         00404E0A
  00404DF0: 83 3D D4 FA 40 00  cmp         dword ptr ds:[0040FAD4h],0
            00
  00404DF7: 74 0E              je          00404E07
  00404DF9: E8 F2 00 00 00     call        00404EF0
  00404DFE: E8 6D 01 00 00     call        00404F70
  00404E03: 33 C0              xor         eax,eax
  00404E05: EB 03              jmp         00404E0A
  00404E07: 83 C8 FF           or          eax,0FFh
  00404E0A: 8B E5              mov         esp,ebp
  00404E0C: 5D                 pop         ebp
  00404E0D: C3                 ret
  00404E0E: CC                 int         3
  00404E0F: CC                 int         3
  00404E10: 55                 push        ebp
  00404E11: 8B EC              mov         ebp,esp
  00404E13: C7 05 D4 FA 40 00  mov         dword ptr ds:[0040FAD4h],0
            00 00 00 00
  00404E1D: 83 7D 08 FE        cmp         dword ptr [ebp+8],0FEh
  00404E21: 75 12              jne         00404E35
  00404E23: C7 05 D4 FA 40 00  mov         dword ptr ds:[0040FAD4h],1
            01 00 00 00
  00404E2D: FF 15 94 B0 40 00  call        dword ptr ds:[0040B094h]
  00404E33: EB 32              jmp         00404E67
  00404E35: 83 7D 08 FD        cmp         dword ptr [ebp+8],0FDh
  00404E39: 75 12              jne         00404E4D
  00404E3B: C7 05 D4 FA 40 00  mov         dword ptr ds:[0040FAD4h],1
            01 00 00 00
  00404E45: FF 15 90 B0 40 00  call        dword ptr ds:[0040B090h]
  00404E4B: EB 1A              jmp         00404E67
  00404E4D: 83 7D 08 FC        cmp         dword ptr [ebp+8],0FCh
  00404E51: 75 11              jne         00404E64
  00404E53: C7 05 D4 FA 40 00  mov         dword ptr ds:[0040FAD4h],1
            01 00 00 00
  00404E5D: A1 FC FA 40 00     mov         eax,[0040FAFC]
  00404E62: EB 03              jmp         00404E67
  00404E64: 8B 45 08           mov         eax,dword ptr [ebp+8]
  00404E67: 5D                 pop         ebp
  00404E68: C3                 ret
  00404E69: CC                 int         3
  00404E6A: CC                 int         3
  00404E6B: CC                 int         3
  00404E6C: CC                 int         3
  00404E6D: CC                 int         3
  00404E6E: CC                 int         3
  00404E6F: CC                 int         3
  00404E70: 55                 push        ebp
  00404E71: 8B EC              mov         ebp,esp
  00404E73: 51                 push        ecx
  00404E74: 8B 45 08           mov         eax,dword ptr [ebp+8]
  00404E77: 89 45 FC           mov         dword ptr [ebp-4],eax
  00404E7A: 8B 4D FC           mov         ecx,dword ptr [ebp-4]
  00404E7D: 81 E9 A4 03 00 00  sub         ecx,3A4h
  00404E83: 89 4D FC           mov         dword ptr [ebp-4],ecx
  00404E86: 83 7D FC 12        cmp         dword ptr [ebp-4],12h
  00404E8A: 77 2E              ja          00404EBA
  00404E8C: 8B 45 FC           mov         eax,dword ptr [ebp-4]
  00404E8F: 33 D2              xor         edx,edx
  00404E91: 8A 90 D4 4E 40 00  mov         dl,byte ptr [eax+00404ED4h]
  00404E97: FF 24 95 C0 4E 40  jmp         dword ptr [edx*4+00404EC0h]
            00
  00404E9E: B8 11 04 00 00     mov         eax,411h
  00404EA3: EB 17              jmp         00404EBC
  00404EA5: B8 04 08 00 00     mov         eax,804h
  00404EAA: EB 10              jmp         00404EBC
  00404EAC: B8 12 04 00 00     mov         eax,412h
  00404EB1: EB 09              jmp         00404EBC
  00404EB3: B8 04 04 00 00     mov         eax,404h
  00404EB8: EB 02              jmp         00404EBC
  00404EBA: 33 C0              xor         eax,eax
  00404EBC: 8B E5              mov         esp,ebp
  00404EBE: 5D                 pop         ebp
  00404EBF: C3                 ret
  00404EC0: 9E                 sahf
  00404EC1: 4E                 dec         esi
  00404EC2: 40                 inc         eax
  00404EC3: 00 A5 4E 40 00 AC  add         byte ptr [ebp+AC00404Eh],ah
  00404EC9: 4E                 dec         esi
  00404ECA: 40                 inc         eax
  00404ECB: 00 B3 4E 40 00 BA  add         byte ptr [ebx+BA00404Eh],dh
  00404ED1: 4E                 dec         esi
  00404ED2: 40                 inc         eax
  00404ED3: 00 00              add         byte ptr [eax],al
  00404ED5: 04 04              add         al,4
  00404ED7: 04 01              add         al,1
  00404ED9: 04 04              add         al,4
  00404EDB: 04 04              add         al,4
  00404EDD: 04 04              add         al,4
  00404EDF: 04 04              add         al,4
  00404EE1: 04 04              add         al,4
  00404EE3: 04 04              add         al,4
  00404EE5: 02 03              add         al,byte ptr [ebx]
  00404EE7: CC                 int         3
  00404EE8: CC                 int         3
  00404EE9: CC                 int         3
  00404EEA: CC                 int         3
  00404EEB: CC                 int         3
  00404EEC: CC                 int         3
  00404EED: CC                 int         3
  00404EEE: CC                 int         3
  00404EEF: CC                 int         3
  00404EF0: 55                 push        ebp
  00404EF1: 8B EC              mov         ebp,esp
  00404EF3: 51                 push        ecx
  00404EF4: C7 45 FC 00 00 00  mov         dword ptr [ebp-4],0
            00
  00404EFB: EB 09              jmp         00404F06
  00404EFD: 8B 45 FC           mov         eax,dword ptr [ebp-4]
  00404F00: 83 C0 01           add         eax,1
  00404F03: 89 45 FC           mov         dword ptr [ebp-4],eax
  00404F06: 81 7D FC 01 01 00  cmp         dword ptr [ebp-4],101h
            00
  00404F0D: 7D 0C              jge         00404F1B
  00404F0F: 8B 4D FC           mov         ecx,dword ptr [ebp-4]
  00404F12: C6 81 60 0C 41 00  mov         byte ptr [ecx+00410C60h],0
            00
  00404F19: EB E2              jmp         00404EFD
  00404F1B: C7 05 40 0B 41 00  mov         dword ptr ds:[00410B40h],0
            00 00 00 00
  00404F25: C7 05 5C 0B 41 00  mov         dword ptr ds:[00410B5Ch],0
            00 00 00 00
  00404F2F: C7 05 64 0D 41 00  mov         dword ptr ds:[00410D64h],0
            00 00 00 00
  00404F39: C7 45 FC 00 00 00  mov         dword ptr [ebp-4],0
            00
  00404F40: EB 09              jmp         00404F4B
  00404F42: 8B 55 FC           mov         edx,dword ptr [ebp-4]
  00404F45: 83 C2 01           add         edx,1
  00404F48: 89 55 FC           mov         dword ptr [ebp-4],edx
  00404F4B: 83 7D FC 06        cmp         dword ptr [ebp-4],6
  00404F4F: 7D 0F              jge         00404F60
  00404F51: 8B 45 FC           mov         eax,dword ptr [ebp-4]
  00404F54: 66 C7 04 45 50 0B  mov         word ptr [eax*2+00410B50h],0
            41 00 00 00
  00404F5E: EB E2              jmp         00404F42
  00404F60: 8B E5              mov         esp,ebp
  00404F62: 5D                 pop         ebp
  00404F63: C3                 ret
  00404F64: CC                 int         3
  00404F65: CC                 int         3
  00404F66: CC                 int         3
  00404F67: CC                 int         3
  00404F68: CC                 int         3
  00404F69: CC                 int         3
  00404F6A: CC                 int         3
  00404F6B: CC                 int         3
  00404F6C: CC                 int         3
  00404F6D: CC                 int         3
  00404F6E: CC                 int         3
  00404F6F: CC                 int         3
  00404F70: 55                 push        ebp
  00404F71: 8B EC              mov         ebp,esp
  00404F73: 81 EC 1C 05 00 00  sub         esp,51Ch
  00404F79: 8D 85 E8 FC FF FF  lea         eax,[ebp+FFFFFCE8h]
  00404F7F: 50                 push        eax
  00404F80: 8B 0D 40 0B 41 00  mov         ecx,dword ptr ds:[00410B40h]
  00404F86: 51                 push        ecx
  00404F87: FF 15 8C B0 40 00  call        dword ptr ds:[0040B08Ch]
  00404F8D: 83 F8 01           cmp         eax,1
  00404F90: 0F 85 13 02 00 00  jne         004051A9
  00404F96: C7 85 E4 FA FF FF  mov         dword ptr [ebp+FFFFFAE4h],0
            00 00 00 00
  00404FA0: EB 0F              jmp         00404FB1
  00404FA2: 8B 95 E4 FA FF FF  mov         edx,dword ptr [ebp+FFFFFAE4h]
  00404FA8: 83 C2 01           add         edx,1
  00404FAB: 89 95 E4 FA FF FF  mov         dword ptr [ebp+FFFFFAE4h],edx
  00404FB1: 81 BD E4 FA FF FF  cmp         dword ptr [ebp+FFFFFAE4h],100h
            00 01 00 00
  00404FBB: 73 15              jae         00404FD2
  00404FBD: 8B 85 E4 FA FF FF  mov         eax,dword ptr [ebp+FFFFFAE4h]
  00404FC3: 8A 8D E4 FA FF FF  mov         cl,byte ptr [ebp+FFFFFAE4h]
  00404FC9: 88 8C 05 FC FC FF  mov         byte ptr [ebp+eax+FFFFFCFCh],cl
            FF
  00404FD0: EB D0              jmp         00404FA2
  00404FD2: C6 85 FC FC FF FF  mov         byte ptr [ebp+FFFFFCFCh],20h
            20
  00404FD9: 8D 95 EE FC FF FF  lea         edx,[ebp+FFFFFCEEh]
  00404FDF: 89 55 FC           mov         dword ptr [ebp-4],edx
  00404FE2: EB 09              jmp         00404FED
  00404FE4: 8B 45 FC           mov         eax,dword ptr [ebp-4]
  00404FE7: 83 C0 02           add         eax,2
  00404FEA: 89 45 FC           mov         dword ptr [ebp-4],eax
  00404FED: 8B 4D FC           mov         ecx,dword ptr [ebp-4]
  00404FF0: 33 D2              xor         edx,edx
  00404FF2: 8A 11              mov         dl,byte ptr [ecx]
  00404FF4: 85 D2              test        edx,edx
  00404FF6: 74 40              je          00405038
  00404FF8: 8B 45 FC           mov         eax,dword ptr [ebp-4]
  00404FFB: 33 C9              xor         ecx,ecx
  00404FFD: 8A 08              mov         cl,byte ptr [eax]
  00404FFF: 89 8D E4 FA FF FF  mov         dword ptr [ebp+FFFFFAE4h],ecx
  00405005: EB 0F              jmp         00405016
  00405007: 8B 95 E4 FA FF FF  mov         edx,dword ptr [ebp+FFFFFAE4h]
  0040500D: 83 C2 01           add         edx,1
  00405010: 89 95 E4 FA FF FF  mov         dword ptr [ebp+FFFFFAE4h],edx
  00405016: 8B 45 FC           mov         eax,dword ptr [ebp-4]
  00405019: 33 C9              xor         ecx,ecx
  0040501B: 8A 48 01           mov         cl,byte ptr [eax+1]
  0040501E: 39 8D E4 FA FF FF  cmp         dword ptr [ebp+FFFFFAE4h],ecx
  00405024: 77 10              ja          00405036
  00405026: 8B 95 E4 FA FF FF  mov         edx,dword ptr [ebp+FFFFFAE4h]
  0040502C: C6 84 15 FC FC FF  mov         byte ptr [ebp+edx+FFFFFCFCh],20h
            FF 20
  00405034: EB D1              jmp         00405007
  00405036: EB AC              jmp         00404FE4
  00405038: 6A 00              push        0
  0040503A: A1 64 0D 41 00     mov         eax,[00410D64]
  0040503F: 50                 push        eax
  00405040: 8B 0D 40 0B 41 00  mov         ecx,dword ptr ds:[00410B40h]
  00405046: 51                 push        ecx
  00405047: 8D 95 FC FD FF FF  lea         edx,[ebp+FFFFFDFCh]
  0040504D: 52                 push        edx
  0040504E: 68 00 01 00 00     push        100h
  00405053: 8D 85 FC FC FF FF  lea         eax,[ebp+FFFFFCFCh]
  00405059: 50                 push        eax
  0040505A: 6A 01              push        1
  0040505C: E8 DF 47 00 00     call        00409840
  00405061: 83 C4 1C           add         esp,1Ch
  00405064: 6A 00              push        0
  00405066: 8B 0D 40 0B 41 00  mov         ecx,dword ptr ds:[00410B40h]
  0040506C: 51                 push        ecx
  0040506D: 68 00 01 00 00     push        100h
  00405072: 8D 95 E8 FB FF FF  lea         edx,[ebp+FFFFFBE8h]
  00405078: 52                 push        edx
  00405079: 68 00 01 00 00     push        100h
  0040507E: 8D 85 FC FC FF FF  lea         eax,[ebp+FFFFFCFCh]
  00405084: 50                 push        eax
  00405085: 68 00 01 00 00     push        100h
  0040508A: 8B 0D 64 0D 41 00  mov         ecx,dword ptr ds:[00410D64h]
  00405090: 51                 push        ecx
  00405091: E8 4A 44 00 00     call        004094E0
  00405096: 83 C4 20           add         esp,20h
  00405099: 6A 00              push        0
  0040509B: 8B 15 40 0B 41 00  mov         edx,dword ptr ds:[00410B40h]
  004050A1: 52                 push        edx
  004050A2: 68 00 01 00 00     push        100h
  004050A7: 8D 85 E8 FA FF FF  lea         eax,[ebp+FFFFFAE8h]
  004050AD: 50                 push        eax
  004050AE: 68 00 01 00 00     push        100h
  004050B3: 8D 8D FC FC FF FF  lea         ecx,[ebp+FFFFFCFCh]
  004050B9: 51                 push        ecx
  004050BA: 68 00 02 00 00     push        200h
  004050BF: 8B 15 64 0D 41 00  mov         edx,dword ptr ds:[00410D64h]
  004050C5: 52                 push        edx
  004050C6: E8 15 44 00 00     call        004094E0
  004050CB: 83 C4 20           add         esp,20h
  004050CE: C7 85 E4 FA FF FF  mov         dword ptr [ebp+FFFFFAE4h],0
            00 00 00 00
  004050D8: EB 0F              jmp         004050E9
  004050DA: 8B 85 E4 FA FF FF  mov         eax,dword ptr [ebp+FFFFFAE4h]
  004050E0: 83 C0 01           add         eax,1
  004050E3: 89 85 E4 FA FF FF  mov         dword ptr [ebp+FFFFFAE4h],eax
  004050E9: 81 BD E4 FA FF FF  cmp         dword ptr [ebp+FFFFFAE4h],100h
            00 01 00 00
  004050F3: 0F 83 AB 00 00 00  jae         004051A4
  004050F9: 8B 8D E4 FA FF FF  mov         ecx,dword ptr [ebp+FFFFFAE4h]
  004050FF: 33 D2              xor         edx,edx
  00405101: 66 8B 94 4D FC FD  mov         dx,word ptr [ebp+ecx*2+FFFFFDFCh]
            FF FF
  00405109: 83 E2 01           and         edx,1
  0040510C: 85 D2              test        edx,edx
  0040510E: 74 36              je          00405146
  00405110: 8B 85 E4 FA FF FF  mov         eax,dword ptr [ebp+FFFFFAE4h]
  00405116: 8A 88 61 0C 41 00  mov         cl,byte ptr [eax+00410C61h]
  0040511C: 80 C9 10           or          cl,10h
  0040511F: 8B 95 E4 FA FF FF  mov         edx,dword ptr [ebp+FFFFFAE4h]
  00405125: 88 8A 61 0C 41 00  mov         byte ptr [edx+00410C61h],cl
  0040512B: 8B 85 E4 FA FF FF  mov         eax,dword ptr [ebp+FFFFFAE4h]
  00405131: 8B 8D E4 FA FF FF  mov         ecx,dword ptr [ebp+FFFFFAE4h]
  00405137: 8A 94 0D E8 FB FF  mov         dl,byte ptr [ebp+ecx+FFFFFBE8h]
            FF
  0040513E: 88 90 60 0B 41 00  mov         byte ptr [eax+00410B60h],dl
  00405144: EB 59              jmp         0040519F
  00405146: 8B 85 E4 FA FF FF  mov         eax,dword ptr [ebp+FFFFFAE4h]
  0040514C: 33 C9              xor         ecx,ecx
  0040514E: 66 8B 8C 45 FC FD  mov         cx,word ptr [ebp+eax*2+FFFFFDFCh]
            FF FF
  00405156: 83 E1 02           and         ecx,2
  00405159: 85 C9              test        ecx,ecx
  0040515B: 74 35              je          00405192
  0040515D: 8B 95 E4 FA FF FF  mov         edx,dword ptr [ebp+FFFFFAE4h]
  00405163: 8A 82 61 0C 41 00  mov         al,byte ptr [edx+00410C61h]
  00405169: 0C 20              or          al,20h
  0040516B: 8B 8D E4 FA FF FF  mov         ecx,dword ptr [ebp+FFFFFAE4h]
  00405171: 88 81 61 0C 41 00  mov         byte ptr [ecx+00410C61h],al
  00405177: 8B 95 E4 FA FF FF  mov         edx,dword ptr [ebp+FFFFFAE4h]
  0040517D: 8B 85 E4 FA FF FF  mov         eax,dword ptr [ebp+FFFFFAE4h]
  00405183: 8A 8C 05 E8 FA FF  mov         cl,byte ptr [ebp+eax+FFFFFAE8h]
            FF
  0040518A: 88 8A 60 0B 41 00  mov         byte ptr [edx+00410B60h],cl
  00405190: EB 0D              jmp         0040519F
  00405192: 8B 95 E4 FA FF FF  mov         edx,dword ptr [ebp+FFFFFAE4h]
  00405198: C6 82 60 0B 41 00  mov         byte ptr [edx+00410B60h],0
            00
  0040519F: E9 36 FF FF FF     jmp         004050DA
  004051A4: E9 C5 00 00 00     jmp         0040526E
  004051A9: C7 85 E4 FA FF FF  mov         dword ptr [ebp+FFFFFAE4h],0
            00 00 00 00
  004051B3: EB 0F              jmp         004051C4
  004051B5: 8B 85 E4 FA FF FF  mov         eax,dword ptr [ebp+FFFFFAE4h]
  004051BB: 83 C0 01           add         eax,1
  004051BE: 89 85 E4 FA FF FF  mov         dword ptr [ebp+FFFFFAE4h],eax
  004051C4: 81 BD E4 FA FF FF  cmp         dword ptr [ebp+FFFFFAE4h],100h
            00 01 00 00
  004051CE: 0F 83 9A 00 00 00  jae         0040526E
  004051D4: 83 BD E4 FA FF FF  cmp         dword ptr [ebp+FFFFFAE4h],41h
            41
  004051DB: 72 3B              jb          00405218
  004051DD: 83 BD E4 FA FF FF  cmp         dword ptr [ebp+FFFFFAE4h],5Ah
            5A
  004051E4: 77 32              ja          00405218
  004051E6: 8B 8D E4 FA FF FF  mov         ecx,dword ptr [ebp+FFFFFAE4h]
  004051EC: 8A 91 61 0C 41 00  mov         dl,byte ptr [ecx+00410C61h]
  004051F2: 80 CA 10           or          dl,10h
  004051F5: 8B 85 E4 FA FF FF  mov         eax,dword ptr [ebp+FFFFFAE4h]
  004051FB: 88 90 61 0C 41 00  mov         byte ptr [eax+00410C61h],dl
  00405201: 8B 8D E4 FA FF FF  mov         ecx,dword ptr [ebp+FFFFFAE4h]
  00405207: 83 C1 20           add         ecx,20h
  0040520A: 8B 95 E4 FA FF FF  mov         edx,dword ptr [ebp+FFFFFAE4h]
  00405210: 88 8A 60 0B 41 00  mov         byte ptr [edx+00410B60h],cl
  00405216: EB 51              jmp         00405269
  00405218: 83 BD E4 FA FF FF  cmp         dword ptr [ebp+FFFFFAE4h],61h
            61
  0040521F: 72 3B              jb          0040525C
  00405221: 83 BD E4 FA FF FF  cmp         dword ptr [ebp+FFFFFAE4h],7Ah
            7A
  00405228: 77 32              ja          0040525C
  0040522A: 8B 85 E4 FA FF FF  mov         eax,dword ptr [ebp+FFFFFAE4h]
  00405230: 8A 88 61 0C 41 00  mov         cl,byte ptr [eax+00410C61h]
  00405236: 80 C9 20           or          cl,20h
  00405239: 8B 95 E4 FA FF FF  mov         edx,dword ptr [ebp+FFFFFAE4h]
  0040523F: 88 8A 61 0C 41 00  mov         byte ptr [edx+00410C61h],cl
  00405245: 8B 85 E4 FA FF FF  mov         eax,dword ptr [ebp+FFFFFAE4h]
  0040524B: 83 E8 20           sub         eax,20h
  0040524E: 8B 8D E4 FA FF FF  mov         ecx,dword ptr [ebp+FFFFFAE4h]
  00405254: 88 81 60 0B 41 00  mov         byte ptr [ecx+00410B60h],al
  0040525A: EB 0D              jmp         00405269
  0040525C: 8B 95 E4 FA FF FF  mov         edx,dword ptr [ebp+FFFFFAE4h]
  00405262: C6 82 60 0B 41 00  mov         byte ptr [edx+00410B60h],0
            00
  00405269: E9 47 FF FF FF     jmp         004051B5
  0040526E: 8B E5              mov         esp,ebp
  00405270: 5D                 pop         ebp
  00405271: C3                 ret
  00405272: CC                 int         3
  00405273: CC                 int         3
  00405274: CC                 int         3
  00405275: CC                 int         3
  00405276: CC                 int         3
  00405277: CC                 int         3
  00405278: CC                 int         3
  00405279: CC                 int         3
  0040527A: CC                 int         3
  0040527B: CC                 int         3
  0040527C: CC                 int         3
  0040527D: CC                 int         3
  0040527E: CC                 int         3
  0040527F: CC                 int         3
  00405280: 55                 push        ebp
  00405281: 8B EC              mov         ebp,esp
  00405283: 83 3D 88 0E 41 00  cmp         dword ptr ds:[00410E88h],0
            00
  0040528A: 75 14              jne         004052A0
  0040528C: 6A FD              push        0FDh
  0040528E: E8 7D F8 FF FF     call        00404B10
  00405293: 83 C4 04           add         esp,4
  00405296: C7 05 88 0E 41 00  mov         dword ptr ds:[00410E88h],1
            01 00 00 00
  004052A0: 5D                 pop         ebp
  004052A1: C3                 ret
  004052A2: CC                 int         3
  004052A3: CC                 int         3
  004052A4: CC                 int         3
  004052A5: CC                 int         3
  004052A6: CC                 int         3
  004052A7: CC                 int         3
  004052A8: CC                 int         3
  004052A9: CC                 int         3
  004052AA: CC                 int         3
  004052AB: CC                 int         3
  004052AC: CC                 int         3
  004052AD: CC                 int         3
  004052AE: CC                 int         3
  004052AF: CC                 int         3
  004052B0: 55                 push        ebp
  004052B1: 8B EC              mov         ebp,esp
  004052B3: 57                 push        edi
  004052B4: 56                 push        esi
  004052B5: 8B 75 0C           mov         esi,dword ptr [ebp+0Ch]
  004052B8: 8B 4D 10           mov         ecx,dword ptr [ebp+10h]
  004052BB: 8B 7D 08           mov         edi,dword ptr [ebp+8]
  004052BE: 8B C1              mov         eax,ecx
  004052C0: 8B D1              mov         edx,ecx
  004052C2: 03 C6              add         eax,esi
  004052C4: 3B FE              cmp         edi,esi
  004052C6: 76 08              jbe         004052D0
  004052C8: 3B F8              cmp         edi,eax
  004052CA: 0F 82 78 01 00 00  jb          00405448
  004052D0: F7 C7 03 00 00 00  test        edi,3
  004052D6: 75 14              jne         004052EC
  004052D8: C1 E9 02           shr         ecx,2
  004052DB: 83 E2 03           and         edx,3
  004052DE: 83 F9 08           cmp         ecx,8
  004052E1: 72 29              jb          0040530C
  004052E3: F3 A5              rep movs    dword ptr [edi],dword ptr [esi]
  004052E5: FF 24 95 F8 53 40  jmp         dword ptr [edx*4+004053F8h]
            00
  004052EC: 8B C7              mov         eax,edi
  004052EE: BA 03 00 00 00     mov         edx,3
  004052F3: 83 E9 04           sub         ecx,4
  004052F6: 72 0C              jb          00405304
  004052F8: 83 E0 03           and         eax,3
  004052FB: 03 C8              add         ecx,eax
  004052FD: FF 24 85 10 53 40  jmp         dword ptr [eax*4+00405310h]
            00
  00405304: FF 24 8D 08 54 40  jmp         dword ptr [ecx*4+00405408h]
            00
  0040530B: 90                 nop
  0040530C: FF 24 8D 8C 53 40  jmp         dword ptr [ecx*4+0040538Ch]
            00
  00405313: 90                 nop
  00405314: 20 53 40           and         byte ptr [ebx+40h],dl
  00405317: 00 4C 53 40        add         byte ptr [ebx+edx*2+40h],cl
  0040531B: 00 70 53           add         byte ptr [eax+53h],dh
  0040531E: 40                 inc         eax
  0040531F: 00 23              add         byte ptr [ebx],ah
  00405321: D1 8A 06 88 07 8A  ror         dword ptr [edx+8A078806h],1
  00405327: 46                 inc         esi
  00405328: 01 88 47 01 8A 46  add         dword ptr [eax+468A0147h],ecx
  0040532E: 02 C1              add         al,cl
  00405330: E9 02 88 47 02     jmp         0287DB37
  00405335: 83 C6 03           add         esi,3
  00405338: 83 C7 03           add         edi,3
  0040533B: 83 F9 08           cmp         ecx,8
  0040533E: 72 CC              jb          0040530C
  00405340: F3 A5              rep movs    dword ptr [edi],dword ptr [esi]
  00405342: FF 24 95 F8 53 40  jmp         dword ptr [edx*4+004053F8h]
            00
  00405349: 8D 49 00           lea         ecx,[ecx]
  0040534C: 23 D1              and         edx,ecx
  0040534E: 8A 06              mov         al,byte ptr [esi]
  00405350: 88 07              mov         byte ptr [edi],al
  00405352: 8A 46 01           mov         al,byte ptr [esi+1]
  00405355: C1 E9 02           shr         ecx,2
  00405358: 88 47 01           mov         byte ptr [edi+1],al
  0040535B: 83 C6 02           add         esi,2
  0040535E: 83 C7 02           add         edi,2
  00405361: 83 F9 08           cmp         ecx,8
  00405364: 72 A6              jb          0040530C
  00405366: F3 A5              rep movs    dword ptr [edi],dword ptr [esi]
  00405368: FF 24 95 F8 53 40  jmp         dword ptr [edx*4+004053F8h]
            00
  0040536F: 90                 nop
  00405370: 23 D1              and         edx,ecx
  00405372: 8A 06              mov         al,byte ptr [esi]
  00405374: 88 07              mov         byte ptr [edi],al
  00405376: 46                 inc         esi
  00405377: C1 E9 02           shr         ecx,2
  0040537A: 47                 inc         edi
  0040537B: 83 F9 08           cmp         ecx,8
  0040537E: 72 8C              jb          0040530C
  00405380: F3 A5              rep movs    dword ptr [edi],dword ptr [esi]
  00405382: FF 24 95 F8 53 40  jmp         dword ptr [edx*4+004053F8h]
            00
  00405389: 8D 49 00           lea         ecx,[ecx]
  0040538C: EF                 out         dx,eax
  0040538D: 53                 push        ebx
  0040538E: 40                 inc         eax
  0040538F: 00 DC              add         ah,bl
  00405391: 53                 push        ebx
  00405392: 40                 inc         eax
  00405393: 00 D4              add         ah,dl
  00405395: 53                 push        ebx
  00405396: 40                 inc         eax
  00405397: 00 CC              add         ah,cl
  00405399: 53                 push        ebx
  0040539A: 40                 inc         eax
  0040539B: 00 C4              add         ah,al
  0040539D: 53                 push        ebx
  0040539E: 40                 inc         eax
  0040539F: 00 BC 53 40 00 B4  add         byte ptr [ebx+edx*2+53B40040h],bh
            53
  004053A6: 40                 inc         eax
  004053A7: 00 AC 53 40 00 8B  add         byte ptr [ebx+edx*2+448B0040h],ch
            44
  004053AE: 8E E4              mov         fs,sp
  004053B0: 89 44 8F E4        mov         dword ptr [edi+ecx*4-1Ch],eax
  004053B4: 8B 44 8E E8        mov         eax,dword ptr [esi+ecx*4-18h]
  004053B8: 89 44 8F E8        mov         dword ptr [edi+ecx*4-18h],eax
  004053BC: 8B 44 8E EC        mov         eax,dword ptr [esi+ecx*4-14h]
  004053C0: 89 44 8F EC        mov         dword ptr [edi+ecx*4-14h],eax
  004053C4: 8B 44 8E F0        mov         eax,dword ptr [esi+ecx*4-10h]
  004053C8: 89 44 8F F0        mov         dword ptr [edi+ecx*4-10h],eax
  004053CC: 8B 44 8E F4        mov         eax,dword ptr [esi+ecx*4-0Ch]
  004053D0: 89 44 8F F4        mov         dword ptr [edi+ecx*4-0Ch],eax
  004053D4: 8B 44 8E F8        mov         eax,dword ptr [esi+ecx*4-8]
  004053D8: 89 44 8F F8        mov         dword ptr [edi+ecx*4-8],eax
  004053DC: 8B 44 8E FC        mov         eax,dword ptr [esi+ecx*4-4]
  004053E0: 89 44 8F FC        mov         dword ptr [edi+ecx*4-4],eax
  004053E4: 8D 04 8D 00 00 00  lea         eax,[ecx*4+00000000h]
            00
  004053EB: 03 F0              add         esi,eax
  004053ED: 03 F8              add         edi,eax
  004053EF: FF 24 95 F8 53 40  jmp         dword ptr [edx*4+004053F8h]
            00
  004053F6: 8B FF              mov         edi,edi
  004053F8: 08 54 40 00        or          byte ptr [eax+eax*2],dl
  004053FC: 10 54 40 00        adc         byte ptr [eax+eax*2],dl
  00405400: 1C 54              sbb         al,54h
  00405402: 40                 inc         eax
  00405403: 00 30              add         byte ptr [eax],dh
  00405405: 54                 push        esp
  00405406: 40                 inc         eax
  00405407: 00 8B 45 08 5E 5F  add         byte ptr [ebx+5F5E0845h],cl
  0040540D: C9                 leave
  0040540E: C3                 ret
  0040540F: 90                 nop
  00405410: 8A 06              mov         al,byte ptr [esi]
  00405412: 88 07              mov         byte ptr [edi],al
  00405414: 8B 45 08           mov         eax,dword ptr [ebp+8]
  00405417: 5E                 pop         esi
  00405418: 5F                 pop         edi
  00405419: C9                 leave
  0040541A: C3                 ret
  0040541B: 90                 nop
  0040541C: 8A 06              mov         al,byte ptr [esi]
  0040541E: 88 07              mov         byte ptr [edi],al
  00405420: 8A 46 01           mov         al,byte ptr [esi+1]
  00405423: 88 47 01           mov         byte ptr [edi+1],al
  00405426: 8B 45 08           mov         eax,dword ptr [ebp+8]
  00405429: 5E                 pop         esi
  0040542A: 5F                 pop         edi
  0040542B: C9                 leave
  0040542C: C3                 ret
  0040542D: 8D 49 00           lea         ecx,[ecx]
  00405430: 8A 06              mov         al,byte ptr [esi]
  00405432: 88 07              mov         byte ptr [edi],al
  00405434: 8A 46 01           mov         al,byte ptr [esi+1]
  00405437: 88 47 01           mov         byte ptr [edi+1],al
  0040543A: 8A 46 02           mov         al,byte ptr [esi+2]
  0040543D: 88 47 02           mov         byte ptr [edi+2],al
  00405440: 8B 45 08           mov         eax,dword ptr [ebp+8]
  00405443: 5E                 pop         esi
  00405444: 5F                 pop         edi
  00405445: C9                 leave
  00405446: C3                 ret
  00405447: 90                 nop
  00405448: 8D 74 31 FC        lea         esi,[ecx+esi-4]
  0040544C: 8D 7C 39 FC        lea         edi,[ecx+edi-4]
  00405450: F7 C7 03 00 00 00  test        edi,3
  00405456: 75 24              jne         0040547C
  00405458: C1 E9 02           shr         ecx,2
  0040545B: 83 E2 03           and         edx,3
  0040545E: 83 F9 08           cmp         ecx,8
  00405461: 72 0D              jb          00405470
  00405463: FD                 std
  00405464: F3 A5              rep movs    dword ptr [edi],dword ptr [esi]
  00405466: FC                 cld
  00405467: FF 24 95 90 55 40  jmp         dword ptr [edx*4+00405590h]
            00
  0040546E: 8B FF              mov         edi,edi
  00405470: F7 D9              neg         ecx
  00405472: FF 24 8D 40 55 40  jmp         dword ptr [ecx*4+00405540h]
            00
  00405479: 8D 49 00           lea         ecx,[ecx]
  0040547C: 8B C7              mov         eax,edi
  0040547E: BA 03 00 00 00     mov         edx,3
  00405483: 83 F9 04           cmp         ecx,4
  00405486: 72 0C              jb          00405494
  00405488: 83 E0 03           and         eax,3
  0040548B: 2B C8              sub         ecx,eax
  0040548D: FF 24 85 98 54 40  jmp         dword ptr [eax*4+00405498h]
            00
  00405494: FF 24 8D 90 55 40  jmp         dword ptr [ecx*4+00405590h]
            00
  0040549B: 90                 nop
  0040549C: A8 54              test        al,54h
  0040549E: 40                 inc         eax
  0040549F: 00 C8              add         al,cl
  004054A1: 54                 push        esp
  004054A2: 40                 inc         eax
  004054A3: 00 F0              add         al,dh
  004054A5: 54                 push        esp
  004054A6: 40                 inc         eax
  004054A7: 00 8A 46 03 23 D1  add         byte ptr [edx+D1230346h],cl
  004054AD: 88 47 03           mov         byte ptr [edi+3],al
  004054B0: 4E                 dec         esi
  004054B1: C1 E9 02           shr         ecx,2
  004054B4: 4F                 dec         edi
  004054B5: 83 F9 08           cmp         ecx,8
  004054B8: 72 B6              jb          00405470
  004054BA: FD                 std
  004054BB: F3 A5              rep movs    dword ptr [edi],dword ptr [esi]
  004054BD: FC                 cld
  004054BE: FF 24 95 90 55 40  jmp         dword ptr [edx*4+00405590h]
            00
  004054C5: 8D 49 00           lea         ecx,[ecx]
  004054C8: 8A 46 03           mov         al,byte ptr [esi+3]
  004054CB: 23 D1              and         edx,ecx
  004054CD: 88 47 03           mov         byte ptr [edi+3],al
  004054D0: 8A 46 02           mov         al,byte ptr [esi+2]
  004054D3: C1 E9 02           shr         ecx,2
  004054D6: 88 47 02           mov         byte ptr [edi+2],al
  004054D9: 83 EE 02           sub         esi,2
  004054DC: 83 EF 02           sub         edi,2
  004054DF: 83 F9 08           cmp         ecx,8
  004054E2: 72 8C              jb          00405470
  004054E4: FD                 std
  004054E5: F3 A5              rep movs    dword ptr [edi],dword ptr [esi]
  004054E7: FC                 cld
  004054E8: FF 24 95 90 55 40  jmp         dword ptr [edx*4+00405590h]
            00
  004054EF: 90                 nop
  004054F0: 8A 46 03           mov         al,byte ptr [esi+3]
  004054F3: 23 D1              and         edx,ecx
  004054F5: 88 47 03           mov         byte ptr [edi+3],al
  004054F8: 8A 46 02           mov         al,byte ptr [esi+2]
  004054FB: 88 47 02           mov         byte ptr [edi+2],al
  004054FE: 8A 46 01           mov         al,byte ptr [esi+1]
  00405501: C1 E9 02           shr         ecx,2
  00405504: 88 47 01           mov         byte ptr [edi+1],al
  00405507: 83 EE 03           sub         esi,3
  0040550A: 83 EF 03           sub         edi,3
  0040550D: 83 F9 08           cmp         ecx,8
  00405510: 0F 82 5A FF FF FF  jb          00405470
  00405516: FD                 std
  00405517: F3 A5              rep movs    dword ptr [edi],dword ptr [esi]
  00405519: FC                 cld
  0040551A: FF 24 95 90 55 40  jmp         dword ptr [edx*4+00405590h]
            00
  00405521: 8D 49 00           lea         ecx,[ecx]
  00405524: 44                 inc         esp
  00405525: 55                 push        ebp
  00405526: 40                 inc         eax
  00405527: 00 4C 55 40        add         byte ptr [ebp+edx*2+40h],cl
  0040552B: 00 54 55 40        add         byte ptr [ebp+edx*2+40h],dl
  0040552F: 00 5C 55 40        add         byte ptr [ebp+edx*2+40h],bl
  00405533: 00 64 55 40        add         byte ptr [ebp+edx*2+40h],ah
  00405537: 00 6C 55 40        add         byte ptr [ebp+edx*2+40h],ch
  0040553B: 00 74 55 40        add         byte ptr [ebp+edx*2+40h],dh
  0040553F: 00 87 55 40 00 8B  add         byte ptr [edi+8B004055h],al
  00405545: 44                 inc         esp
  00405546: 8E 1C 89           mov         ds,word ptr [ecx+ecx*4]
  00405549: 44                 inc         esp
  0040554A: 8F 1C 8B           pop         dword ptr [ebx+ecx*4]
  0040554D: 44                 inc         esp
  0040554E: 8E 18              mov         ds,word ptr [eax]
  00405550: 89 44 8F 18        mov         dword ptr [edi+ecx*4+18h],eax
  00405554: 8B 44 8E 14        mov         eax,dword ptr [esi+ecx*4+14h]
  00405558: 89 44 8F 14        mov         dword ptr [edi+ecx*4+14h],eax
  0040555C: 8B 44 8E 10        mov         eax,dword ptr [esi+ecx*4+10h]
  00405560: 89 44 8F 10        mov         dword ptr [edi+ecx*4+10h],eax
  00405564: 8B 44 8E 0C        mov         eax,dword ptr [esi+ecx*4+0Ch]
  00405568: 89 44 8F 0C        mov         dword ptr [edi+ecx*4+0Ch],eax
  0040556C: 8B 44 8E 08        mov         eax,dword ptr [esi+ecx*4+8]
  00405570: 89 44 8F 08        mov         dword ptr [edi+ecx*4+8],eax
  00405574: 8B 44 8E 04        mov         eax,dword ptr [esi+ecx*4+4]
  00405578: 89 44 8F 04        mov         dword ptr [edi+ecx*4+4],eax
  0040557C: 8D 04 8D 00 00 00  lea         eax,[ecx*4+00000000h]
            00
  00405583: 03 F0              add         esi,eax
  00405585: 03 F8              add         edi,eax
  00405587: FF 24 95 90 55 40  jmp         dword ptr [edx*4+00405590h]
            00
  0040558E: 8B FF              mov         edi,edi
  00405590: A0 55 40 00 A8     mov         al,[A8004055]
  00405595: 55                 push        ebp
  00405596: 40                 inc         eax
  00405597: 00 B8 55 40 00 CC  add         byte ptr [eax+CC004055h],bh
  0040559D: 55                 push        ebp
  0040559E: 40                 inc         eax
  0040559F: 00 8B 45 08 5E 5F  add         byte ptr [ebx+5F5E0845h],cl
  004055A5: C9                 leave
  004055A6: C3                 ret
  004055A7: 90                 nop
  004055A8: 8A 46 03           mov         al,byte ptr [esi+3]
  004055AB: 88 47 03           mov         byte ptr [edi+3],al
  004055AE: 8B 45 08           mov         eax,dword ptr [ebp+8]
  004055B1: 5E                 pop         esi
  004055B2: 5F                 pop         edi
  004055B3: C9                 leave
  004055B4: C3                 ret
  004055B5: 8D 49 00           lea         ecx,[ecx]
  004055B8: 8A 46 03           mov         al,byte ptr [esi+3]
  004055BB: 88 47 03           mov         byte ptr [edi+3],al
  004055BE: 8A 46 02           mov         al,byte ptr [esi+2]
  004055C1: 88 47 02           mov         byte ptr [edi+2],al
  004055C4: 8B 45 08           mov         eax,dword ptr [ebp+8]
  004055C7: 5E                 pop         esi
  004055C8: 5F                 pop         edi
  004055C9: C9                 leave
  004055CA: C3                 ret
  004055CB: 90                 nop
  004055CC: 8A 46 03           mov         al,byte ptr [esi+3]
  004055CF: 88 47 03           mov         byte ptr [edi+3],al
  004055D2: 8A 46 02           mov         al,byte ptr [esi+2]
  004055D5: 88 47 02           mov         byte ptr [edi+2],al
  004055D8: 8A 46 01           mov         al,byte ptr [esi+1]
  004055DB: 88 47 01           mov         byte ptr [edi+1],al
  004055DE: 8B 45 08           mov         eax,dword ptr [ebp+8]
  004055E1: 5E                 pop         esi
  004055E2: 5F                 pop         edi
  004055E3: C9                 leave
  004055E4: C3                 ret
  004055E5: CC                 int         3
  004055E6: CC                 int         3
  004055E7: CC                 int         3
  004055E8: CC                 int         3
  004055E9: CC                 int         3
  004055EA: CC                 int         3
  004055EB: CC                 int         3
  004055EC: CC                 int         3
  004055ED: CC                 int         3
  004055EE: CC                 int         3
  004055EF: CC                 int         3
  004055F0: 55                 push        ebp
  004055F1: 8B EC              mov         ebp,esp
  004055F3: 6A 00              push        0
  004055F5: 8B 45 10           mov         eax,dword ptr [ebp+10h]
  004055F8: 50                 push        eax
  004055F9: 8B 4D 0C           mov         ecx,dword ptr [ebp+0Ch]
  004055FC: 51                 push        ecx
  004055FD: 8B 55 08           mov         edx,dword ptr [ebp+8]
  00405600: 52                 push        edx
  00405601: E8 0A 00 00 00     call        00405610
  00405606: 83 C4 10           add         esp,10h
  00405609: 5D                 pop         ebp
  0040560A: C3                 ret
  0040560B: CC                 int         3
  0040560C: CC                 int         3
  0040560D: CC                 int         3
  0040560E: CC                 int         3
  0040560F: CC                 int         3
  00405610: 55                 push        ebp
  00405611: 8B EC              mov         ebp,esp
  00405613: 83 EC 20           sub         esp,20h
  00405616: 8B 45 08           mov         eax,dword ptr [ebp+8]
  00405619: 89 45 FC           mov         dword ptr [ebp-4],eax
  0040561C: C7 45 F4 00 00 00  mov         dword ptr [ebp-0Ch],0
            00
  00405623: 8B 4D FC           mov         ecx,dword ptr [ebp-4]
  00405626: 8A 11              mov         dl,byte ptr [ecx]
  00405628: 88 55 F8           mov         byte ptr [ebp-8],dl
  0040562B: 8B 45 FC           mov         eax,dword ptr [ebp-4]
  0040562E: 83 C0 01           add         eax,1
  00405631: 89 45 FC           mov         dword ptr [ebp-4],eax
  00405634: 83 3D 20 F5 40 00  cmp         dword ptr ds:[0040F520h],1
            01
  0040563B: 7E 19              jle         00405656
  0040563D: 6A 08              push        8
  0040563F: 8B 4D F8           mov         ecx,dword ptr [ebp-8]
  00405642: 81 E1 FF 00 00 00  and         ecx,0FFh
  00405648: 51                 push        ecx
  00405649: E8 D2 3D 00 00     call        00409420
  0040564E: 83 C4 08           add         esp,8
  00405651: 89 45 E8           mov         dword ptr [ebp-18h],eax
  00405654: EB 1A              jmp         00405670
  00405656: 8B 55 F8           mov         edx,dword ptr [ebp-8]
  00405659: 81 E2 FF 00 00 00  and         edx,0FFh
  0040565F: A1 14 F3 40 00     mov         eax,[0040F314]
  00405664: 33 C9              xor         ecx,ecx
  00405666: 66 8B 0C 50        mov         cx,word ptr [eax+edx*2]
  0040566A: 83 E1 08           and         ecx,8
  0040566D: 89 4D E8           mov         dword ptr [ebp-18h],ecx
  00405670: 83 7D E8 00        cmp         dword ptr [ebp-18h],0
  00405674: 74 13              je          00405689
  00405676: 8B 55 FC           mov         edx,dword ptr [ebp-4]
  00405679: 8A 02              mov         al,byte ptr [edx]
  0040567B: 88 45 F8           mov         byte ptr [ebp-8],al
  0040567E: 8B 4D FC           mov         ecx,dword ptr [ebp-4]
  00405681: 83 C1 01           add         ecx,1
  00405684: 89 4D FC           mov         dword ptr [ebp-4],ecx
  00405687: EB AB              jmp         00405634
  00405689: 0F BE 55 F8        movsx       edx,byte ptr [ebp-8]
  0040568D: 83 FA 2D           cmp         edx,2Dh
  00405690: 75 1B              jne         004056AD
  00405692: 8B 45 14           mov         eax,dword ptr [ebp+14h]
  00405695: 0C 02              or          al,2
  00405697: 89 45 14           mov         dword ptr [ebp+14h],eax
  0040569A: 8B 4D FC           mov         ecx,dword ptr [ebp-4]
  0040569D: 8A 11              mov         dl,byte ptr [ecx]
  0040569F: 88 55 F8           mov         byte ptr [ebp-8],dl
  004056A2: 8B 45 FC           mov         eax,dword ptr [ebp-4]
  004056A5: 83 C0 01           add         eax,1
  004056A8: 89 45 FC           mov         dword ptr [ebp-4],eax
  004056AB: EB 1A              jmp         004056C7
  004056AD: 0F BE 4D F8        movsx       ecx,byte ptr [ebp-8]
  004056B1: 83 F9 2B           cmp         ecx,2Bh
  004056B4: 75 11              jne         004056C7
  004056B6: 8B 55 FC           mov         edx,dword ptr [ebp-4]
  004056B9: 8A 02              mov         al,byte ptr [edx]
  004056BB: 88 45 F8           mov         byte ptr [ebp-8],al
  004056BE: 8B 4D FC           mov         ecx,dword ptr [ebp-4]
  004056C1: 83 C1 01           add         ecx,1
  004056C4: 89 4D FC           mov         dword ptr [ebp-4],ecx
  004056C7: 83 7D 10 00        cmp         dword ptr [ebp+10h],0
  004056CB: 7C 0C              jl          004056D9
  004056CD: 83 7D 10 01        cmp         dword ptr [ebp+10h],1
  004056D1: 74 06              je          004056D9
  004056D3: 83 7D 10 24        cmp         dword ptr [ebp+10h],24h
  004056D7: 7E 15              jle         004056EE
  004056D9: 83 7D 0C 00        cmp         dword ptr [ebp+0Ch],0
  004056DD: 74 08              je          004056E7
  004056DF: 8B 55 0C           mov         edx,dword ptr [ebp+0Ch]
  004056E2: 8B 45 08           mov         eax,dword ptr [ebp+8]
  004056E5: 89 02              mov         dword ptr [edx],eax
  004056E7: 33 C0              xor         eax,eax
  004056E9: E9 4E 02 00 00     jmp         0040593C
  004056EE: 83 7D 10 00        cmp         dword ptr [ebp+10h],0
  004056F2: 75 38              jne         0040572C
  004056F4: 0F BE 4D F8        movsx       ecx,byte ptr [ebp-8]
  004056F8: 83 F9 30           cmp         ecx,30h
  004056FB: 74 09              je          00405706
  004056FD: C7 45 10 0A 00 00  mov         dword ptr [ebp+10h],0Ah
            00
  00405704: EB 26              jmp         0040572C
  00405706: 8B 55 FC           mov         edx,dword ptr [ebp-4]
  00405709: 0F BE 02           movsx       eax,byte ptr [edx]
  0040570C: 83 F8 78           cmp         eax,78h
  0040570F: 74 0B              je          0040571C
  00405711: 8B 4D FC           mov         ecx,dword ptr [ebp-4]
  00405714: 0F BE 11           movsx       edx,byte ptr [ecx]
  00405717: 83 FA 58           cmp         edx,58h
  0040571A: 75 09              jne         00405725
  0040571C: C7 45 10 10 00 00  mov         dword ptr [ebp+10h],10h
            00
  00405723: EB 07              jmp         0040572C
  00405725: C7 45 10 08 00 00  mov         dword ptr [ebp+10h],8
            00
  0040572C: 83 7D 10 10        cmp         dword ptr [ebp+10h],10h
  00405730: 75 39              jne         0040576B
  00405732: 0F BE 45 F8        movsx       eax,byte ptr [ebp-8]
  00405736: 83 F8 30           cmp         eax,30h
  00405739: 75 30              jne         0040576B
  0040573B: 8B 4D FC           mov         ecx,dword ptr [ebp-4]
  0040573E: 0F BE 11           movsx       edx,byte ptr [ecx]
  00405741: 83 FA 78           cmp         edx,78h
  00405744: 74 0B              je          00405751
  00405746: 8B 45 FC           mov         eax,dword ptr [ebp-4]
  00405749: 0F BE 08           movsx       ecx,byte ptr [eax]
  0040574C: 83 F9 58           cmp         ecx,58h
  0040574F: 75 1A              jne         0040576B
  00405751: 8B 55 FC           mov         edx,dword ptr [ebp-4]
  00405754: 83 C2 01           add         edx,1
  00405757: 89 55 FC           mov         dword ptr [ebp-4],edx
  0040575A: 8B 45 FC           mov         eax,dword ptr [ebp-4]
  0040575D: 8A 08              mov         cl,byte ptr [eax]
  0040575F: 88 4D F8           mov         byte ptr [ebp-8],cl
  00405762: 8B 55 FC           mov         edx,dword ptr [ebp-4]
  00405765: 83 C2 01           add         edx,1
  00405768: 89 55 FC           mov         dword ptr [ebp-4],edx
  0040576B: 83 C8 FF           or          eax,0FFh
  0040576E: 33 D2              xor         edx,edx
  00405770: F7 75 10           div         eax,dword ptr [ebp+10h]
  00405773: 89 45 F0           mov         dword ptr [ebp-10h],eax
  00405776: 83 3D 20 F5 40 00  cmp         dword ptr ds:[0040F520h],1
            01
  0040577D: 7E 18              jle         00405797
  0040577F: 6A 04              push        4
  00405781: 8B 45 F8           mov         eax,dword ptr [ebp-8]
  00405784: 25 FF 00 00 00     and         eax,0FFh
  00405789: 50                 push        eax
  0040578A: E8 91 3C 00 00     call        00409420
  0040578F: 83 C4 08           add         esp,8
  00405792: 89 45 E4           mov         dword ptr [ebp-1Ch],eax
  00405795: EB 1B              jmp         004057B2
  00405797: 8B 4D F8           mov         ecx,dword ptr [ebp-8]
  0040579A: 81 E1 FF 00 00 00  and         ecx,0FFh
  004057A0: 8B 15 14 F3 40 00  mov         edx,dword ptr ds:[0040F314h]
  004057A6: 33 C0              xor         eax,eax
  004057A8: 66 8B 04 4A        mov         ax,word ptr [edx+ecx*2]
  004057AC: 83 E0 04           and         eax,4
  004057AF: 89 45 E4           mov         dword ptr [ebp-1Ch],eax
  004057B2: 83 7D E4 00        cmp         dword ptr [ebp-1Ch],0
  004057B6: 74 0C              je          004057C4
  004057B8: 0F BE 4D F8        movsx       ecx,byte ptr [ebp-8]
  004057BC: 83 E9 30           sub         ecx,30h
  004057BF: 89 4D EC           mov         dword ptr [ebp-14h],ecx
  004057C2: EB 5F              jmp         00405823
  004057C4: 83 3D 20 F5 40 00  cmp         dword ptr ds:[0040F520h],1
            01
  004057CB: 7E 1C              jle         004057E9
  004057CD: 68 03 01 00 00     push        103h
  004057D2: 8B 55 F8           mov         edx,dword ptr [ebp-8]
  004057D5: 81 E2 FF 00 00 00  and         edx,0FFh
  004057DB: 52                 push        edx
  004057DC: E8 3F 3C 00 00     call        00409420
  004057E1: 83 C4 08           add         esp,8
  004057E4: 89 45 E0           mov         dword ptr [ebp-20h],eax
  004057E7: EB 1D              jmp         00405806
  004057E9: 8B 45 F8           mov         eax,dword ptr [ebp-8]
  004057EC: 25 FF 00 00 00     and         eax,0FFh
  004057F1: 8B 0D 14 F3 40 00  mov         ecx,dword ptr ds:[0040F314h]
  004057F7: 33 D2              xor         edx,edx
  004057F9: 66 8B 14 41        mov         dx,word ptr [ecx+eax*2]
  004057FD: 81 E2 03 01 00 00  and         edx,103h
  00405803: 89 55 E0           mov         dword ptr [ebp-20h],edx
  00405806: 83 7D E0 00        cmp         dword ptr [ebp-20h],0
  0040580A: 74 15              je          00405821
  0040580C: 0F BE 45 F8        movsx       eax,byte ptr [ebp-8]
  00405810: 50                 push        eax
  00405811: E8 EA 41 00 00     call        00409A00
  00405816: 83 C4 04           add         esp,4
  00405819: 83 E8 37           sub         eax,37h
  0040581C: 89 45 EC           mov         dword ptr [ebp-14h],eax
  0040581F: EB 02              jmp         00405823
  00405821: EB 5D              jmp         00405880
  00405823: 8B 4D EC           mov         ecx,dword ptr [ebp-14h]
  00405826: 3B 4D 10           cmp         ecx,dword ptr [ebp+10h]
  00405829: 72 02              jb          0040582D
  0040582B: EB 53              jmp         00405880
  0040582D: 8B 55 14           mov         edx,dword ptr [ebp+14h]
  00405830: 83 CA 08           or          edx,8
  00405833: 89 55 14           mov         dword ptr [ebp+14h],edx
  00405836: 8B 45 F4           mov         eax,dword ptr [ebp-0Ch]
  00405839: 3B 45 F0           cmp         eax,dword ptr [ebp-10h]
  0040583C: 72 15              jb          00405853
  0040583E: 8B 4D F4           mov         ecx,dword ptr [ebp-0Ch]
  00405841: 3B 4D F0           cmp         ecx,dword ptr [ebp-10h]
  00405844: 75 1C              jne         00405862
  00405846: 83 C8 FF           or          eax,0FFh
  00405849: 33 D2              xor         edx,edx
  0040584B: F7 75 10           div         eax,dword ptr [ebp+10h]
  0040584E: 39 55 EC           cmp         dword ptr [ebp-14h],edx
  00405851: 77 0F              ja          00405862
  00405853: 8B 55 F4           mov         edx,dword ptr [ebp-0Ch]
  00405856: 0F AF 55 10        imul        edx,dword ptr [ebp+10h]
  0040585A: 03 55 EC           add         edx,dword ptr [ebp-14h]
  0040585D: 89 55 F4           mov         dword ptr [ebp-0Ch],edx
  00405860: EB 08              jmp         0040586A
  00405862: 8B 45 14           mov         eax,dword ptr [ebp+14h]
  00405865: 0C 04              or          al,4
  00405867: 89 45 14           mov         dword ptr [ebp+14h],eax
  0040586A: 8B 4D FC           mov         ecx,dword ptr [ebp-4]
  0040586D: 8A 11              mov         dl,byte ptr [ecx]
  0040586F: 88 55 F8           mov         byte ptr [ebp-8],dl
  00405872: 8B 45 FC           mov         eax,dword ptr [ebp-4]
  00405875: 83 C0 01           add         eax,1
  00405878: 89 45 FC           mov         dword ptr [ebp-4],eax
  0040587B: E9 F6 FE FF FF     jmp         00405776
  00405880: 8B 4D FC           mov         ecx,dword ptr [ebp-4]
  00405883: 83 E9 01           sub         ecx,1
  00405886: 89 4D FC           mov         dword ptr [ebp-4],ecx
  00405889: 8B 55 14           mov         edx,dword ptr [ebp+14h]
  0040588C: 83 E2 08           and         edx,8
  0040588F: 85 D2              test        edx,edx
  00405891: 75 15              jne         004058A8
  00405893: 83 7D 0C 00        cmp         dword ptr [ebp+0Ch],0
  00405897: 74 06              je          0040589F
  00405899: 8B 45 08           mov         eax,dword ptr [ebp+8]
  0040589C: 89 45 FC           mov         dword ptr [ebp-4],eax
  0040589F: C7 45 F4 00 00 00  mov         dword ptr [ebp-0Ch],0
            00
  004058A6: EB 71              jmp         00405919
  004058A8: 8B 4D 14           mov         ecx,dword ptr [ebp+14h]
  004058AB: 83 E1 04           and         ecx,4
  004058AE: 85 C9              test        ecx,ecx
  004058B0: 75 30              jne         004058E2
  004058B2: 8B 55 14           mov         edx,dword ptr [ebp+14h]
  004058B5: 83 E2 01           and         edx,1
  004058B8: 85 D2              test        edx,edx
  004058BA: 75 5D              jne         00405919
  004058BC: 8B 45 14           mov         eax,dword ptr [ebp+14h]
  004058BF: 83 E0 02           and         eax,2
  004058C2: 85 C0              test        eax,eax
  004058C4: 74 09              je          004058CF
  004058C6: 81 7D F4 00 00 00  cmp         dword ptr [ebp-0Ch],80000000h
            80
  004058CD: 77 13              ja          004058E2
  004058CF: 8B 4D 14           mov         ecx,dword ptr [ebp+14h]
  004058D2: 83 E1 02           and         ecx,2
  004058D5: 85 C9              test        ecx,ecx
  004058D7: 75 40              jne         00405919
  004058D9: 81 7D F4 FF FF FF  cmp         dword ptr [ebp-0Ch],7FFFFFFFh
            7F
  004058E0: 76 37              jbe         00405919
  004058E2: C7 05 40 F9 40 00  mov         dword ptr ds:[0040F940h],22h
            22 00 00 00
  004058EC: 8B 55 14           mov         edx,dword ptr [ebp+14h]
  004058EF: 83 E2 01           and         edx,1
  004058F2: 85 D2              test        edx,edx
  004058F4: 74 09              je          004058FF
  004058F6: C7 45 F4 FF FF FF  mov         dword ptr [ebp-0Ch],0FFFFFFFFh
            FF
  004058FD: EB 1A              jmp         00405919
  004058FF: 8B 45 14           mov         eax,dword ptr [ebp+14h]
  00405902: 83 E0 02           and         eax,2
  00405905: 85 C0              test        eax,eax
  00405907: 74 09              je          00405912
  00405909: C7 45 F4 00 00 00  mov         dword ptr [ebp-0Ch],80000000h
            80
  00405910: EB 07              jmp         00405919
  00405912: C7 45 F4 FF FF FF  mov         dword ptr [ebp-0Ch],7FFFFFFFh
            7F
  00405919: 83 7D 0C 00        cmp         dword ptr [ebp+0Ch],0
  0040591D: 74 08              je          00405927
  0040591F: 8B 4D 0C           mov         ecx,dword ptr [ebp+0Ch]
  00405922: 8B 55 FC           mov         edx,dword ptr [ebp-4]
  00405925: 89 11              mov         dword ptr [ecx],edx
  00405927: 8B 45 14           mov         eax,dword ptr [ebp+14h]
  0040592A: 83 E0 02           and         eax,2
  0040592D: 85 C0              test        eax,eax
  0040592F: 74 08              je          00405939
  00405931: 8B 4D F4           mov         ecx,dword ptr [ebp-0Ch]
  00405934: F7 D9              neg         ecx
  00405936: 89 4D F4           mov         dword ptr [ebp-0Ch],ecx
  00405939: 8B 45 F4           mov         eax,dword ptr [ebp-0Ch]
  0040593C: 8B E5              mov         esp,ebp
  0040593E: 5D                 pop         ebp
  0040593F: C3                 ret
  00405940: 8D 42 FF           lea         eax,[edx-1]
  00405943: 5B                 pop         ebx
  00405944: C3                 ret
  00405945: 8D A4 24 00 00 00  lea         esp,[esp+00000000h]
            00
  0040594C: 8D 64 24 00        lea         esp,[esp]
  00405950: 33 C0              xor         eax,eax
  00405952: 8A 44 24 08        mov         al,byte ptr [esp+8]
  00405956: 53                 push        ebx
  00405957: 8B D8              mov         ebx,eax
  00405959: C1 E0 08           shl         eax,8
  0040595C: 8B 54 24 08        mov         edx,dword ptr [esp+8]
  00405960: F7 C2 03 00 00 00  test        edx,3
  00405966: 74 13              je          0040597B
  00405968: 8A 0A              mov         cl,byte ptr [edx]
  0040596A: 42                 inc         edx
  0040596B: 38 D9              cmp         cl,bl
  0040596D: 74 D1              je          00405940
  0040596F: 84 C9              test        cl,cl
  00405971: 74 51              je          004059C4
  00405973: F7 C2 03 00 00 00  test        edx,3
  00405979: 75 ED              jne         00405968
  0040597B: 0B D8              or          ebx,eax
  0040597D: 57                 push        edi
  0040597E: 8B C3              mov         eax,ebx
  00405980: C1 E3 10           shl         ebx,10h
  00405983: 56                 push        esi
  00405984: 0B D8              or          ebx,eax
  00405986: 8B 0A              mov         ecx,dword ptr [edx]
  00405988: BF FF FE FE 7E     mov         edi,7EFEFEFFh
  0040598D: 8B C1              mov         eax,ecx
  0040598F: 8B F7              mov         esi,edi
  00405991: 33 CB              xor         ecx,ebx
  00405993: 03 F0              add         esi,eax
  00405995: 03 F9              add         edi,ecx
  00405997: 83 F1 FF           xor         ecx,0FFh
  0040599A: 83 F0 FF           xor         eax,0FFh
  0040599D: 33 CF              xor         ecx,edi
  0040599F: 33 C6              xor         eax,esi
  004059A1: 83 C2 04           add         edx,4
  004059A4: 81 E1 00 01 01 81  and         ecx,81010100h
  004059AA: 75 1C              jne         004059C8
  004059AC: 25 00 01 01 81     and         eax,81010100h
  004059B1: 74 D3              je          00405986
  004059B3: 25 00 01 01 01     and         eax,1010100h
  004059B8: 75 08              jne         004059C2
  004059BA: 81 E6 00 00 00 80  and         esi,80000000h
  004059C0: 75 C4              jne         00405986
  004059C2: 5E                 pop         esi
  004059C3: 5F                 pop         edi
  004059C4: 5B                 pop         ebx
  004059C5: 33 C0              xor         eax,eax
  004059C7: C3                 ret
  004059C8: 8B 42 FC           mov         eax,dword ptr [edx-4]
  004059CB: 38 D8              cmp         al,bl
  004059CD: 74 36              je          00405A05
  004059CF: 84 C0              test        al,al
  004059D1: 74 EF              je          004059C2
  004059D3: 38 DC              cmp         ah,bl
  004059D5: 74 27              je          004059FE
  004059D7: 84 E4              test        ah,ah
  004059D9: 74 E7              je          004059C2
  004059DB: C1 E8 10           shr         eax,10h
  004059DE: 38 D8              cmp         al,bl
  004059E0: 74 15              je          004059F7
  004059E2: 84 C0              test        al,al
  004059E4: 74 DC              je          004059C2
  004059E6: 38 DC              cmp         ah,bl
  004059E8: 74 06              je          004059F0
  004059EA: 84 E4              test        ah,ah
  004059EC: 74 D4              je          004059C2
  004059EE: EB 96              jmp         00405986
  004059F0: 5E                 pop         esi
  004059F1: 5F                 pop         edi
  004059F2: 8D 42 FF           lea         eax,[edx-1]
  004059F5: 5B                 pop         ebx
  004059F6: C3                 ret
  004059F7: 8D 42 FE           lea         eax,[edx-2]
  004059FA: 5E                 pop         esi
  004059FB: 5F                 pop         edi
  004059FC: 5B                 pop         ebx
  004059FD: C3                 ret
  004059FE: 8D 42 FD           lea         eax,[edx-3]
  00405A01: 5E                 pop         esi
  00405A02: 5F                 pop         edi
  00405A03: 5B                 pop         ebx
  00405A04: C3                 ret
  00405A05: 8D 42 FC           lea         eax,[edx-4]
  00405A08: 5E                 pop         esi
  00405A09: 5F                 pop         edi
  00405A0A: 5B                 pop         ebx
  00405A0B: C3                 ret
  00405A0C: CC                 int         3
  00405A0D: CC                 int         3
  00405A0E: CC                 int         3
  00405A0F: CC                 int         3
  00405A10: 8B 4C 24 08        mov         ecx,dword ptr [esp+8]
  00405A14: 57                 push        edi
  00405A15: 53                 push        ebx
  00405A16: 56                 push        esi
  00405A17: 8A 11              mov         dl,byte ptr [ecx]
  00405A19: 8B 7C 24 10        mov         edi,dword ptr [esp+10h]
  00405A1D: 84 D2              test        dl,dl
  00405A1F: 74 69              je          00405A8A
  00405A21: 8A 71 01           mov         dh,byte ptr [ecx+1]
  00405A24: 84 F6              test        dh,dh
  00405A26: 74 4F              je          00405A77
  00405A28: 8B F7              mov         esi,edi
  00405A2A: 8B 4C 24 14        mov         ecx,dword ptr [esp+14h]
  00405A2E: 8A 07              mov         al,byte ptr [edi]
  00405A30: 46                 inc         esi
  00405A31: 38 D0              cmp         al,dl
  00405A33: 74 15              je          00405A4A
  00405A35: 84 C0              test        al,al
  00405A37: 74 0B              je          00405A44
  00405A39: 8A 06              mov         al,byte ptr [esi]
  00405A3B: 46                 inc         esi
  00405A3C: 38 D0              cmp         al,dl
  00405A3E: 74 0A              je          00405A4A
  00405A40: 84 C0              test        al,al
  00405A42: 75 F5              jne         00405A39
  00405A44: 5E                 pop         esi
  00405A45: 5B                 pop         ebx
  00405A46: 5F                 pop         edi
  00405A47: 33 C0              xor         eax,eax
  00405A49: C3                 ret
  00405A4A: 8A 06              mov         al,byte ptr [esi]
  00405A4C: 46                 inc         esi
  00405A4D: 38 F0              cmp         al,dh
  00405A4F: 75 EB              jne         00405A3C
  00405A51: 8D 7E FF           lea         edi,[esi-1]
  00405A54: 8A 61 02           mov         ah,byte ptr [ecx+2]
  00405A57: 84 E4              test        ah,ah
  00405A59: 74 28              je          00405A83
  00405A5B: 8A 06              mov         al,byte ptr [esi]
  00405A5D: 83 C6 02           add         esi,2
  00405A60: 38 E0              cmp         al,ah
  00405A62: 75 C4              jne         00405A28
  00405A64: 8A 41 03           mov         al,byte ptr [ecx+3]
  00405A67: 84 C0              test        al,al
  00405A69: 74 18              je          00405A83
  00405A6B: 8A 66 FF           mov         ah,byte ptr [esi-1]
  00405A6E: 83 C1 02           add         ecx,2
  00405A71: 38 E0              cmp         al,ah
  00405A73: 74 DF              je          00405A54
  00405A75: EB B1              jmp         00405A28
  00405A77: 33 C0              xor         eax,eax
  00405A79: 5E                 pop         esi
  00405A7A: 5B                 pop         ebx
  00405A7B: 5F                 pop         edi
  00405A7C: 8A C2              mov         al,dl
  00405A7E: E9 D3 FE FF FF     jmp         00405956
  00405A83: 8D 47 FF           lea         eax,[edi-1]
  00405A86: 5E                 pop         esi
  00405A87: 5B                 pop         ebx
  00405A88: 5F                 pop         edi
  00405A89: C3                 ret
  00405A8A: 8B C7              mov         eax,edi
  00405A8C: 5E                 pop         esi
  00405A8D: 5B                 pop         ebx
  00405A8E: 5F                 pop         edi
  00405A8F: C3                 ret
  00405A90: 55                 push        ebp
  00405A91: 8B EC              mov         ebp,esp
  00405A93: 57                 push        edi
  00405A94: 56                 push        esi
  00405A95: 53                 push        ebx
  00405A96: 8B 4D 10           mov         ecx,dword ptr [ebp+10h]
  00405A99: E3 26              jecxz       00405AC1
  00405A9B: 8B D9              mov         ebx,ecx
  00405A9D: 8B 7D 08           mov         edi,dword ptr [ebp+8]
  00405AA0: 8B F7              mov         esi,edi
  00405AA2: 33 C0              xor         eax,eax
  00405AA4: F2 AE              repne scas  byte ptr [edi]
  00405AA6: F7 D9              neg         ecx
  00405AA8: 03 CB              add         ecx,ebx
  00405AAA: 8B FE              mov         edi,esi
  00405AAC: 8B 75 0C           mov         esi,dword ptr [ebp+0Ch]
  00405AAF: F3 A6              repe cmps   byte ptr [esi],byte ptr [edi]
  00405AB1: 8A 46 FF           mov         al,byte ptr [esi-1]
  00405AB4: 33 C9              xor         ecx,ecx
  00405AB6: 3A 47 FF           cmp         al,byte ptr [edi-1]
  00405AB9: 77 04              ja          00405ABF
  00405ABB: 74 04              je          00405AC1
  00405ABD: 49                 dec         ecx
  00405ABE: 49                 dec         ecx
  00405ABF: F7 D1              not         ecx
  00405AC1: 8B C1              mov         eax,ecx
  00405AC3: 5B                 pop         ebx
  00405AC4: 5E                 pop         esi
  00405AC5: 5F                 pop         edi
  00405AC6: C9                 leave
  00405AC7: C3                 ret
  00405AC8: CC                 int         3
  00405AC9: CC                 int         3
  00405ACA: CC                 int         3
  00405ACB: CC                 int         3
  00405ACC: CC                 int         3
  00405ACD: CC                 int         3
  00405ACE: CC                 int         3
  00405ACF: CC                 int         3
  00405AD0: 55                 push        ebp
  00405AD1: 8B EC              mov         ebp,esp
  00405AD3: 68 40 01 00 00     push        140h
  00405AD8: 6A 00              push        0
  00405ADA: A1 6C 0D 41 00     mov         eax,[00410D6C]
  00405ADF: 50                 push        eax
  00405AE0: FF 15 98 B0 40 00  call        dword ptr ds:[0040B098h]
  00405AE6: A3 38 0B 41 00     mov         [00410B38],eax
  00405AEB: 83 3D 38 0B 41 00  cmp         dword ptr ds:[00410B38h],0
            00
  00405AF2: 75 04              jne         00405AF8
  00405AF4: 33 C0              xor         eax,eax
  00405AF6: EB 38              jmp         00405B30
  00405AF8: 8B 4D 08           mov         ecx,dword ptr [ebp+8]
  00405AFB: 89 0D 3C 0B 41 00  mov         dword ptr ds:[00410B3Ch],ecx
  00405B01: 8B 15 38 0B 41 00  mov         edx,dword ptr ds:[00410B38h]
  00405B07: 89 15 2C 0B 41 00  mov         dword ptr ds:[00410B2Ch],edx
  00405B0D: C7 05 30 0B 41 00  mov         dword ptr ds:[00410B30h],0
            00 00 00 00
  00405B17: C7 05 34 0B 41 00  mov         dword ptr ds:[00410B34h],0
            00 00 00 00
  00405B21: C7 05 24 0B 41 00  mov         dword ptr ds:[00410B24h],10h
            10 00 00 00
  00405B2B: B8 01 00 00 00     mov         eax,1
  00405B30: 5D                 pop         ebp
  00405B31: C3                 ret
  00405B32: CC                 int         3
  00405B33: CC                 int         3
  00405B34: CC                 int         3
  00405B35: CC                 int         3
  00405B36: CC                 int         3
  00405B37: CC                 int         3
  00405B38: CC                 int         3
  00405B39: CC                 int         3
  00405B3A: CC                 int         3
  00405B3B: CC                 int         3
  00405B3C: CC                 int         3
  00405B3D: CC                 int         3
  00405B3E: CC                 int         3
  00405B3F: CC                 int         3
  00405B40: 55                 push        ebp
  00405B41: 8B EC              mov         ebp,esp
  00405B43: 83 EC 0C           sub         esp,0Ch
  00405B46: A1 34 0B 41 00     mov         eax,[00410B34]
  00405B4B: 6B C0 14           imul        eax,eax,14h
  00405B4E: 8B 0D 38 0B 41 00  mov         ecx,dword ptr ds:[00410B38h]
  00405B54: 03 C8              add         ecx,eax
  00405B56: 89 4D F4           mov         dword ptr [ebp-0Ch],ecx
  00405B59: 8B 15 38 0B 41 00  mov         edx,dword ptr ds:[00410B38h]
  00405B5F: 89 55 F8           mov         dword ptr [ebp-8],edx
  00405B62: 8B 45 F8           mov         eax,dword ptr [ebp-8]
  00405B65: 3B 45 F4           cmp         eax,dword ptr [ebp-0Ch]
  00405B68: 73 25              jae         00405B8F
  00405B6A: 8B 4D F8           mov         ecx,dword ptr [ebp-8]
  00405B6D: 8B 55 08           mov         edx,dword ptr [ebp+8]
  00405B70: 2B 51 0C           sub         edx,dword ptr [ecx+0Ch]
  00405B73: 89 55 FC           mov         dword ptr [ebp-4],edx
  00405B76: 81 7D FC 00 00 10  cmp         dword ptr [ebp-4],100000h
            00
  00405B7D: 73 05              jae         00405B84
  00405B7F: 8B 45 F8           mov         eax,dword ptr [ebp-8]
  00405B82: EB 0D              jmp         00405B91
  00405B84: 8B 45 F8           mov         eax,dword ptr [ebp-8]
  00405B87: 83 C0 14           add         eax,14h
  00405B8A: 89 45 F8           mov         dword ptr [ebp-8],eax
  00405B8D: EB D3              jmp         00405B62
  00405B8F: 33 C0              xor         eax,eax
  00405B91: 8B E5              mov         esp,ebp
  00405B93: 5D                 pop         ebp
  00405B94: C3                 ret
  00405B95: CC                 int         3
  00405B96: CC                 int         3
  00405B97: CC                 int         3
  00405B98: CC                 int         3
  00405B99: CC                 int         3
  00405B9A: CC                 int         3
  00405B9B: CC                 int         3
  00405B9C: CC                 int         3
  00405B9D: CC                 int         3
  00405B9E: CC                 int         3
  00405B9F: CC                 int         3
  00405BA0: 55                 push        ebp
  00405BA1: 8B EC              mov         ebp,esp
  00405BA3: 83 EC 0C           sub         esp,0Ch
  00405BA6: 8B 45 08           mov         eax,dword ptr [ebp+8]
  00405BA9: 8B 4D 0C           mov         ecx,dword ptr [ebp+0Ch]
  00405BAC: 2B 48 0C           sub         ecx,dword ptr [eax+0Ch]
  00405BAF: 89 4D F8           mov         dword ptr [ebp-8],ecx
  00405BB2: 8B 55 F8           mov         edx,dword ptr [ebp-8]
  00405BB5: C1 EA 0F           shr         edx,0Fh
  00405BB8: 89 55 FC           mov         dword ptr [ebp-4],edx
  00405BBB: B8 00 00 00 80     mov         eax,80000000h
  00405BC0: 8B 4D FC           mov         ecx,dword ptr [ebp-4]
  00405BC3: D3 E8              shr         eax,cl
  00405BC5: 8B 4D 08           mov         ecx,dword ptr [ebp+8]
  00405BC8: 8B 51 08           mov         edx,dword ptr [ecx+8]
  00405BCB: 23 D0              and         edx,eax
  00405BCD: 85 D2              test        edx,edx
  00405BCF: 75 20              jne         00405BF1
  00405BD1: 8B 45 F8           mov         eax,dword ptr [ebp-8]
  00405BD4: 83 E0 0F           and         eax,0Fh
  00405BD7: 85 C0              test        eax,eax
  00405BD9: 75 16              jne         00405BF1
  00405BDB: 8B 4D F8           mov         ecx,dword ptr [ebp-8]
  00405BDE: 81 E1 FF 0F 00 00  and         ecx,0FFFh
  00405BE4: 85 C9              test        ecx,ecx
  00405BE6: 74 09              je          00405BF1
  00405BE8: C7 45 F4 01 00 00  mov         dword ptr [ebp-0Ch],1
            00
  00405BEF: EB 07              jmp         00405BF8
  00405BF1: C7 45 F4 00 00 00  mov         dword ptr [ebp-0Ch],0
            00
  00405BF8: 8B 45 F4           mov         eax,dword ptr [ebp-0Ch]
  00405BFB: 8B E5              mov         esp,ebp
  00405BFD: 5D                 pop         ebp
  00405BFE: C3                 ret
  00405BFF: CC                 int         3
  00405C00: 55                 push        ebp
  00405C01: 8B EC              mov         ebp,esp
  00405C03: 83 EC 3C           sub         esp,3Ch
  00405C06: 8B 45 08           mov         eax,dword ptr [ebp+8]
  00405C09: 8B 48 10           mov         ecx,dword ptr [eax+10h]
  00405C0C: 89 4D C4           mov         dword ptr [ebp-3Ch],ecx
  00405C0F: 8B 55 08           mov         edx,dword ptr [ebp+8]
  00405C12: 8B 45 0C           mov         eax,dword ptr [ebp+0Ch]
  00405C15: 2B 42 0C           sub         eax,dword ptr [edx+0Ch]
  00405C18: 89 45 F0           mov         dword ptr [ebp-10h],eax
  00405C1B: 8B 4D F0           mov         ecx,dword ptr [ebp-10h]
  00405C1E: C1 E9 0F           shr         ecx,0Fh
  00405C21: 89 4D FC           mov         dword ptr [ebp-4],ecx
  00405C24: 8B 55 FC           mov         edx,dword ptr [ebp-4]
  00405C27: 69 D2 04 02 00 00  imul        edx,edx,204h
  00405C2D: 8B 45 C4           mov         eax,dword ptr [ebp-3Ch]
  00405C30: 8D 8C 10 44 01 00  lea         ecx,[eax+edx+00000144h]
            00
  00405C37: 89 4D F8           mov         dword ptr [ebp-8],ecx
  00405C3A: 8B 55 0C           mov         edx,dword ptr [ebp+0Ch]
  00405C3D: 83 EA 04           sub         edx,4
  00405C40: 89 55 E4           mov         dword ptr [ebp-1Ch],edx
  00405C43: 8B 45 E4           mov         eax,dword ptr [ebp-1Ch]
  00405C46: 8B 08              mov         ecx,dword ptr [eax]
  00405C48: 83 E9 01           sub         ecx,1
  00405C4B: 89 4D D0           mov         dword ptr [ebp-30h],ecx
  00405C4E: 8B 55 D0           mov         edx,dword ptr [ebp-30h]
  00405C51: 83 E2 01           and         edx,1
  00405C54: 85 D2              test        edx,edx
  00405C56: 74 05              je          00405C5D
  00405C58: E9 7B 05 00 00     jmp         004061D8
  00405C5D: 8B 45 E4           mov         eax,dword ptr [ebp-1Ch]
  00405C60: 03 45 D0           add         eax,dword ptr [ebp-30h]
  00405C63: 89 45 C8           mov         dword ptr [ebp-38h],eax
  00405C66: 8B 4D C8           mov         ecx,dword ptr [ebp-38h]
  00405C69: 8B 11              mov         edx,dword ptr [ecx]
  00405C6B: 89 55 EC           mov         dword ptr [ebp-14h],edx
  00405C6E: 8B 45 E4           mov         eax,dword ptr [ebp-1Ch]
  00405C71: 8B 48 FC           mov         ecx,dword ptr [eax-4]
  00405C74: 89 4D F4           mov         dword ptr [ebp-0Ch],ecx
  00405C77: 8B 55 EC           mov         edx,dword ptr [ebp-14h]
  00405C7A: 83 E2 01           and         edx,1
  00405C7D: 85 D2              test        edx,edx
  00405C7F: 0F 85 22 01 00 00  jne         00405DA7
  00405C85: 8B 45 EC           mov         eax,dword ptr [ebp-14h]
  00405C88: C1 F8 04           sar         eax,4
  00405C8B: 83 E8 01           sub         eax,1
  00405C8E: 89 45 DC           mov         dword ptr [ebp-24h],eax
  00405C91: 83 7D DC 3F        cmp         dword ptr [ebp-24h],3Fh
  00405C95: 76 07              jbe         00405C9E
  00405C97: C7 45 DC 3F 00 00  mov         dword ptr [ebp-24h],3Fh
            00
  00405C9E: 8B 4D C8           mov         ecx,dword ptr [ebp-38h]
  00405CA1: 8B 55 C8           mov         edx,dword ptr [ebp-38h]
  00405CA4: 8B 41 04           mov         eax,dword ptr [ecx+4]
  00405CA7: 3B 42 08           cmp         eax,dword ptr [edx+8]
  00405CAA: 0F 85 D0 00 00 00  jne         00405D80
  00405CB0: 83 7D DC 20        cmp         dword ptr [ebp-24h],20h
  00405CB4: 73 5F              jae         00405D15
  00405CB6: BA 00 00 00 80     mov         edx,80000000h
  00405CBB: 8B 4D DC           mov         ecx,dword ptr [ebp-24h]
  00405CBE: D3 EA              shr         edx,cl
  00405CC0: F7 D2              not         edx
  00405CC2: 8B 45 FC           mov         eax,dword ptr [ebp-4]
  00405CC5: 8B 4D C4           mov         ecx,dword ptr [ebp-3Ch]
  00405CC8: 8B 44 81 44        mov         eax,dword ptr [ecx+eax*4+44h]
  00405CCC: 23 C2              and         eax,edx
  00405CCE: 8B 4D FC           mov         ecx,dword ptr [ebp-4]
  00405CD1: 8B 55 C4           mov         edx,dword ptr [ebp-3Ch]
  00405CD4: 89 44 8A 44        mov         dword ptr [edx+ecx*4+44h],eax
  00405CD8: 8B 45 C4           mov         eax,dword ptr [ebp-3Ch]
  00405CDB: 03 45 DC           add         eax,dword ptr [ebp-24h]
  00405CDE: 8A 48 04           mov         cl,byte ptr [eax+4]
  00405CE1: 80 E9 01           sub         cl,1
  00405CE4: 8B 55 C4           mov         edx,dword ptr [ebp-3Ch]
  00405CE7: 03 55 DC           add         edx,dword ptr [ebp-24h]
  00405CEA: 88 4A 04           mov         byte ptr [edx+4],cl
  00405CED: 8B 45 C4           mov         eax,dword ptr [ebp-3Ch]
  00405CF0: 03 45 DC           add         eax,dword ptr [ebp-24h]
  00405CF3: 0F BE 48 04        movsx       ecx,byte ptr [eax+4]
  00405CF7: 85 C9              test        ecx,ecx
  00405CF9: 75 18              jne         00405D13
  00405CFB: BA 00 00 00 80     mov         edx,80000000h
  00405D00: 8B 4D DC           mov         ecx,dword ptr [ebp-24h]
  00405D03: D3 EA              shr         edx,cl
  00405D05: F7 D2              not         edx
  00405D07: 8B 45 08           mov         eax,dword ptr [ebp+8]
  00405D0A: 8B 08              mov         ecx,dword ptr [eax]
  00405D0C: 23 CA              and         ecx,edx
  00405D0E: 8B 55 08           mov         edx,dword ptr [ebp+8]
  00405D11: 89 0A              mov         dword ptr [edx],ecx
  00405D13: EB 6B              jmp         00405D80
  00405D15: 8B 4D DC           mov         ecx,dword ptr [ebp-24h]
  00405D18: 83 E9 20           sub         ecx,20h
  00405D1B: B8 00 00 00 80     mov         eax,80000000h
  00405D20: D3 E8              shr         eax,cl
  00405D22: F7 D0              not         eax
  00405D24: 8B 4D FC           mov         ecx,dword ptr [ebp-4]
  00405D27: 8B 55 C4           mov         edx,dword ptr [ebp-3Ch]
  00405D2A: 8B 8C 8A C4 00 00  mov         ecx,dword ptr [edx+ecx*4+000000C4h]
            00
  00405D31: 23 C8              and         ecx,eax
  00405D33: 8B 55 FC           mov         edx,dword ptr [ebp-4]
  00405D36: 8B 45 C4           mov         eax,dword ptr [ebp-3Ch]
  00405D39: 89 8C 90 C4 00 00  mov         dword ptr [eax+edx*4+000000C4h],ecx
            00
  00405D40: 8B 4D C4           mov         ecx,dword ptr [ebp-3Ch]
  00405D43: 03 4D DC           add         ecx,dword ptr [ebp-24h]
  00405D46: 8A 51 04           mov         dl,byte ptr [ecx+4]
  00405D49: 80 EA 01           sub         dl,1
  00405D4C: 8B 45 C4           mov         eax,dword ptr [ebp-3Ch]
  00405D4F: 03 45 DC           add         eax,dword ptr [ebp-24h]
  00405D52: 88 50 04           mov         byte ptr [eax+4],dl
  00405D55: 8B 4D C4           mov         ecx,dword ptr [ebp-3Ch]
  00405D58: 03 4D DC           add         ecx,dword ptr [ebp-24h]
  00405D5B: 0F BE 51 04        movsx       edx,byte ptr [ecx+4]
  00405D5F: 85 D2              test        edx,edx
  00405D61: 75 1D              jne         00405D80
  00405D63: 8B 4D DC           mov         ecx,dword ptr [ebp-24h]
  00405D66: 83 E9 20           sub         ecx,20h
  00405D69: B8 00 00 00 80     mov         eax,80000000h
  00405D6E: D3 E8              shr         eax,cl
  00405D70: F7 D0              not         eax
  00405D72: 8B 4D 08           mov         ecx,dword ptr [ebp+8]
  00405D75: 8B 51 04           mov         edx,dword ptr [ecx+4]
  00405D78: 23 D0              and         edx,eax
  00405D7A: 8B 45 08           mov         eax,dword ptr [ebp+8]
  00405D7D: 89 50 04           mov         dword ptr [eax+4],edx
  00405D80: 8B 4D C8           mov         ecx,dword ptr [ebp-38h]
  00405D83: 8B 51 08           mov         edx,dword ptr [ecx+8]
  00405D86: 8B 45 C8           mov         eax,dword ptr [ebp-38h]
  00405D89: 8B 48 04           mov         ecx,dword ptr [eax+4]
  00405D8C: 89 4A 04           mov         dword ptr [edx+4],ecx
  00405D8F: 8B 55 C8           mov         edx,dword ptr [ebp-38h]
  00405D92: 8B 42 04           mov         eax,dword ptr [edx+4]
  00405D95: 8B 4D C8           mov         ecx,dword ptr [ebp-38h]
  00405D98: 8B 51 08           mov         edx,dword ptr [ecx+8]
  00405D9B: 89 50 08           mov         dword ptr [eax+8],edx
  00405D9E: 8B 45 D0           mov         eax,dword ptr [ebp-30h]
  00405DA1: 03 45 EC           add         eax,dword ptr [ebp-14h]
  00405DA4: 89 45 D0           mov         dword ptr [ebp-30h],eax
  00405DA7: 8B 4D D0           mov         ecx,dword ptr [ebp-30h]
  00405DAA: C1 F9 04           sar         ecx,4
  00405DAD: 83 E9 01           sub         ecx,1
  00405DB0: 89 4D D8           mov         dword ptr [ebp-28h],ecx
  00405DB3: 83 7D D8 3F        cmp         dword ptr [ebp-28h],3Fh
  00405DB7: 76 07              jbe         00405DC0
  00405DB9: C7 45 D8 3F 00 00  mov         dword ptr [ebp-28h],3Fh
            00
  00405DC0: 8B 55 F4           mov         edx,dword ptr [ebp-0Ch]
  00405DC3: 83 E2 01           and         edx,1
  00405DC6: 85 D2              test        edx,edx
  00405DC8: 0F 85 56 01 00 00  jne         00405F24
  00405DCE: 8B 45 E4           mov         eax,dword ptr [ebp-1Ch]
  00405DD1: 2B 45 F4           sub         eax,dword ptr [ebp-0Ch]
  00405DD4: 89 45 CC           mov         dword ptr [ebp-34h],eax
  00405DD7: 8B 4D F4           mov         ecx,dword ptr [ebp-0Ch]
  00405DDA: C1 F9 04           sar         ecx,4
  00405DDD: 83 E9 01           sub         ecx,1
  00405DE0: 89 4D D4           mov         dword ptr [ebp-2Ch],ecx
  00405DE3: 83 7D D4 3F        cmp         dword ptr [ebp-2Ch],3Fh
  00405DE7: 76 07              jbe         00405DF0
  00405DE9: C7 45 D4 3F 00 00  mov         dword ptr [ebp-2Ch],3Fh
            00
  00405DF0: 8B 55 D0           mov         edx,dword ptr [ebp-30h]
  00405DF3: 03 55 F4           add         edx,dword ptr [ebp-0Ch]
  00405DF6: 89 55 D0           mov         dword ptr [ebp-30h],edx
  00405DF9: 8B 45 D0           mov         eax,dword ptr [ebp-30h]
  00405DFC: C1 F8 04           sar         eax,4
  00405DFF: 83 E8 01           sub         eax,1
  00405E02: 89 45 D8           mov         dword ptr [ebp-28h],eax
  00405E05: 83 7D D8 3F        cmp         dword ptr [ebp-28h],3Fh
  00405E09: 76 07              jbe         00405E12
  00405E0B: C7 45 D8 3F 00 00  mov         dword ptr [ebp-28h],3Fh
            00
  00405E12: 8B 4D D4           mov         ecx,dword ptr [ebp-2Ch]
  00405E15: 3B 4D D8           cmp         ecx,dword ptr [ebp-28h]
  00405E18: 0F 84 00 01 00 00  je          00405F1E
  00405E1E: 8B 55 CC           mov         edx,dword ptr [ebp-34h]
  00405E21: 8B 45 CC           mov         eax,dword ptr [ebp-34h]
  00405E24: 8B 4A 04           mov         ecx,dword ptr [edx+4]
  00405E27: 3B 48 08           cmp         ecx,dword ptr [eax+8]
  00405E2A: 0F 85 D0 00 00 00  jne         00405F00
  00405E30: 83 7D D4 20        cmp         dword ptr [ebp-2Ch],20h
  00405E34: 73 5F              jae         00405E95
  00405E36: BA 00 00 00 80     mov         edx,80000000h
  00405E3B: 8B 4D D4           mov         ecx,dword ptr [ebp-2Ch]
  00405E3E: D3 EA              shr         edx,cl
  00405E40: F7 D2              not         edx
  00405E42: 8B 45 FC           mov         eax,dword ptr [ebp-4]
  00405E45: 8B 4D C4           mov         ecx,dword ptr [ebp-3Ch]
  00405E48: 8B 44 81 44        mov         eax,dword ptr [ecx+eax*4+44h]
  00405E4C: 23 C2              and         eax,edx
  00405E4E: 8B 4D FC           mov         ecx,dword ptr [ebp-4]
  00405E51: 8B 55 C4           mov         edx,dword ptr [ebp-3Ch]
  00405E54: 89 44 8A 44        mov         dword ptr [edx+ecx*4+44h],eax
  00405E58: 8B 45 C4           mov         eax,dword ptr [ebp-3Ch]
  00405E5B: 03 45 D4           add         eax,dword ptr [ebp-2Ch]
  00405E5E: 8A 48 04           mov         cl,byte ptr [eax+4]
  00405E61: 80 E9 01           sub         cl,1
  00405E64: 8B 55 C4           mov         edx,dword ptr [ebp-3Ch]
  00405E67: 03 55 D4           add         edx,dword ptr [ebp-2Ch]
  00405E6A: 88 4A 04           mov         byte ptr [edx+4],cl
  00405E6D: 8B 45 C4           mov         eax,dword ptr [ebp-3Ch]
  00405E70: 03 45 D4           add         eax,dword ptr [ebp-2Ch]
  00405E73: 0F BE 48 04        movsx       ecx,byte ptr [eax+4]
  00405E77: 85 C9              test        ecx,ecx
  00405E79: 75 18              jne         00405E93
  00405E7B: BA 00 00 00 80     mov         edx,80000000h
  00405E80: 8B 4D D4           mov         ecx,dword ptr [ebp-2Ch]
  00405E83: D3 EA              shr         edx,cl
  00405E85: F7 D2              not         edx
  00405E87: 8B 45 08           mov         eax,dword ptr [ebp+8]
  00405E8A: 8B 08              mov         ecx,dword ptr [eax]
  00405E8C: 23 CA              and         ecx,edx
  00405E8E: 8B 55 08           mov         edx,dword ptr [ebp+8]
  00405E91: 89 0A              mov         dword ptr [edx],ecx
  00405E93: EB 6B              jmp         00405F00
  00405E95: 8B 4D D4           mov         ecx,dword ptr [ebp-2Ch]
  00405E98: 83 E9 20           sub         ecx,20h
  00405E9B: B8 00 00 00 80     mov         eax,80000000h
  00405EA0: D3 E8              shr         eax,cl
  00405EA2: F7 D0              not         eax
  00405EA4: 8B 4D FC           mov         ecx,dword ptr [ebp-4]
  00405EA7: 8B 55 C4           mov         edx,dword ptr [ebp-3Ch]
  00405EAA: 8B 8C 8A C4 00 00  mov         ecx,dword ptr [edx+ecx*4+000000C4h]
            00
  00405EB1: 23 C8              and         ecx,eax
  00405EB3: 8B 55 FC           mov         edx,dword ptr [ebp-4]
  00405EB6: 8B 45 C4           mov         eax,dword ptr [ebp-3Ch]
  00405EB9: 89 8C 90 C4 00 00  mov         dword ptr [eax+edx*4+000000C4h],ecx
            00
  00405EC0: 8B 4D C4           mov         ecx,dword ptr [ebp-3Ch]
  00405EC3: 03 4D D4           add         ecx,dword ptr [ebp-2Ch]
  00405EC6: 8A 51 04           mov         dl,byte ptr [ecx+4]
  00405EC9: 80 EA 01           sub         dl,1
  00405ECC: 8B 45 C4           mov         eax,dword ptr [ebp-3Ch]
  00405ECF: 03 45 D4           add         eax,dword ptr [ebp-2Ch]
  00405ED2: 88 50 04           mov         byte ptr [eax+4],dl
  00405ED5: 8B 4D C4           mov         ecx,dword ptr [ebp-3Ch]
  00405ED8: 03 4D D4           add         ecx,dword ptr [ebp-2Ch]
  00405EDB: 0F BE 51 04        movsx       edx,byte ptr [ecx+4]
  00405EDF: 85 D2              test        edx,edx
  00405EE1: 75 1D              jne         00405F00
  00405EE3: 8B 4D D4           mov         ecx,dword ptr [ebp-2Ch]
  00405EE6: 83 E9 20           sub         ecx,20h
  00405EE9: B8 00 00 00 80     mov         eax,80000000h
  00405EEE: D3 E8              shr         eax,cl
  00405EF0: F7 D0              not         eax
  00405EF2: 8B 4D 08           mov         ecx,dword ptr [ebp+8]
  00405EF5: 8B 51 04           mov         edx,dword ptr [ecx+4]
  00405EF8: 23 D0              and         edx,eax
  00405EFA: 8B 45 08           mov         eax,dword ptr [ebp+8]
  00405EFD: 89 50 04           mov         dword ptr [eax+4],edx
  00405F00: 8B 4D CC           mov         ecx,dword ptr [ebp-34h]
  00405F03: 8B 51 08           mov         edx,dword ptr [ecx+8]
  00405F06: 8B 45 CC           mov         eax,dword ptr [ebp-34h]
  00405F09: 8B 48 04           mov         ecx,dword ptr [eax+4]
  00405F0C: 89 4A 04           mov         dword ptr [edx+4],ecx
  00405F0F: 8B 55 CC           mov         edx,dword ptr [ebp-34h]
  00405F12: 8B 42 04           mov         eax,dword ptr [edx+4]
  00405F15: 8B 4D CC           mov         ecx,dword ptr [ebp-34h]
  00405F18: 8B 51 08           mov         edx,dword ptr [ecx+8]
  00405F1B: 89 50 08           mov         dword ptr [eax+8],edx
  00405F1E: 8B 45 CC           mov         eax,dword ptr [ebp-34h]
  00405F21: 89 45 E4           mov         dword ptr [ebp-1Ch],eax
  00405F24: 8B 4D F4           mov         ecx,dword ptr [ebp-0Ch]
  00405F27: 83 E1 01           and         ecx,1
  00405F2A: 85 C9              test        ecx,ecx
  00405F2C: 75 0C              jne         00405F3A
  00405F2E: 8B 55 D4           mov         edx,dword ptr [ebp-2Ch]
  00405F31: 3B 55 D8           cmp         edx,dword ptr [ebp-28h]
  00405F34: 0F 84 10 01 00 00  je          0040604A
  00405F3A: 8B 45 D8           mov         eax,dword ptr [ebp-28h]
  00405F3D: 8B 4D F8           mov         ecx,dword ptr [ebp-8]
  00405F40: 8D 14 C1           lea         edx,[ecx+eax*8]
  00405F43: 89 55 E0           mov         dword ptr [ebp-20h],edx
  00405F46: 8B 45 E4           mov         eax,dword ptr [ebp-1Ch]
  00405F49: 8B 4D E0           mov         ecx,dword ptr [ebp-20h]
  00405F4C: 8B 51 04           mov         edx,dword ptr [ecx+4]
  00405F4F: 89 50 04           mov         dword ptr [eax+4],edx
  00405F52: 8B 45 E4           mov         eax,dword ptr [ebp-1Ch]
  00405F55: 8B 4D E0           mov         ecx,dword ptr [ebp-20h]
  00405F58: 89 48 08           mov         dword ptr [eax+8],ecx
  00405F5B: 8B 55 E0           mov         edx,dword ptr [ebp-20h]
  00405F5E: 8B 45 E4           mov         eax,dword ptr [ebp-1Ch]
  00405F61: 89 42 04           mov         dword ptr [edx+4],eax
  00405F64: 8B 4D E4           mov         ecx,dword ptr [ebp-1Ch]
  00405F67: 8B 51 04           mov         edx,dword ptr [ecx+4]
  00405F6A: 8B 45 E4           mov         eax,dword ptr [ebp-1Ch]
  00405F6D: 89 42 08           mov         dword ptr [edx+8],eax
  00405F70: 8B 4D E4           mov         ecx,dword ptr [ebp-1Ch]
  00405F73: 8B 55 E4           mov         edx,dword ptr [ebp-1Ch]
  00405F76: 8B 41 04           mov         eax,dword ptr [ecx+4]
  00405F79: 3B 42 08           cmp         eax,dword ptr [edx+8]
  00405F7C: 0F 85 C8 00 00 00  jne         0040604A
  00405F82: 83 7D D8 20        cmp         dword ptr [ebp-28h],20h
  00405F86: 73 5B              jae         00405FE3
  00405F88: 8B 4D C4           mov         ecx,dword ptr [ebp-3Ch]
  00405F8B: 03 4D D8           add         ecx,dword ptr [ebp-28h]
  00405F8E: 0F BE 51 04        movsx       edx,byte ptr [ecx+4]
  00405F92: 8B 45 C4           mov         eax,dword ptr [ebp-3Ch]
  00405F95: 03 45 D8           add         eax,dword ptr [ebp-28h]
  00405F98: 8A 48 04           mov         cl,byte ptr [eax+4]
  00405F9B: 80 C1 01           add         cl,1
  00405F9E: 8B 45 C4           mov         eax,dword ptr [ebp-3Ch]
  00405FA1: 03 45 D8           add         eax,dword ptr [ebp-28h]
  00405FA4: 88 48 04           mov         byte ptr [eax+4],cl
  00405FA7: 85 D2              test        edx,edx
  00405FA9: 75 16              jne         00405FC1
  00405FAB: BA 00 00 00 80     mov         edx,80000000h
  00405FB0: 8B 4D D8           mov         ecx,dword ptr [ebp-28h]
  00405FB3: D3 EA              shr         edx,cl
  00405FB5: 8B 45 08           mov         eax,dword ptr [ebp+8]
  00405FB8: 8B 08              mov         ecx,dword ptr [eax]
  00405FBA: 0B CA              or          ecx,edx
  00405FBC: 8B 55 08           mov         edx,dword ptr [ebp+8]
  00405FBF: 89 0A              mov         dword ptr [edx],ecx
  00405FC1: B8 00 00 00 80     mov         eax,80000000h
  00405FC6: 8B 4D D8           mov         ecx,dword ptr [ebp-28h]
  00405FC9: D3 E8              shr         eax,cl
  00405FCB: 8B 4D FC           mov         ecx,dword ptr [ebp-4]
  00405FCE: 8B 55 C4           mov         edx,dword ptr [ebp-3Ch]
  00405FD1: 8B 4C 8A 44        mov         ecx,dword ptr [edx+ecx*4+44h]
  00405FD5: 0B C8              or          ecx,eax
  00405FD7: 8B 55 FC           mov         edx,dword ptr [ebp-4]
  00405FDA: 8B 45 C4           mov         eax,dword ptr [ebp-3Ch]
  00405FDD: 89 4C 90 44        mov         dword ptr [eax+edx*4+44h],ecx
  00405FE1: EB 67              jmp         0040604A
  00405FE3: 8B 4D C4           mov         ecx,dword ptr [ebp-3Ch]
  00405FE6: 03 4D D8           add         ecx,dword ptr [ebp-28h]
  00405FE9: 0F BE 51 04        movsx       edx,byte ptr [ecx+4]
  00405FED: 8B 45 C4           mov         eax,dword ptr [ebp-3Ch]
  00405FF0: 03 45 D8           add         eax,dword ptr [ebp-28h]
  00405FF3: 8A 48 04           mov         cl,byte ptr [eax+4]
  00405FF6: 80 C1 01           add         cl,1
  00405FF9: 8B 45 C4           mov         eax,dword ptr [ebp-3Ch]
  00405FFC: 03 45 D8           add         eax,dword ptr [ebp-28h]
  00405FFF: 88 48 04           mov         byte ptr [eax+4],cl
  00406002: 85 D2              test        edx,edx
  00406004: 75 1B              jne         00406021
  00406006: 8B 4D D8           mov         ecx,dword ptr [ebp-28h]
  00406009: 83 E9 20           sub         ecx,20h
  0040600C: BA 00 00 00 80     mov         edx,80000000h
  00406011: D3 EA              shr         edx,cl
  00406013: 8B 45 08           mov         eax,dword ptr [ebp+8]
  00406016: 8B 48 04           mov         ecx,dword ptr [eax+4]
  00406019: 0B CA              or          ecx,edx
  0040601B: 8B 55 08           mov         edx,dword ptr [ebp+8]
  0040601E: 89 4A 04           mov         dword ptr [edx+4],ecx
  00406021: 8B 4D D8           mov         ecx,dword ptr [ebp-28h]
  00406024: 83 E9 20           sub         ecx,20h
  00406027: B8 00 00 00 80     mov         eax,80000000h
  0040602C: D3 E8              shr         eax,cl
  0040602E: 8B 4D FC           mov         ecx,dword ptr [ebp-4]
  00406031: 8B 55 C4           mov         edx,dword ptr [ebp-3Ch]
  00406034: 8B 8C 8A C4 00 00  mov         ecx,dword ptr [edx+ecx*4+000000C4h]
            00
  0040603B: 0B C8              or          ecx,eax
  0040603D: 8B 55 FC           mov         edx,dword ptr [ebp-4]
  00406040: 8B 45 C4           mov         eax,dword ptr [ebp-3Ch]
  00406043: 89 8C 90 C4 00 00  mov         dword ptr [eax+edx*4+000000C4h],ecx
            00
  0040604A: 8B 4D E4           mov         ecx,dword ptr [ebp-1Ch]
  0040604D: 8B 55 D0           mov         edx,dword ptr [ebp-30h]
  00406050: 89 11              mov         dword ptr [ecx],edx
  00406052: 8B 45 E4           mov         eax,dword ptr [ebp-1Ch]
  00406055: 03 45 D0           add         eax,dword ptr [ebp-30h]
  00406058: 8B 4D D0           mov         ecx,dword ptr [ebp-30h]
  0040605B: 89 48 FC           mov         dword ptr [eax-4],ecx
  0040605E: 8B 55 F8           mov         edx,dword ptr [ebp-8]
  00406061: 8B 02              mov         eax,dword ptr [edx]
  00406063: 83 E8 01           sub         eax,1
  00406066: 8B 4D F8           mov         ecx,dword ptr [ebp-8]
  00406069: 89 01              mov         dword ptr [ecx],eax
  0040606B: 8B 55 F8           mov         edx,dword ptr [ebp-8]
  0040606E: 83 3A 00           cmp         dword ptr [edx],0
  00406071: 0F 85 61 01 00 00  jne         004061D8
  00406077: 83 3D 30 0B 41 00  cmp         dword ptr ds:[00410B30h],0
            00
  0040607E: 0F 84 43 01 00 00  je          004061C7
  00406084: A1 28 0B 41 00     mov         eax,[00410B28]
  00406089: C1 E0 0F           shl         eax,0Fh
  0040608C: 8B 0D 30 0B 41 00  mov         ecx,dword ptr ds:[00410B30h]
  00406092: 8B 51 0C           mov         edx,dword ptr [ecx+0Ch]
  00406095: 03 D0              add         edx,eax
  00406097: 89 55 E8           mov         dword ptr [ebp-18h],edx
  0040609A: 68 00 40 00 00     push        4000h
  0040609F: 68 00 80 00 00     push        8000h
  004060A4: 8B 45 E8           mov         eax,dword ptr [ebp-18h]
  004060A7: 50                 push        eax
  004060A8: FF 15 74 B0 40 00  call        dword ptr ds:[0040B074h]
  004060AE: BA 00 00 00 80     mov         edx,80000000h
  004060B3: 8B 0D 28 0B 41 00  mov         ecx,dword ptr ds:[00410B28h]
  004060B9: D3 EA              shr         edx,cl
  004060BB: A1 30 0B 41 00     mov         eax,[00410B30]
  004060C0: 8B 48 08           mov         ecx,dword ptr [eax+8]
  004060C3: 0B CA              or          ecx,edx
  004060C5: 8B 15 30 0B 41 00  mov         edx,dword ptr ds:[00410B30h]
  004060CB: 89 4A 08           mov         dword ptr [edx+8],ecx
  004060CE: A1 30 0B 41 00     mov         eax,[00410B30]
  004060D3: 8B 48 10           mov         ecx,dword ptr [eax+10h]
  004060D6: 8B 15 28 0B 41 00  mov         edx,dword ptr ds:[00410B28h]
  004060DC: C7 84 91 C4 00 00  mov         dword ptr [ecx+edx*4+000000C4h],0
            00 00 00 00 00
  004060E7: A1 30 0B 41 00     mov         eax,[00410B30]
  004060EC: 8B 48 10           mov         ecx,dword ptr [eax+10h]
  004060EF: 8A 51 43           mov         dl,byte ptr [ecx+43h]
  004060F2: 80 EA 01           sub         dl,1
  004060F5: A1 30 0B 41 00     mov         eax,[00410B30]
  004060FA: 8B 48 10           mov         ecx,dword ptr [eax+10h]
  004060FD: 88 51 43           mov         byte ptr [ecx+43h],dl
  00406100: 8B 15 30 0B 41 00  mov         edx,dword ptr ds:[00410B30h]
  00406106: 8B 42 10           mov         eax,dword ptr [edx+10h]
  00406109: 0F BE 48 43        movsx       ecx,byte ptr [eax+43h]
  0040610D: 85 C9              test        ecx,ecx
  0040610F: 75 14              jne         00406125
  00406111: 8B 15 30 0B 41 00  mov         edx,dword ptr ds:[00410B30h]
  00406117: 8B 42 04           mov         eax,dword ptr [edx+4]
  0040611A: 24 FE              and         al,0FEh
  0040611C: 8B 0D 30 0B 41 00  mov         ecx,dword ptr ds:[00410B30h]
  00406122: 89 41 04           mov         dword ptr [ecx+4],eax
  00406125: 8B 15 30 0B 41 00  mov         edx,dword ptr ds:[00410B30h]
  0040612B: 83 7A 08 FF        cmp         dword ptr [edx+8],0FFh
  0040612F: 0F 85 92 00 00 00  jne         004061C7
  00406135: 68 00 80 00 00     push        8000h
  0040613A: 6A 00              push        0
  0040613C: A1 30 0B 41 00     mov         eax,[00410B30]
  00406141: 8B 48 0C           mov         ecx,dword ptr [eax+0Ch]
  00406144: 51                 push        ecx
  00406145: FF 15 74 B0 40 00  call        dword ptr ds:[0040B074h]
  0040614B: 8B 15 30 0B 41 00  mov         edx,dword ptr ds:[00410B30h]
  00406151: 8B 42 10           mov         eax,dword ptr [edx+10h]
  00406154: 50                 push        eax
  00406155: 6A 00              push        0
  00406157: 8B 0D 6C 0D 41 00  mov         ecx,dword ptr ds:[00410D6Ch]
  0040615D: 51                 push        ecx
  0040615E: FF 15 70 B0 40 00  call        dword ptr ds:[0040B070h]
  00406164: 8B 15 34 0B 41 00  mov         edx,dword ptr ds:[00410B34h]
  0040616A: 6B D2 14           imul        edx,edx,14h
  0040616D: A1 38 0B 41 00     mov         eax,[00410B38]
  00406172: 03 C2              add         eax,edx
  00406174: 8B 0D 30 0B 41 00  mov         ecx,dword ptr ds:[00410B30h]
  0040617A: 83 C1 14           add         ecx,14h
  0040617D: 2B C1              sub         eax,ecx
  0040617F: 50                 push        eax
  00406180: 8B 15 30 0B 41 00  mov         edx,dword ptr ds:[00410B30h]
  00406186: 83 C2 14           add         edx,14h
  00406189: 52                 push        edx
  0040618A: A1 30 0B 41 00     mov         eax,[00410B30]
  0040618F: 50                 push        eax
  00406190: E8 9B 39 00 00     call        00409B30
  00406195: 83 C4 0C           add         esp,0Ch
  00406198: 8B 0D 34 0B 41 00  mov         ecx,dword ptr ds:[00410B34h]
  0040619E: 83 E9 01           sub         ecx,1
  004061A1: 89 0D 34 0B 41 00  mov         dword ptr ds:[00410B34h],ecx
  004061A7: 8B 55 08           mov         edx,dword ptr [ebp+8]
  004061AA: 3B 15 30 0B 41 00  cmp         edx,dword ptr ds:[00410B30h]
  004061B0: 76 09              jbe         004061BB
  004061B2: 8B 45 08           mov         eax,dword ptr [ebp+8]
  004061B5: 83 E8 14           sub         eax,14h
  004061B8: 89 45 08           mov         dword ptr [ebp+8],eax
  004061BB: 8B 0D 38 0B 41 00  mov         ecx,dword ptr ds:[00410B38h]
  004061C1: 89 0D 2C 0B 41 00  mov         dword ptr ds:[00410B2Ch],ecx
  004061C7: 8B 55 08           mov         edx,dword ptr [ebp+8]
  004061CA: 89 15 30 0B 41 00  mov         dword ptr ds:[00410B30h],edx
  004061D0: 8B 45 FC           mov         eax,dword ptr [ebp-4]
  004061D3: A3 28 0B 41 00     mov         [00410B28],eax
  004061D8: 8B E5              mov         esp,ebp
  004061DA: 5D                 pop         ebp
  004061DB: C3                 ret
  004061DC: CC                 int         3
  004061DD: CC                 int         3
  004061DE: CC                 int         3
  004061DF: CC                 int         3
  004061E0: 55                 push        ebp
  004061E1: 8B EC              mov         ebp,esp
  004061E3: 83 EC 38           sub         esp,38h
  004061E6: 56                 push        esi
  004061E7: A1 34 0B 41 00     mov         eax,[00410B34]
  004061EC: 6B C0 14           imul        eax,eax,14h
  004061EF: 8B 0D 38 0B 41 00  mov         ecx,dword ptr ds:[00410B38h]
  004061F5: 03 C8              add         ecx,eax
  004061F7: 89 4D D4           mov         dword ptr [ebp-2Ch],ecx
  004061FA: 8B 55 08           mov         edx,dword ptr [ebp+8]
  004061FD: 83 C2 17           add         edx,17h
  00406200: 83 E2 F0           and         edx,0F0h
  00406203: 89 55 D8           mov         dword ptr [ebp-28h],edx
  00406206: 8B 45 D8           mov         eax,dword ptr [ebp-28h]
  00406209: C1 F8 04           sar         eax,4
  0040620C: 83 E8 01           sub         eax,1
  0040620F: 89 45 E0           mov         dword ptr [ebp-20h],eax
  00406212: 83 7D E0 20        cmp         dword ptr [ebp-20h],20h
  00406216: 7D 14              jge         0040622C
  00406218: 83 CA FF           or          edx,0FFh
  0040621B: 8B 4D E0           mov         ecx,dword ptr [ebp-20h]
  0040621E: D3 EA              shr         edx,cl
  00406220: 89 55 DC           mov         dword ptr [ebp-24h],edx
  00406223: C7 45 CC FF FF FF  mov         dword ptr [ebp-34h],0FFFFFFFFh
            FF
  0040622A: EB 15              jmp         00406241
  0040622C: C7 45 DC 00 00 00  mov         dword ptr [ebp-24h],0
            00
  00406233: 8B 4D E0           mov         ecx,dword ptr [ebp-20h]
  00406236: 83 E9 20           sub         ecx,20h
  00406239: 83 C8 FF           or          eax,0FFh
  0040623C: D3 E8              shr         eax,cl
  0040623E: 89 45 CC           mov         dword ptr [ebp-34h],eax
  00406241: 8B 0D 2C 0B 41 00  mov         ecx,dword ptr ds:[00410B2Ch]
  00406247: 89 4D E8           mov         dword ptr [ebp-18h],ecx
  0040624A: 8B 55 E8           mov         edx,dword ptr [ebp-18h]
  0040624D: 3B 55 D4           cmp         edx,dword ptr [ebp-2Ch]
  00406250: 73 24              jae         00406276
  00406252: 8B 45 E8           mov         eax,dword ptr [ebp-18h]
  00406255: 8B 4D DC           mov         ecx,dword ptr [ebp-24h]
  00406258: 23 08              and         ecx,dword ptr [eax]
  0040625A: 8B 55 E8           mov         edx,dword ptr [ebp-18h]
  0040625D: 8B 45 CC           mov         eax,dword ptr [ebp-34h]
  00406260: 23 42 04           and         eax,dword ptr [edx+4]
  00406263: 0B C8              or          ecx,eax
  00406265: 85 C9              test        ecx,ecx
  00406267: 74 02              je          0040626B
  00406269: EB 0B              jmp         00406276
  0040626B: 8B 4D E8           mov         ecx,dword ptr [ebp-18h]
  0040626E: 83 C1 14           add         ecx,14h
  00406271: 89 4D E8           mov         dword ptr [ebp-18h],ecx
  00406274: EB D4              jmp         0040624A
  00406276: 8B 55 E8           mov         edx,dword ptr [ebp-18h]
  00406279: 3B 55 D4           cmp         edx,dword ptr [ebp-2Ch]
  0040627C: 0F 85 DB 00 00 00  jne         0040635D
  00406282: A1 38 0B 41 00     mov         eax,[00410B38]
  00406287: 89 45 E8           mov         dword ptr [ebp-18h],eax
  0040628A: 8B 4D E8           mov         ecx,dword ptr [ebp-18h]
  0040628D: 3B 0D 2C 0B 41 00  cmp         ecx,dword ptr ds:[00410B2Ch]
  00406293: 73 24              jae         004062B9
  00406295: 8B 55 E8           mov         edx,dword ptr [ebp-18h]
  00406298: 8B 45 DC           mov         eax,dword ptr [ebp-24h]
  0040629B: 23 02              and         eax,dword ptr [edx]
  0040629D: 8B 4D E8           mov         ecx,dword ptr [ebp-18h]
  004062A0: 8B 55 CC           mov         edx,dword ptr [ebp-34h]
  004062A3: 23 51 04           and         edx,dword ptr [ecx+4]
  004062A6: 0B C2              or          eax,edx
  004062A8: 85 C0              test        eax,eax
  004062AA: 74 02              je          004062AE
  004062AC: EB 0B              jmp         004062B9
  004062AE: 8B 45 E8           mov         eax,dword ptr [ebp-18h]
  004062B1: 83 C0 14           add         eax,14h
  004062B4: 89 45 E8           mov         dword ptr [ebp-18h],eax
  004062B7: EB D1              jmp         0040628A
  004062B9: 8B 4D E8           mov         ecx,dword ptr [ebp-18h]
  004062BC: 3B 0D 2C 0B 41 00  cmp         ecx,dword ptr ds:[00410B2Ch]
  004062C2: 0F 85 95 00 00 00  jne         0040635D
  004062C8: 8B 55 E8           mov         edx,dword ptr [ebp-18h]
  004062CB: 3B 55 D4           cmp         edx,dword ptr [ebp-2Ch]
  004062CE: 73 16              jae         004062E6
  004062D0: 8B 45 E8           mov         eax,dword ptr [ebp-18h]
  004062D3: 83 78 08 00        cmp         dword ptr [eax+8],0
  004062D7: 74 02              je          004062DB
  004062D9: EB 0B              jmp         004062E6
  004062DB: 8B 4D E8           mov         ecx,dword ptr [ebp-18h]
  004062DE: 83 C1 14           add         ecx,14h
  004062E1: 89 4D E8           mov         dword ptr [ebp-18h],ecx
  004062E4: EB E2              jmp         004062C8
  004062E6: 8B 55 E8           mov         edx,dword ptr [ebp-18h]
  004062E9: 3B 55 D4           cmp         edx,dword ptr [ebp-2Ch]
  004062EC: 75 49              jne         00406337
  004062EE: A1 38 0B 41 00     mov         eax,[00410B38]
  004062F3: 89 45 E8           mov         dword ptr [ebp-18h],eax
  004062F6: 8B 4D E8           mov         ecx,dword ptr [ebp-18h]
  004062F9: 3B 0D 2C 0B 41 00  cmp         ecx,dword ptr ds:[00410B2Ch]
  004062FF: 73 16              jae         00406317
  00406301: 8B 55 E8           mov         edx,dword ptr [ebp-18h]
  00406304: 83 7A 08 00        cmp         dword ptr [edx+8],0
  00406308: 74 02              je          0040630C
  0040630A: EB 0B              jmp         00406317
  0040630C: 8B 45 E8           mov         eax,dword ptr [ebp-18h]
  0040630F: 83 C0 14           add         eax,14h
  00406312: 89 45 E8           mov         dword ptr [ebp-18h],eax
  00406315: EB DF              jmp         004062F6
  00406317: 8B 4D E8           mov         ecx,dword ptr [ebp-18h]
  0040631A: 3B 0D 2C 0B 41 00  cmp         ecx,dword ptr ds:[00410B2Ch]
  00406320: 75 15              jne         00406337
  00406322: E8 F9 03 00 00     call        00406720
  00406327: 89 45 E8           mov         dword ptr [ebp-18h],eax
  0040632A: 83 7D E8 00        cmp         dword ptr [ebp-18h],0
  0040632E: 75 07              jne         00406337
  00406330: 33 C0              xor         eax,eax
  00406332: E9 DA 03 00 00     jmp         00406711
  00406337: 8B 55 E8           mov         edx,dword ptr [ebp-18h]
  0040633A: 52                 push        edx
  0040633B: E8 F0 04 00 00     call        00406830
  00406340: 83 C4 04           add         esp,4
  00406343: 8B 4D E8           mov         ecx,dword ptr [ebp-18h]
  00406346: 8B 51 10           mov         edx,dword ptr [ecx+10h]
  00406349: 89 02              mov         dword ptr [edx],eax
  0040634B: 8B 45 E8           mov         eax,dword ptr [ebp-18h]
  0040634E: 8B 48 10           mov         ecx,dword ptr [eax+10h]
  00406351: 83 39 FF           cmp         dword ptr [ecx],0FFh
  00406354: 75 07              jne         0040635D
  00406356: 33 C0              xor         eax,eax
  00406358: E9 B4 03 00 00     jmp         00406711
  0040635D: 8B 55 E8           mov         edx,dword ptr [ebp-18h]
  00406360: 89 15 2C 0B 41 00  mov         dword ptr ds:[00410B2Ch],edx
  00406366: 8B 45 E8           mov         eax,dword ptr [ebp-18h]
  00406369: 8B 48 10           mov         ecx,dword ptr [eax+10h]
  0040636C: 89 4D C8           mov         dword ptr [ebp-38h],ecx
  0040636F: 8B 55 C8           mov         edx,dword ptr [ebp-38h]
  00406372: 8B 02              mov         eax,dword ptr [edx]
  00406374: 89 45 D0           mov         dword ptr [ebp-30h],eax
  00406377: 83 7D D0 FF        cmp         dword ptr [ebp-30h],0FFh
  0040637B: 74 23              je          004063A0
  0040637D: 8B 4D D0           mov         ecx,dword ptr [ebp-30h]
  00406380: 8B 55 C8           mov         edx,dword ptr [ebp-38h]
  00406383: 8B 45 DC           mov         eax,dword ptr [ebp-24h]
  00406386: 23 44 8A 44        and         eax,dword ptr [edx+ecx*4+44h]
  0040638A: 8B 4D D0           mov         ecx,dword ptr [ebp-30h]
  0040638D: 8B 55 C8           mov         edx,dword ptr [ebp-38h]
  00406390: 8B 75 CC           mov         esi,dword ptr [ebp-34h]
  00406393: 23 B4 8A C4 00 00  and         esi,dword ptr [edx+ecx*4+000000C4h]
            00
  0040639A: 0B C6              or          eax,esi
  0040639C: 85 C0              test        eax,eax
  0040639E: 75 35              jne         004063D5
  004063A0: C7 45 D0 00 00 00  mov         dword ptr [ebp-30h],0
            00
  004063A7: 8B 45 D0           mov         eax,dword ptr [ebp-30h]
  004063AA: 8B 4D C8           mov         ecx,dword ptr [ebp-38h]
  004063AD: 8B 55 DC           mov         edx,dword ptr [ebp-24h]
  004063B0: 23 54 81 44        and         edx,dword ptr [ecx+eax*4+44h]
  004063B4: 8B 45 D0           mov         eax,dword ptr [ebp-30h]
  004063B7: 8B 4D C8           mov         ecx,dword ptr [ebp-38h]
  004063BA: 8B 75 CC           mov         esi,dword ptr [ebp-34h]
  004063BD: 23 B4 81 C4 00 00  and         esi,dword ptr [ecx+eax*4+000000C4h]
            00
  004063C4: 0B D6              or          edx,esi
  004063C6: 85 D2              test        edx,edx
  004063C8: 75 0B              jne         004063D5
  004063CA: 8B 55 D0           mov         edx,dword ptr [ebp-30h]
  004063CD: 83 C2 01           add         edx,1
  004063D0: 89 55 D0           mov         dword ptr [ebp-30h],edx
  004063D3: EB D2              jmp         004063A7
  004063D5: 8B 45 D0           mov         eax,dword ptr [ebp-30h]
  004063D8: 69 C0 04 02 00 00  imul        eax,eax,204h
  004063DE: 8B 4D C8           mov         ecx,dword ptr [ebp-38h]
  004063E1: 8D 94 01 44 01 00  lea         edx,[ecx+eax+00000144h]
            00
  004063E8: 89 55 FC           mov         dword ptr [ebp-4],edx
  004063EB: C7 45 E0 00 00 00  mov         dword ptr [ebp-20h],0
            00
  004063F2: 8B 45 D0           mov         eax,dword ptr [ebp-30h]
  004063F5: 8B 4D C8           mov         ecx,dword ptr [ebp-38h]
  004063F8: 8B 55 DC           mov         edx,dword ptr [ebp-24h]
  004063FB: 23 54 81 44        and         edx,dword ptr [ecx+eax*4+44h]
  004063FF: 89 55 E4           mov         dword ptr [ebp-1Ch],edx
  00406402: 83 7D E4 00        cmp         dword ptr [ebp-1Ch],0
  00406406: 75 1A              jne         00406422
  00406408: C7 45 E0 20 00 00  mov         dword ptr [ebp-20h],20h
            00
  0040640F: 8B 45 D0           mov         eax,dword ptr [ebp-30h]
  00406412: 8B 4D C8           mov         ecx,dword ptr [ebp-38h]
  00406415: 8B 55 CC           mov         edx,dword ptr [ebp-34h]
  00406418: 23 94 81 C4 00 00  and         edx,dword ptr [ecx+eax*4+000000C4h]
            00
  0040641F: 89 55 E4           mov         dword ptr [ebp-1Ch],edx
  00406422: 83 7D E4 00        cmp         dword ptr [ebp-1Ch],0
  00406426: 7C 13              jl          0040643B
  00406428: 8B 45 E4           mov         eax,dword ptr [ebp-1Ch]
  0040642B: D1 E0              shl         eax,1
  0040642D: 89 45 E4           mov         dword ptr [ebp-1Ch],eax
  00406430: 8B 4D E0           mov         ecx,dword ptr [ebp-20h]
  00406433: 83 C1 01           add         ecx,1
  00406436: 89 4D E0           mov         dword ptr [ebp-20h],ecx
  00406439: EB E7              jmp         00406422
  0040643B: 8B 55 E0           mov         edx,dword ptr [ebp-20h]
  0040643E: 8B 45 FC           mov         eax,dword ptr [ebp-4]
  00406441: 8B 4C D0 04        mov         ecx,dword ptr [eax+edx*8+4]
  00406445: 89 4D F0           mov         dword ptr [ebp-10h],ecx
  00406448: 8B 55 F0           mov         edx,dword ptr [ebp-10h]
  0040644B: 8B 02              mov         eax,dword ptr [edx]
  0040644D: 2B 45 D8           sub         eax,dword ptr [ebp-28h]
  00406450: 89 45 F8           mov         dword ptr [ebp-8],eax
  00406453: 8B 4D F8           mov         ecx,dword ptr [ebp-8]
  00406456: C1 F9 04           sar         ecx,4
  00406459: 83 E9 01           sub         ecx,1
  0040645C: 89 4D EC           mov         dword ptr [ebp-14h],ecx
  0040645F: 83 7D EC 3F        cmp         dword ptr [ebp-14h],3Fh
  00406463: 7E 07              jle         0040646C
  00406465: C7 45 EC 3F 00 00  mov         dword ptr [ebp-14h],3Fh
            00
  0040646C: 8B 55 EC           mov         edx,dword ptr [ebp-14h]
  0040646F: 3B 55 E0           cmp         edx,dword ptr [ebp-20h]
  00406472: 0F 84 18 02 00 00  je          00406690
  00406478: 8B 45 F0           mov         eax,dword ptr [ebp-10h]
  0040647B: 8B 4D F0           mov         ecx,dword ptr [ebp-10h]
  0040647E: 8B 50 04           mov         edx,dword ptr [eax+4]
  00406481: 3B 51 08           cmp         edx,dword ptr [ecx+8]
  00406484: 0F 85 D0 00 00 00  jne         0040655A
  0040648A: 83 7D E0 20        cmp         dword ptr [ebp-20h],20h
  0040648E: 7D 5F              jge         004064EF
  00406490: B8 00 00 00 80     mov         eax,80000000h
  00406495: 8B 4D E0           mov         ecx,dword ptr [ebp-20h]
  00406498: D3 E8              shr         eax,cl
  0040649A: F7 D0              not         eax
  0040649C: 8B 4D D0           mov         ecx,dword ptr [ebp-30h]
  0040649F: 8B 55 C8           mov         edx,dword ptr [ebp-38h]
  004064A2: 8B 4C 8A 44        mov         ecx,dword ptr [edx+ecx*4+44h]
  004064A6: 23 C8              and         ecx,eax
  004064A8: 8B 55 D0           mov         edx,dword ptr [ebp-30h]
  004064AB: 8B 45 C8           mov         eax,dword ptr [ebp-38h]
  004064AE: 89 4C 90 44        mov         dword ptr [eax+edx*4+44h],ecx
  004064B2: 8B 4D C8           mov         ecx,dword ptr [ebp-38h]
  004064B5: 03 4D E0           add         ecx,dword ptr [ebp-20h]
  004064B8: 8A 51 04           mov         dl,byte ptr [ecx+4]
  004064BB: 80 EA 01           sub         dl,1
  004064BE: 8B 45 C8           mov         eax,dword ptr [ebp-38h]
  004064C1: 03 45 E0           add         eax,dword ptr [ebp-20h]
  004064C4: 88 50 04           mov         byte ptr [eax+4],dl
  004064C7: 8B 4D C8           mov         ecx,dword ptr [ebp-38h]
  004064CA: 03 4D E0           add         ecx,dword ptr [ebp-20h]
  004064CD: 0F BE 51 04        movsx       edx,byte ptr [ecx+4]
  004064D1: 85 D2              test        edx,edx
  004064D3: 75 18              jne         004064ED
  004064D5: B8 00 00 00 80     mov         eax,80000000h
  004064DA: 8B 4D E0           mov         ecx,dword ptr [ebp-20h]
  004064DD: D3 E8              shr         eax,cl
  004064DF: F7 D0              not         eax
  004064E1: 8B 4D E8           mov         ecx,dword ptr [ebp-18h]
  004064E4: 8B 11              mov         edx,dword ptr [ecx]
  004064E6: 23 D0              and         edx,eax
  004064E8: 8B 45 E8           mov         eax,dword ptr [ebp-18h]
  004064EB: 89 10              mov         dword ptr [eax],edx
  004064ED: EB 6B              jmp         0040655A
  004064EF: 8B 4D E0           mov         ecx,dword ptr [ebp-20h]
  004064F2: 83 E9 20           sub         ecx,20h
  004064F5: BA 00 00 00 80     mov         edx,80000000h
  004064FA: D3 EA              shr         edx,cl
  004064FC: F7 D2              not         edx
  004064FE: 8B 45 D0           mov         eax,dword ptr [ebp-30h]
  00406501: 8B 4D C8           mov         ecx,dword ptr [ebp-38h]
  00406504: 8B 84 81 C4 00 00  mov         eax,dword ptr [ecx+eax*4+000000C4h]
            00
  0040650B: 23 C2              and         eax,edx
  0040650D: 8B 4D D0           mov         ecx,dword ptr [ebp-30h]
  00406510: 8B 55 C8           mov         edx,dword ptr [ebp-38h]
  00406513: 89 84 8A C4 00 00  mov         dword ptr [edx+ecx*4+000000C4h],eax
            00
  0040651A: 8B 45 C8           mov         eax,dword ptr [ebp-38h]
  0040651D: 03 45 E0           add         eax,dword ptr [ebp-20h]
  00406520: 8A 48 04           mov         cl,byte ptr [eax+4]
  00406523: 80 E9 01           sub         cl,1
  00406526: 8B 55 C8           mov         edx,dword ptr [ebp-38h]
  00406529: 03 55 E0           add         edx,dword ptr [ebp-20h]
  0040652C: 88 4A 04           mov         byte ptr [edx+4],cl
  0040652F: 8B 45 C8           mov         eax,dword ptr [ebp-38h]
  00406532: 03 45 E0           add         eax,dword ptr [ebp-20h]
  00406535: 0F BE 48 04        movsx       ecx,byte ptr [eax+4]
  00406539: 85 C9              test        ecx,ecx
  0040653B: 75 1D              jne         0040655A
  0040653D: 8B 4D E0           mov         ecx,dword ptr [ebp-20h]
  00406540: 83 E9 20           sub         ecx,20h
  00406543: BA 00 00 00 80     mov         edx,80000000h
  00406548: D3 EA              shr         edx,cl
  0040654A: F7 D2              not         edx
  0040654C: 8B 45 E8           mov         eax,dword ptr [ebp-18h]
  0040654F: 8B 48 04           mov         ecx,dword ptr [eax+4]
  00406552: 23 CA              and         ecx,edx
  00406554: 8B 55 E8           mov         edx,dword ptr [ebp-18h]
  00406557: 89 4A 04           mov         dword ptr [edx+4],ecx
  0040655A: 8B 45 F0           mov         eax,dword ptr [ebp-10h]
  0040655D: 8B 48 08           mov         ecx,dword ptr [eax+8]
  00406560: 8B 55 F0           mov         edx,dword ptr [ebp-10h]
  00406563: 8B 42 04           mov         eax,dword ptr [edx+4]
  00406566: 89 41 04           mov         dword ptr [ecx+4],eax
  00406569: 8B 4D F0           mov         ecx,dword ptr [ebp-10h]
  0040656C: 8B 51 04           mov         edx,dword ptr [ecx+4]
  0040656F: 8B 45 F0           mov         eax,dword ptr [ebp-10h]
  00406572: 8B 48 08           mov         ecx,dword ptr [eax+8]
  00406575: 89 4A 08           mov         dword ptr [edx+8],ecx
  00406578: 83 7D F8 00        cmp         dword ptr [ebp-8],0
  0040657C: 0F 84 0E 01 00 00  je          00406690
  00406582: 8B 55 EC           mov         edx,dword ptr [ebp-14h]
  00406585: 8B 45 FC           mov         eax,dword ptr [ebp-4]
  00406588: 8D 0C D0           lea         ecx,[eax+edx*8]
  0040658B: 89 4D F4           mov         dword ptr [ebp-0Ch],ecx
  0040658E: 8B 55 F0           mov         edx,dword ptr [ebp-10h]
  00406591: 8B 45 F4           mov         eax,dword ptr [ebp-0Ch]
  00406594: 8B 48 04           mov         ecx,dword ptr [eax+4]
  00406597: 89 4A 04           mov         dword ptr [edx+4],ecx
  0040659A: 8B 55 F0           mov         edx,dword ptr [ebp-10h]
  0040659D: 8B 45 F4           mov         eax,dword ptr [ebp-0Ch]
  004065A0: 89 42 08           mov         dword ptr [edx+8],eax
  004065A3: 8B 4D F4           mov         ecx,dword ptr [ebp-0Ch]
  004065A6: 8B 55 F0           mov         edx,dword ptr [ebp-10h]
  004065A9: 89 51 04           mov         dword ptr [ecx+4],edx
  004065AC: 8B 45 F0           mov         eax,dword ptr [ebp-10h]
  004065AF: 8B 48 04           mov         ecx,dword ptr [eax+4]
  004065B2: 8B 55 F0           mov         edx,dword ptr [ebp-10h]
  004065B5: 89 51 08           mov         dword ptr [ecx+8],edx
  004065B8: 8B 45 F0           mov         eax,dword ptr [ebp-10h]
  004065BB: 8B 4D F0           mov         ecx,dword ptr [ebp-10h]
  004065BE: 8B 50 04           mov         edx,dword ptr [eax+4]
  004065C1: 3B 51 08           cmp         edx,dword ptr [ecx+8]
  004065C4: 0F 85 C6 00 00 00  jne         00406690
  004065CA: 83 7D EC 20        cmp         dword ptr [ebp-14h],20h
  004065CE: 7D 5A              jge         0040662A
  004065D0: 8B 45 C8           mov         eax,dword ptr [ebp-38h]
  004065D3: 03 45 EC           add         eax,dword ptr [ebp-14h]
  004065D6: 0F BE 48 04        movsx       ecx,byte ptr [eax+4]
  004065DA: 8B 55 C8           mov         edx,dword ptr [ebp-38h]
  004065DD: 03 55 EC           add         edx,dword ptr [ebp-14h]
  004065E0: 8A 42 04           mov         al,byte ptr [edx+4]
  004065E3: 04 01              add         al,1
  004065E5: 8B 55 C8           mov         edx,dword ptr [ebp-38h]
  004065E8: 03 55 EC           add         edx,dword ptr [ebp-14h]
  004065EB: 88 42 04           mov         byte ptr [edx+4],al
  004065EE: 85 C9              test        ecx,ecx
  004065F0: 75 16              jne         00406608
  004065F2: B8 00 00 00 80     mov         eax,80000000h
  004065F7: 8B 4D EC           mov         ecx,dword ptr [ebp-14h]
  004065FA: D3 E8              shr         eax,cl
  004065FC: 8B 4D E8           mov         ecx,dword ptr [ebp-18h]
  004065FF: 8B 11              mov         edx,dword ptr [ecx]
  00406601: 0B D0              or          edx,eax
  00406603: 8B 45 E8           mov         eax,dword ptr [ebp-18h]
  00406606: 89 10              mov         dword ptr [eax],edx
  00406608: BA 00 00 00 80     mov         edx,80000000h
  0040660D: 8B 4D EC           mov         ecx,dword ptr [ebp-14h]
  00406610: D3 EA              shr         edx,cl
  00406612: 8B 45 D0           mov         eax,dword ptr [ebp-30h]
  00406615: 8B 4D C8           mov         ecx,dword ptr [ebp-38h]
  00406618: 8B 44 81 44        mov         eax,dword ptr [ecx+eax*4+44h]
  0040661C: 0B C2              or          eax,edx
  0040661E: 8B 4D D0           mov         ecx,dword ptr [ebp-30h]
  00406621: 8B 55 C8           mov         edx,dword ptr [ebp-38h]
  00406624: 89 44 8A 44        mov         dword ptr [edx+ecx*4+44h],eax
  00406628: EB 66              jmp         00406690
  0040662A: 8B 45 C8           mov         eax,dword ptr [ebp-38h]
  0040662D: 03 45 EC           add         eax,dword ptr [ebp-14h]
  00406630: 0F BE 48 04        movsx       ecx,byte ptr [eax+4]
  00406634: 8B 55 C8           mov         edx,dword ptr [ebp-38h]
  00406637: 03 55 EC           add         edx,dword ptr [ebp-14h]
  0040663A: 8A 42 04           mov         al,byte ptr [edx+4]
  0040663D: 04 01              add         al,1
  0040663F: 8B 55 C8           mov         edx,dword ptr [ebp-38h]
  00406642: 03 55 EC           add         edx,dword ptr [ebp-14h]
  00406645: 88 42 04           mov         byte ptr [edx+4],al
  00406648: 85 C9              test        ecx,ecx
  0040664A: 75 1B              jne         00406667
  0040664C: 8B 4D EC           mov         ecx,dword ptr [ebp-14h]
  0040664F: 83 E9 20           sub         ecx,20h
  00406652: B8 00 00 00 80     mov         eax,80000000h
  00406657: D3 E8              shr         eax,cl
  00406659: 8B 4D E8           mov         ecx,dword ptr [ebp-18h]
  0040665C: 8B 51 04           mov         edx,dword ptr [ecx+4]
  0040665F: 0B D0              or          edx,eax
  00406661: 8B 45 E8           mov         eax,dword ptr [ebp-18h]
  00406664: 89 50 04           mov         dword ptr [eax+4],edx
  00406667: 8B 4D EC           mov         ecx,dword ptr [ebp-14h]
  0040666A: 83 E9 20           sub         ecx,20h
  0040666D: BA 00 00 00 80     mov         edx,80000000h
  00406672: D3 EA              shr         edx,cl
  00406674: 8B 45 D0           mov         eax,dword ptr [ebp-30h]
  00406677: 8B 4D C8           mov         ecx,dword ptr [ebp-38h]
  0040667A: 8B 84 81 C4 00 00  mov         eax,dword ptr [ecx+eax*4+000000C4h]
            00
  00406681: 0B C2              or          eax,edx
  00406683: 8B 4D D0           mov         ecx,dword ptr [ebp-30h]
  00406686: 8B 55 C8           mov         edx,dword ptr [ebp-38h]
  00406689: 89 84 8A C4 00 00  mov         dword ptr [edx+ecx*4+000000C4h],eax
            00
  00406690: 83 7D F8 00        cmp         dword ptr [ebp-8],0
  00406694: 74 14              je          004066AA
  00406696: 8B 45 F0           mov         eax,dword ptr [ebp-10h]
  00406699: 8B 4D F8           mov         ecx,dword ptr [ebp-8]
  0040669C: 89 08              mov         dword ptr [eax],ecx
  0040669E: 8B 55 F0           mov         edx,dword ptr [ebp-10h]
  004066A1: 03 55 F8           add         edx,dword ptr [ebp-8]
  004066A4: 8B 45 F8           mov         eax,dword ptr [ebp-8]
  004066A7: 89 42 FC           mov         dword ptr [edx-4],eax
  004066AA: 8B 4D F0           mov         ecx,dword ptr [ebp-10h]
  004066AD: 03 4D F8           add         ecx,dword ptr [ebp-8]
  004066B0: 89 4D F0           mov         dword ptr [ebp-10h],ecx
  004066B3: 8B 55 D8           mov         edx,dword ptr [ebp-28h]
  004066B6: 83 C2 01           add         edx,1
  004066B9: 8B 45 F0           mov         eax,dword ptr [ebp-10h]
  004066BC: 89 10              mov         dword ptr [eax],edx
  004066BE: 8B 4D D8           mov         ecx,dword ptr [ebp-28h]
  004066C1: 83 C1 01           add         ecx,1
  004066C4: 8B 55 F0           mov         edx,dword ptr [ebp-10h]
  004066C7: 03 55 D8           add         edx,dword ptr [ebp-28h]
  004066CA: 89 4A FC           mov         dword ptr [edx-4],ecx
  004066CD: 8B 45 FC           mov         eax,dword ptr [ebp-4]
  004066D0: 8B 08              mov         ecx,dword ptr [eax]
  004066D2: 8B 55 FC           mov         edx,dword ptr [ebp-4]
  004066D5: 8B 02              mov         eax,dword ptr [edx]
  004066D7: 83 C0 01           add         eax,1
  004066DA: 8B 55 FC           mov         edx,dword ptr [ebp-4]
  004066DD: 89 02              mov         dword ptr [edx],eax
  004066DF: 85 C9              test        ecx,ecx
  004066E1: 75 20              jne         00406703
  004066E3: 8B 45 E8           mov         eax,dword ptr [ebp-18h]
  004066E6: 3B 05 30 0B 41 00  cmp         eax,dword ptr ds:[00410B30h]
  004066EC: 75 15              jne         00406703
  004066EE: 8B 4D D0           mov         ecx,dword ptr [ebp-30h]
  004066F1: 3B 0D 28 0B 41 00  cmp         ecx,dword ptr ds:[00410B28h]
  004066F7: 75 0A              jne         00406703
  004066F9: C7 05 30 0B 41 00  mov         dword ptr ds:[00410B30h],0
            00 00 00 00
  00406703: 8B 55 C8           mov         edx,dword ptr [ebp-38h]
  00406706: 8B 45 D0           mov         eax,dword ptr [ebp-30h]
  00406709: 89 02              mov         dword ptr [edx],eax
  0040670B: 8B 45 F0           mov         eax,dword ptr [ebp-10h]
  0040670E: 83 C0 04           add         eax,4
  00406711: 5E                 pop         esi
  00406712: 8B E5              mov         esp,ebp
  00406714: 5D                 pop         ebp
  00406715: C3                 ret
  00406716: CC                 int         3
  00406717: CC                 int         3
  00406718: CC                 int         3
  00406719: CC                 int         3
  0040671A: CC                 int         3
  0040671B: CC                 int         3
  0040671C: CC                 int         3
  0040671D: CC                 int         3
  0040671E: CC                 int         3
  0040671F: CC                 int         3
  00406720: 55                 push        ebp
  00406721: 8B EC              mov         ebp,esp
  00406723: 51                 push        ecx
  00406724: A1 34 0B 41 00     mov         eax,[00410B34]
  00406729: 3B 05 24 0B 41 00  cmp         eax,dword ptr ds:[00410B24h]
  0040672F: 75 4A              jne         0040677B
  00406731: 8B 0D 24 0B 41 00  mov         ecx,dword ptr ds:[00410B24h]
  00406737: 83 C1 10           add         ecx,10h
  0040673A: 6B C9 14           imul        ecx,ecx,14h
  0040673D: 51                 push        ecx
  0040673E: 8B 15 38 0B 41 00  mov         edx,dword ptr ds:[00410B38h]
  00406744: 52                 push        edx
  00406745: 6A 00              push        0
  00406747: A1 6C 0D 41 00     mov         eax,[00410D6C]
  0040674C: 50                 push        eax
  0040674D: FF 15 A0 B0 40 00  call        dword ptr ds:[0040B0A0h]
  00406753: 89 45 FC           mov         dword ptr [ebp-4],eax
  00406756: 83 7D FC 00        cmp         dword ptr [ebp-4],0
  0040675A: 75 07              jne         00406763
  0040675C: 33 C0              xor         eax,eax
  0040675E: E9 C8 00 00 00     jmp         0040682B
  00406763: 8B 4D FC           mov         ecx,dword ptr [ebp-4]
  00406766: 89 0D 38 0B 41 00  mov         dword ptr ds:[00410B38h],ecx
  0040676C: 8B 15 24 0B 41 00  mov         edx,dword ptr ds:[00410B24h]
  00406772: 83 C2 10           add         edx,10h
  00406775: 89 15 24 0B 41 00  mov         dword ptr ds:[00410B24h],edx
  0040677B: A1 34 0B 41 00     mov         eax,[00410B34]
  00406780: 6B C0 14           imul        eax,eax,14h
  00406783: 8B 0D 38 0B 41 00  mov         ecx,dword ptr ds:[00410B38h]
  00406789: 03 C8              add         ecx,eax
  0040678B: 89 4D FC           mov         dword ptr [ebp-4],ecx
  0040678E: 68 C4 41 00 00     push        41C4h
  00406793: 6A 08              push        8
  00406795: 8B 15 6C 0D 41 00  mov         edx,dword ptr ds:[00410D6Ch]
  0040679B: 52                 push        edx
  0040679C: FF 15 98 B0 40 00  call        dword ptr ds:[0040B098h]
  004067A2: 8B 4D FC           mov         ecx,dword ptr [ebp-4]
  004067A5: 89 41 10           mov         dword ptr [ecx+10h],eax
  004067A8: 8B 55 FC           mov         edx,dword ptr [ebp-4]
  004067AB: 83 7A 10 00        cmp         dword ptr [edx+10h],0
  004067AF: 75 04              jne         004067B5
  004067B1: 33 C0              xor         eax,eax
  004067B3: EB 76              jmp         0040682B
  004067B5: 6A 04              push        4
  004067B7: 68 00 20 00 00     push        2000h
  004067BC: 68 00 00 10 00     push        100000h
  004067C1: 6A 00              push        0
  004067C3: FF 15 9C B0 40 00  call        dword ptr ds:[0040B09Ch]
  004067C9: 8B 4D FC           mov         ecx,dword ptr [ebp-4]
  004067CC: 89 41 0C           mov         dword ptr [ecx+0Ch],eax
  004067CF: 8B 55 FC           mov         edx,dword ptr [ebp-4]
  004067D2: 83 7A 0C 00        cmp         dword ptr [edx+0Ch],0
  004067D6: 75 1A              jne         004067F2
  004067D8: 8B 45 FC           mov         eax,dword ptr [ebp-4]
  004067DB: 8B 48 10           mov         ecx,dword ptr [eax+10h]
  004067DE: 51                 push        ecx
  004067DF: 6A 00              push        0
  004067E1: 8B 15 6C 0D 41 00  mov         edx,dword ptr ds:[00410D6Ch]
  004067E7: 52                 push        edx
  004067E8: FF 15 70 B0 40 00  call        dword ptr ds:[0040B070h]
  004067EE: 33 C0              xor         eax,eax
  004067F0: EB 39              jmp         0040682B
  004067F2: 8B 45 FC           mov         eax,dword ptr [ebp-4]
  004067F5: C7 00 00 00 00 00  mov         dword ptr [eax],0
  004067FB: 8B 4D FC           mov         ecx,dword ptr [ebp-4]
  004067FE: C7 41 04 00 00 00  mov         dword ptr [ecx+4],0
            00
  00406805: 8B 55 FC           mov         edx,dword ptr [ebp-4]
  00406808: C7 42 08 FF FF FF  mov         dword ptr [edx+8],0FFFFFFFFh
            FF
  0040680F: A1 34 0B 41 00     mov         eax,[00410B34]
  00406814: 83 C0 01           add         eax,1
  00406817: A3 34 0B 41 00     mov         [00410B34],eax
  0040681C: 8B 4D FC           mov         ecx,dword ptr [ebp-4]
  0040681F: 8B 51 10           mov         edx,dword ptr [ecx+10h]
  00406822: C7 02 FF FF FF FF  mov         dword ptr [edx],0FFFFFFFFh
  00406828: 8B 45 FC           mov         eax,dword ptr [ebp-4]
  0040682B: 8B E5              mov         esp,ebp
  0040682D: 5D                 pop         ebp
  0040682E: C3                 ret
  0040682F: CC                 int         3
  00406830: 55                 push        ebp
  00406831: 8B EC              mov         ebp,esp
  00406833: 83 EC 2C           sub         esp,2Ch
  00406836: 8B 45 08           mov         eax,dword ptr [ebp+8]
  00406839: 8B 48 10           mov         ecx,dword ptr [eax+10h]
  0040683C: 89 4D D4           mov         dword ptr [ebp-2Ch],ecx
  0040683F: 8B 55 08           mov         edx,dword ptr [ebp+8]
  00406842: 8B 42 08           mov         eax,dword ptr [edx+8]
  00406845: 89 45 F8           mov         dword ptr [ebp-8],eax
  00406848: C7 45 D8 00 00 00  mov         dword ptr [ebp-28h],0
            00
  0040684F: 83 7D F8 00        cmp         dword ptr [ebp-8],0
  00406853: 7C 13              jl          00406868
  00406855: 8B 4D F8           mov         ecx,dword ptr [ebp-8]
  00406858: D1 E1              shl         ecx,1
  0040685A: 89 4D F8           mov         dword ptr [ebp-8],ecx
  0040685D: 8B 55 D8           mov         edx,dword ptr [ebp-28h]
  00406860: 83 C2 01           add         edx,1
  00406863: 89 55 D8           mov         dword ptr [ebp-28h],edx
  00406866: EB E7              jmp         0040684F
  00406868: 8B 45 D8           mov         eax,dword ptr [ebp-28h]
  0040686B: 69 C0 04 02 00 00  imul        eax,eax,204h
  00406871: 8B 4D D4           mov         ecx,dword ptr [ebp-2Ch]
  00406874: 8D 94 01 44 01 00  lea         edx,[ecx+eax+00000144h]
            00
  0040687B: 89 55 F4           mov         dword ptr [ebp-0Ch],edx
  0040687E: C7 45 E0 00 00 00  mov         dword ptr [ebp-20h],0
            00
  00406885: EB 09              jmp         00406890
  00406887: 8B 45 E0           mov         eax,dword ptr [ebp-20h]
  0040688A: 83 C0 01           add         eax,1
  0040688D: 89 45 E0           mov         dword ptr [ebp-20h],eax
  00406890: 83 7D E0 3F        cmp         dword ptr [ebp-20h],3Fh
  00406894: 7D 20              jge         004068B6
  00406896: 8B 4D E0           mov         ecx,dword ptr [ebp-20h]
  00406899: 8B 55 F4           mov         edx,dword ptr [ebp-0Ch]
  0040689C: 8D 04 CA           lea         eax,[edx+ecx*8]
  0040689F: 89 45 E8           mov         dword ptr [ebp-18h],eax
  004068A2: 8B 4D E8           mov         ecx,dword ptr [ebp-18h]
  004068A5: 8B 55 E8           mov         edx,dword ptr [ebp-18h]
  004068A8: 89 51 08           mov         dword ptr [ecx+8],edx
  004068AB: 8B 45 E8           mov         eax,dword ptr [ebp-18h]
  004068AE: 8B 4D E8           mov         ecx,dword ptr [ebp-18h]
  004068B1: 89 48 04           mov         dword ptr [eax+4],ecx
  004068B4: EB D1              jmp         00406887
  004068B6: 8B 55 D8           mov         edx,dword ptr [ebp-28h]
  004068B9: C1 E2 0F           shl         edx,0Fh
  004068BC: 8B 45 08           mov         eax,dword ptr [ebp+8]
  004068BF: 8B 48 0C           mov         ecx,dword ptr [eax+0Ch]
  004068C2: 03 CA              add         ecx,edx
  004068C4: 89 4D F0           mov         dword ptr [ebp-10h],ecx
  004068C7: 6A 04              push        4
  004068C9: 68 00 10 00 00     push        1000h
  004068CE: 68 00 80 00 00     push        8000h
  004068D3: 8B 55 F0           mov         edx,dword ptr [ebp-10h]
  004068D6: 52                 push        edx
  004068D7: FF 15 9C B0 40 00  call        dword ptr ds:[0040B09Ch]
  004068DD: 85 C0              test        eax,eax
  004068DF: 75 08              jne         004068E9
  004068E1: 83 C8 FF           or          eax,0FFh
  004068E4: E9 31 01 00 00     jmp         00406A1A
  004068E9: 8B 45 F0           mov         eax,dword ptr [ebp-10h]
  004068EC: 05 00 70 00 00     add         eax,7000h
  004068F1: 89 45 E4           mov         dword ptr [ebp-1Ch],eax
  004068F4: 8B 4D F0           mov         ecx,dword ptr [ebp-10h]
  004068F7: 89 4D FC           mov         dword ptr [ebp-4],ecx
  004068FA: EB 0C              jmp         00406908
  004068FC: 8B 55 FC           mov         edx,dword ptr [ebp-4]
  004068FF: 81 C2 00 10 00 00  add         edx,1000h
  00406905: 89 55 FC           mov         dword ptr [ebp-4],edx
  00406908: 8B 45 FC           mov         eax,dword ptr [ebp-4]
  0040690B: 3B 45 E4           cmp         eax,dword ptr [ebp-1Ch]
  0040690E: 77 5D              ja          0040696D
  00406910: 8B 4D FC           mov         ecx,dword ptr [ebp-4]
  00406913: C7 41 08 FF FF FF  mov         dword ptr [ecx+8],0FFFFFFFFh
            FF
  0040691A: 8B 55 FC           mov         edx,dword ptr [ebp-4]
  0040691D: C7 82 FC 0F 00 00  mov         dword ptr [edx+00000FFCh],0FFFFFFFFh
            FF FF FF FF
  00406927: 8B 45 FC           mov         eax,dword ptr [ebp-4]
  0040692A: 83 C0 0C           add         eax,0Ch
  0040692D: 89 45 E8           mov         dword ptr [ebp-18h],eax
  00406930: 8B 4D E8           mov         ecx,dword ptr [ebp-18h]
  00406933: C7 01 F0 0F 00 00  mov         dword ptr [ecx],0FF0h
  00406939: 8B 55 E8           mov         edx,dword ptr [ebp-18h]
  0040693C: 81 C2 00 10 00 00  add         edx,1000h
  00406942: 8B 45 E8           mov         eax,dword ptr [ebp-18h]
  00406945: 89 50 04           mov         dword ptr [eax+4],edx
  00406948: 8B 4D E8           mov         ecx,dword ptr [ebp-18h]
  0040694B: 81 E9 00 10 00 00  sub         ecx,1000h
  00406951: 8B 55 E8           mov         edx,dword ptr [ebp-18h]
  00406954: 89 4A 08           mov         dword ptr [edx+8],ecx
  00406957: 8B 45 E8           mov         eax,dword ptr [ebp-18h]
  0040695A: 05 EC 0F 00 00     add         eax,0FECh
  0040695F: 89 45 DC           mov         dword ptr [ebp-24h],eax
  00406962: 8B 4D DC           mov         ecx,dword ptr [ebp-24h]
  00406965: C7 01 F0 0F 00 00  mov         dword ptr [ecx],0FF0h
  0040696B: EB 8F              jmp         004068FC
  0040696D: 8B 55 F4           mov         edx,dword ptr [ebp-0Ch]
  00406970: 81 C2 F8 01 00 00  add         edx,1F8h
  00406976: 89 55 EC           mov         dword ptr [ebp-14h],edx
  00406979: 8B 45 F0           mov         eax,dword ptr [ebp-10h]
  0040697C: 83 C0 0C           add         eax,0Ch
  0040697F: 8B 4D EC           mov         ecx,dword ptr [ebp-14h]
  00406982: 89 41 04           mov         dword ptr [ecx+4],eax
  00406985: 8B 55 EC           mov         edx,dword ptr [ebp-14h]
  00406988: 8B 42 04           mov         eax,dword ptr [edx+4]
  0040698B: 89 45 E8           mov         dword ptr [ebp-18h],eax
  0040698E: 8B 4D E8           mov         ecx,dword ptr [ebp-18h]
  00406991: 8B 55 EC           mov         edx,dword ptr [ebp-14h]
  00406994: 89 51 08           mov         dword ptr [ecx+8],edx
  00406997: 8B 45 E4           mov         eax,dword ptr [ebp-1Ch]
  0040699A: 83 C0 0C           add         eax,0Ch
  0040699D: 8B 4D EC           mov         ecx,dword ptr [ebp-14h]
  004069A0: 89 41 08           mov         dword ptr [ecx+8],eax
  004069A3: 8B 55 EC           mov         edx,dword ptr [ebp-14h]
  004069A6: 8B 42 08           mov         eax,dword ptr [edx+8]
  004069A9: 89 45 E8           mov         dword ptr [ebp-18h],eax
  004069AC: 8B 4D E8           mov         ecx,dword ptr [ebp-18h]
  004069AF: 8B 55 EC           mov         edx,dword ptr [ebp-14h]
  004069B2: 89 51 04           mov         dword ptr [ecx+4],edx
  004069B5: 8B 45 D8           mov         eax,dword ptr [ebp-28h]
  004069B8: 8B 4D D4           mov         ecx,dword ptr [ebp-2Ch]
  004069BB: C7 44 81 44 00 00  mov         dword ptr [ecx+eax*4+44h],0
            00 00
  004069C3: 8B 55 D8           mov         edx,dword ptr [ebp-28h]
  004069C6: 8B 45 D4           mov         eax,dword ptr [ebp-2Ch]
  004069C9: C7 84 90 C4 00 00  mov         dword ptr [eax+edx*4+000000C4h],1
            00 01 00 00 00
  004069D4: 8B 4D D4           mov         ecx,dword ptr [ebp-2Ch]
  004069D7: 0F BE 51 43        movsx       edx,byte ptr [ecx+43h]
  004069DB: 8B 45 D4           mov         eax,dword ptr [ebp-2Ch]
  004069DE: 8A 48 43           mov         cl,byte ptr [eax+43h]
  004069E1: 80 C1 01           add         cl,1
  004069E4: 8B 45 D4           mov         eax,dword ptr [ebp-2Ch]
  004069E7: 88 48 43           mov         byte ptr [eax+43h],cl
  004069EA: 85 D2              test        edx,edx
  004069EC: 75 0F              jne         004069FD
  004069EE: 8B 4D 08           mov         ecx,dword ptr [ebp+8]
  004069F1: 8B 51 04           mov         edx,dword ptr [ecx+4]
  004069F4: 83 CA 01           or          edx,1
  004069F7: 8B 45 08           mov         eax,dword ptr [ebp+8]
  004069FA: 89 50 04           mov         dword ptr [eax+4],edx
  004069FD: BA 00 00 00 80     mov         edx,80000000h
  00406A02: 8B 4D D8           mov         ecx,dword ptr [ebp-28h]
  00406A05: D3 EA              shr         edx,cl
  00406A07: F7 D2              not         edx
  00406A09: 8B 45 08           mov         eax,dword ptr [ebp+8]
  00406A0C: 8B 48 08           mov         ecx,dword ptr [eax+8]
  00406A0F: 23 CA              and         ecx,edx
  00406A11: 8B 55 08           mov         edx,dword ptr [ebp+8]
  00406A14: 89 4A 08           mov         dword ptr [edx+8],ecx
  00406A17: 8B 45 D8           mov         eax,dword ptr [ebp-28h]
  00406A1A: 8B E5              mov         esp,ebp
  00406A1C: 5D                 pop         ebp
  00406A1D: C3                 ret
  00406A1E: CC                 int         3
  00406A1F: CC                 int         3
  00406A20: 55                 push        ebp
  00406A21: 8B EC              mov         ebp,esp
  00406A23: 81 EC 68 01 00 00  sub         esp,168h
  00406A29: A1 34 0B 41 00     mov         eax,[00410B34]
  00406A2E: 6B C0 14           imul        eax,eax,14h
  00406A31: 50                 push        eax
  00406A32: 8B 0D 38 0B 41 00  mov         ecx,dword ptr ds:[00410B38h]
  00406A38: 51                 push        ecx
  00406A39: FF 15 80 B0 40 00  call        dword ptr ds:[0040B080h]
  00406A3F: 85 C0              test        eax,eax
  00406A41: 74 08              je          00406A4B
  00406A43: 83 C8 FF           or          eax,0FFh
  00406A46: E9 EE 05 00 00     jmp         00407039
  00406A4B: 8B 15 38 0B 41 00  mov         edx,dword ptr ds:[00410B38h]
  00406A51: 89 95 C4 FE FF FF  mov         dword ptr [ebp+FFFFFEC4h],edx
  00406A57: C7 85 E0 FE FF FF  mov         dword ptr [ebp+FFFFFEE0h],0
            00 00 00 00
  00406A61: EB 0F              jmp         00406A72
  00406A63: 8B 85 E0 FE FF FF  mov         eax,dword ptr [ebp+FFFFFEE0h]
  00406A69: 83 C0 01           add         eax,1
  00406A6C: 89 85 E0 FE FF FF  mov         dword ptr [ebp+FFFFFEE0h],eax
  00406A72: 8B 8D E0 FE FF FF  mov         ecx,dword ptr [ebp+FFFFFEE0h]
  00406A78: 3B 0D 34 0B 41 00  cmp         ecx,dword ptr ds:[00410B34h]
  00406A7E: 0F 8D B3 05 00 00  jge         00407037
  00406A84: 8B 95 C4 FE FF FF  mov         edx,dword ptr [ebp+FFFFFEC4h]
  00406A8A: 8B 42 10           mov         eax,dword ptr [edx+10h]
  00406A8D: 89 85 A0 FE FF FF  mov         dword ptr [ebp+FFFFFEA0h],eax
  00406A93: 68 C4 41 00 00     push        41C4h
  00406A98: 8B 8D A0 FE FF FF  mov         ecx,dword ptr [ebp+FFFFFEA0h]
  00406A9E: 51                 push        ecx
  00406A9F: FF 15 80 B0 40 00  call        dword ptr ds:[0040B080h]
  00406AA5: 85 C0              test        eax,eax
  00406AA7: 74 0A              je          00406AB3
  00406AA9: B8 FE FF FF FF     mov         eax,0FFFFFFFEh
  00406AAE: E9 86 05 00 00     jmp         00407039
  00406AB3: 8B 95 C4 FE FF FF  mov         edx,dword ptr [ebp+FFFFFEC4h]
  00406AB9: 8B 42 0C           mov         eax,dword ptr [edx+0Ch]
  00406ABC: 89 85 D8 FE FF FF  mov         dword ptr [ebp+FFFFFED8h],eax
  00406AC2: 8B 8D A0 FE FF FF  mov         ecx,dword ptr [ebp+FFFFFEA0h]
  00406AC8: 81 C1 44 01 00 00  add         ecx,144h
  00406ACE: 89 4D E8           mov         dword ptr [ebp-18h],ecx
  00406AD1: 8B 95 C4 FE FF FF  mov         edx,dword ptr [ebp+FFFFFEC4h]
  00406AD7: 8B 42 08           mov         eax,dword ptr [edx+8]
  00406ADA: 89 45 FC           mov         dword ptr [ebp-4],eax
  00406ADD: C7 85 BC FE FF FF  mov         dword ptr [ebp+FFFFFEBCh],0
            00 00 00 00
  00406AE7: C7 85 A8 FE FF FF  mov         dword ptr [ebp+FFFFFEA8h],0
            00 00 00 00
  00406AF1: C7 45 F4 00 00 00  mov         dword ptr [ebp-0Ch],0
            00
  00406AF8: EB 09              jmp         00406B03
  00406AFA: 8B 4D F4           mov         ecx,dword ptr [ebp-0Ch]
  00406AFD: 83 C1 01           add         ecx,1
  00406B00: 89 4D F4           mov         dword ptr [ebp-0Ch],ecx
  00406B03: 83 7D F4 20        cmp         dword ptr [ebp-0Ch],20h
  00406B07: 0F 8D EE 04 00 00  jge         00406FFB
  00406B0D: C7 85 E4 FE FF FF  mov         dword ptr [ebp+FFFFFEE4h],0
            00 00 00 00
  00406B17: C7 85 B0 FE FF FF  mov         dword ptr [ebp+FFFFFEB0h],0
            00 00 00 00
  00406B21: C7 85 D4 FE FF FF  mov         dword ptr [ebp+FFFFFED4h],0
            00 00 00 00
  00406B2B: C7 85 B4 FE FF FF  mov         dword ptr [ebp+FFFFFEB4h],0
            00 00 00 00
  00406B35: EB 0F              jmp         00406B46
  00406B37: 8B 95 B4 FE FF FF  mov         edx,dword ptr [ebp+FFFFFEB4h]
  00406B3D: 83 C2 01           add         edx,1
  00406B40: 89 95 B4 FE FF FF  mov         dword ptr [ebp+FFFFFEB4h],edx
  00406B46: 83 BD B4 FE FF FF  cmp         dword ptr [ebp+FFFFFEB4h],40h
            40
  00406B4D: 7D 13              jge         00406B62
  00406B4F: 8B 85 B4 FE FF FF  mov         eax,dword ptr [ebp+FFFFFEB4h]
  00406B55: C7 84 85 E8 FE FF  mov         dword ptr [ebp+eax*4+FFFFFEE8h],0
            FF 00 00 00 00
  00406B60: EB D5              jmp         00406B37
  00406B62: 83 7D FC 00        cmp         dword ptr [ebp-4],0
  00406B66: 0F 8C 31 04 00 00  jl          00406F9D
  00406B6C: 68 00 80 00 00     push        8000h
  00406B71: 8B 8D D8 FE FF FF  mov         ecx,dword ptr [ebp+FFFFFED8h]
  00406B77: 51                 push        ecx
  00406B78: FF 15 80 B0 40 00  call        dword ptr ds:[0040B080h]
  00406B7E: 85 C0              test        eax,eax
  00406B80: 74 0A              je          00406B8C
  00406B82: B8 FC FF FF FF     mov         eax,0FFFFFFFCh
  00406B87: E9 AD 04 00 00     jmp         00407039
  00406B8C: 8B 95 D8 FE FF FF  mov         edx,dword ptr [ebp+FFFFFED8h]
  00406B92: 89 55 F8           mov         dword ptr [ebp-8],edx
  00406B95: C7 85 C0 FE FF FF  mov         dword ptr [ebp+FFFFFEC0h],0
            00 00 00 00
  00406B9F: EB 0F              jmp         00406BB0
  00406BA1: 8B 85 C0 FE FF FF  mov         eax,dword ptr [ebp+FFFFFEC0h]
  00406BA7: 83 C0 01           add         eax,1
  00406BAA: 89 85 C0 FE FF FF  mov         dword ptr [ebp+FFFFFEC0h],eax
  00406BB0: 83 BD C0 FE FF FF  cmp         dword ptr [ebp+FFFFFEC0h],8
            08
  00406BB7: 0F 8D 77 01 00 00  jge         00406D34
  00406BBD: 8B 4D F8           mov         ecx,dword ptr [ebp-8]
  00406BC0: 83 C1 0C           add         ecx,0Ch
  00406BC3: 89 8D D0 FE FF FF  mov         dword ptr [ebp+FFFFFED0h],ecx
  00406BC9: 8B 95 D0 FE FF FF  mov         edx,dword ptr [ebp+FFFFFED0h]
  00406BCF: 81 C2 F0 0F 00 00  add         edx,0FF0h
  00406BD5: 89 95 C8 FE FF FF  mov         dword ptr [ebp+FFFFFEC8h],edx
  00406BDB: 8B 85 D0 FE FF FF  mov         eax,dword ptr [ebp+FFFFFED0h]
  00406BE1: 83 78 FC FF        cmp         dword ptr [eax-4],0FFh
  00406BE5: 75 0B              jne         00406BF2
  00406BE7: 8B 8D C8 FE FF FF  mov         ecx,dword ptr [ebp+FFFFFEC8h]
  00406BED: 83 39 FF           cmp         dword ptr [ecx],0FFh
  00406BF0: 74 0A              je          00406BFC
  00406BF2: B8 FB FF FF FF     mov         eax,0FFFFFFFBh
  00406BF7: E9 3D 04 00 00     jmp         00407039
  00406BFC: 8B 95 D0 FE FF FF  mov         edx,dword ptr [ebp+FFFFFED0h]
  00406C02: 8B 02              mov         eax,dword ptr [edx]
  00406C04: 89 85 B8 FE FF FF  mov         dword ptr [ebp+FFFFFEB8h],eax
  00406C0A: 8B 8D B8 FE FF FF  mov         ecx,dword ptr [ebp+FFFFFEB8h]
  00406C10: 89 8D AC FE FF FF  mov         dword ptr [ebp+FFFFFEACh],ecx
  00406C16: 8B 95 AC FE FF FF  mov         edx,dword ptr [ebp+FFFFFEACh]
  00406C1C: 83 E2 01           and         edx,1
  00406C1F: 85 D2              test        edx,edx
  00406C21: 74 36              je          00406C59
  00406C23: 8B 85 B8 FE FF FF  mov         eax,dword ptr [ebp+FFFFFEB8h]
  00406C29: 83 E8 01           sub         eax,1
  00406C2C: 89 85 B8 FE FF FF  mov         dword ptr [ebp+FFFFFEB8h],eax
  00406C32: 81 BD B8 FE FF FF  cmp         dword ptr [ebp+FFFFFEB8h],400h
            00 04 00 00
  00406C3C: 7E 0A              jle         00406C48
  00406C3E: B8 FA FF FF FF     mov         eax,0FFFFFFFAh
  00406C43: E9 F1 03 00 00     jmp         00407039
  00406C48: 8B 8D D4 FE FF FF  mov         ecx,dword ptr [ebp+FFFFFED4h]
  00406C4E: 83 C1 01           add         ecx,1
  00406C51: 89 8D D4 FE FF FF  mov         dword ptr [ebp+FFFFFED4h],ecx
  00406C57: EB 42              jmp         00406C9B
  00406C59: 8B 95 B8 FE FF FF  mov         edx,dword ptr [ebp+FFFFFEB8h]
  00406C5F: C1 FA 04           sar         edx,4
  00406C62: 83 EA 01           sub         edx,1
  00406C65: 89 95 B4 FE FF FF  mov         dword ptr [ebp+FFFFFEB4h],edx
  00406C6B: 83 BD B4 FE FF FF  cmp         dword ptr [ebp+FFFFFEB4h],3Fh
            3F
  00406C72: 7E 0A              jle         00406C7E
  00406C74: C7 85 B4 FE FF FF  mov         dword ptr [ebp+FFFFFEB4h],3Fh
            3F 00 00 00
  00406C7E: 8B 85 B4 FE FF FF  mov         eax,dword ptr [ebp+FFFFFEB4h]
  00406C84: 8B 8C 85 E8 FE FF  mov         ecx,dword ptr [ebp+eax*4+FFFFFEE8h]
            FF
  00406C8B: 83 C1 01           add         ecx,1
  00406C8E: 8B 95 B4 FE FF FF  mov         edx,dword ptr [ebp+FFFFFEB4h]
  00406C94: 89 8C 95 E8 FE FF  mov         dword ptr [ebp+edx*4+FFFFFEE8h],ecx
            FF
  00406C9B: 83 BD B8 FE FF FF  cmp         dword ptr [ebp+FFFFFEB8h],10h
            10
  00406CA2: 7C 19              jl          00406CBD
  00406CA4: 8B 85 B8 FE FF FF  mov         eax,dword ptr [ebp+FFFFFEB8h]
  00406CAA: 83 E0 0F           and         eax,0Fh
  00406CAD: 85 C0              test        eax,eax
  00406CAF: 75 0C              jne         00406CBD
  00406CB1: 81 BD B8 FE FF FF  cmp         dword ptr [ebp+FFFFFEB8h],0FF0h
            F0 0F 00 00
  00406CBB: 7E 0A              jle         00406CC7
  00406CBD: B8 F9 FF FF FF     mov         eax,0FFFFFFF9h
  00406CC2: E9 72 03 00 00     jmp         00407039
  00406CC7: 8B 8D D0 FE FF FF  mov         ecx,dword ptr [ebp+FFFFFED0h]
  00406CCD: 03 8D B8 FE FF FF  add         ecx,dword ptr [ebp+FFFFFEB8h]
  00406CD3: 8B 51 FC           mov         edx,dword ptr [ecx-4]
  00406CD6: 3B 95 AC FE FF FF  cmp         edx,dword ptr [ebp+FFFFFEACh]
  00406CDC: 74 0A              je          00406CE8
  00406CDE: B8 F8 FF FF FF     mov         eax,0FFFFFFF8h
  00406CE3: E9 51 03 00 00     jmp         00407039
  00406CE8: 8B 85 D0 FE FF FF  mov         eax,dword ptr [ebp+FFFFFED0h]
  00406CEE: 03 85 B8 FE FF FF  add         eax,dword ptr [ebp+FFFFFEB8h]
  00406CF4: 89 85 D0 FE FF FF  mov         dword ptr [ebp+FFFFFED0h],eax
  00406CFA: 8B 8D D0 FE FF FF  mov         ecx,dword ptr [ebp+FFFFFED0h]
  00406D00: 3B 8D C8 FE FF FF  cmp         ecx,dword ptr [ebp+FFFFFEC8h]
  00406D06: 0F 82 F0 FE FF FF  jb          00406BFC
  00406D0C: 8B 95 D0 FE FF FF  mov         edx,dword ptr [ebp+FFFFFED0h]
  00406D12: 3B 95 C8 FE FF FF  cmp         edx,dword ptr [ebp+FFFFFEC8h]
  00406D18: 74 0A              je          00406D24
  00406D1A: B8 F8 FF FF FF     mov         eax,0FFFFFFF8h
  00406D1F: E9 15 03 00 00     jmp         00407039
  00406D24: 8B 45 F8           mov         eax,dword ptr [ebp-8]
  00406D27: 05 00 10 00 00     add         eax,1000h
  00406D2C: 89 45 F8           mov         dword ptr [ebp-8],eax
  00406D2F: E9 6D FE FF FF     jmp         00406BA1
  00406D34: 8B 4D E8           mov         ecx,dword ptr [ebp-18h]
  00406D37: 8B 11              mov         edx,dword ptr [ecx]
  00406D39: 3B 95 D4 FE FF FF  cmp         edx,dword ptr [ebp+FFFFFED4h]
  00406D3F: 74 0A              je          00406D4B
  00406D41: B8 F7 FF FF FF     mov         eax,0FFFFFFF7h
  00406D46: E9 EE 02 00 00     jmp         00407039
  00406D4B: 8B 45 E8           mov         eax,dword ptr [ebp-18h]
  00406D4E: 89 85 CC FE FF FF  mov         dword ptr [ebp+FFFFFECCh],eax
  00406D54: C7 45 EC 00 00 00  mov         dword ptr [ebp-14h],0
            00
  00406D5B: EB 09              jmp         00406D66
  00406D5D: 8B 4D EC           mov         ecx,dword ptr [ebp-14h]
  00406D60: 83 C1 01           add         ecx,1
  00406D63: 89 4D EC           mov         dword ptr [ebp-14h],ecx
  00406D66: 83 7D EC 40        cmp         dword ptr [ebp-14h],40h
  00406D6A: 0F 8D 2D 02 00 00  jge         00406F9D
  00406D70: C7 85 98 FE FF FF  mov         dword ptr [ebp+FFFFFE98h],0
            00 00 00 00
  00406D7A: 8B 95 CC FE FF FF  mov         edx,dword ptr [ebp+FFFFFECCh]
  00406D80: 89 95 D0 FE FF FF  mov         dword ptr [ebp+FFFFFED0h],edx
  00406D86: 8B 85 D0 FE FF FF  mov         eax,dword ptr [ebp+FFFFFED0h]
  00406D8C: 8B 48 04           mov         ecx,dword ptr [eax+4]
  00406D8F: 89 8D A4 FE FF FF  mov         dword ptr [ebp+FFFFFEA4h],ecx
  00406D95: 8B 95 A4 FE FF FF  mov         edx,dword ptr [ebp+FFFFFEA4h]
  00406D9B: 3B 95 CC FE FF FF  cmp         edx,dword ptr [ebp+FFFFFECCh]
  00406DA1: 0F 84 23 01 00 00  je          00406ECA
  00406DA7: 8B 45 EC           mov         eax,dword ptr [ebp-14h]
  00406DAA: 8B 8D 98 FE FF FF  mov         ecx,dword ptr [ebp+FFFFFE98h]
  00406DB0: 3B 8C 85 E8 FE FF  cmp         ecx,dword ptr [ebp+eax*4+FFFFFEE8h]
            FF
  00406DB7: 0F 84 0D 01 00 00  je          00406ECA
  00406DBD: 8B 95 A4 FE FF FF  mov         edx,dword ptr [ebp+FFFFFEA4h]
  00406DC3: 3B 95 D8 FE FF FF  cmp         edx,dword ptr [ebp+FFFFFED8h]
  00406DC9: 72 13              jb          00406DDE
  00406DCB: 8B 85 D8 FE FF FF  mov         eax,dword ptr [ebp+FFFFFED8h]
  00406DD1: 05 00 80 00 00     add         eax,8000h
  00406DD6: 39 85 A4 FE FF FF  cmp         dword ptr [ebp+FFFFFEA4h],eax
  00406DDC: 72 0A              jb          00406DE8
  00406DDE: B8 F6 FF FF FF     mov         eax,0FFFFFFF6h
  00406DE3: E9 51 02 00 00     jmp         00407039
  00406DE8: 8B 8D A4 FE FF FF  mov         ecx,dword ptr [ebp+FFFFFEA4h]
  00406DEE: 81 E1 00 F0 FF FF  and         ecx,0FFFFF000h
  00406DF4: 89 8D 9C FE FF FF  mov         dword ptr [ebp+FFFFFE9Ch],ecx
  00406DFA: 8B 95 9C FE FF FF  mov         edx,dword ptr [ebp+FFFFFE9Ch]
  00406E00: 83 C2 0C           add         edx,0Ch
  00406E03: 89 55 F0           mov         dword ptr [ebp-10h],edx
  00406E06: 8B 45 F0           mov         eax,dword ptr [ebp-10h]
  00406E09: 05 F0 0F 00 00     add         eax,0FF0h
  00406E0E: 89 85 DC FE FF FF  mov         dword ptr [ebp+FFFFFEDCh],eax
  00406E14: 8B 4D F0           mov         ecx,dword ptr [ebp-10h]
  00406E17: 3B 8D DC FE FF FF  cmp         ecx,dword ptr [ebp+FFFFFEDCh]
  00406E1D: 74 1F              je          00406E3E
  00406E1F: 8B 55 F0           mov         edx,dword ptr [ebp-10h]
  00406E22: 3B 95 A4 FE FF FF  cmp         edx,dword ptr [ebp+FFFFFEA4h]
  00406E28: 75 02              jne         00406E2C
  00406E2A: EB 12              jmp         00406E3E
  00406E2C: 8B 45 F0           mov         eax,dword ptr [ebp-10h]
  00406E2F: 8B 08              mov         ecx,dword ptr [eax]
  00406E31: 83 E1 FE           and         ecx,0FEh
  00406E34: 8B 55 F0           mov         edx,dword ptr [ebp-10h]
  00406E37: 03 D1              add         edx,ecx
  00406E39: 89 55 F0           mov         dword ptr [ebp-10h],edx
  00406E3C: EB D6              jmp         00406E14
  00406E3E: 8B 45 F0           mov         eax,dword ptr [ebp-10h]
  00406E41: 3B 85 DC FE FF FF  cmp         eax,dword ptr [ebp+FFFFFEDCh]
  00406E47: 75 0A              jne         00406E53
  00406E49: B8 F5 FF FF FF     mov         eax,0FFFFFFF5h
  00406E4E: E9 E6 01 00 00     jmp         00407039
  00406E53: 8B 8D A4 FE FF FF  mov         ecx,dword ptr [ebp+FFFFFEA4h]
  00406E59: 8B 11              mov         edx,dword ptr [ecx]
  00406E5B: C1 FA 04           sar         edx,4
  00406E5E: 83 EA 01           sub         edx,1
  00406E61: 89 95 B4 FE FF FF  mov         dword ptr [ebp+FFFFFEB4h],edx
  00406E67: 83 BD B4 FE FF FF  cmp         dword ptr [ebp+FFFFFEB4h],3Fh
            3F
  00406E6E: 7E 0A              jle         00406E7A
  00406E70: C7 85 B4 FE FF FF  mov         dword ptr [ebp+FFFFFEB4h],3Fh
            3F 00 00 00
  00406E7A: 8B 85 B4 FE FF FF  mov         eax,dword ptr [ebp+FFFFFEB4h]
  00406E80: 3B 45 EC           cmp         eax,dword ptr [ebp-14h]
  00406E83: 74 0A              je          00406E8F
  00406E85: B8 F4 FF FF FF     mov         eax,0FFFFFFF4h
  00406E8A: E9 AA 01 00 00     jmp         00407039
  00406E8F: 8B 8D A4 FE FF FF  mov         ecx,dword ptr [ebp+FFFFFEA4h]
  00406E95: 8B 51 08           mov         edx,dword ptr [ecx+8]
  00406E98: 3B 95 D0 FE FF FF  cmp         edx,dword ptr [ebp+FFFFFED0h]
  00406E9E: 74 0A              je          00406EAA
  00406EA0: B8 F3 FF FF FF     mov         eax,0FFFFFFF3h
  00406EA5: E9 8F 01 00 00     jmp         00407039
  00406EAA: 8B 85 A4 FE FF FF  mov         eax,dword ptr [ebp+FFFFFEA4h]
  00406EB0: 89 85 D0 FE FF FF  mov         dword ptr [ebp+FFFFFED0h],eax
  00406EB6: 8B 8D 98 FE FF FF  mov         ecx,dword ptr [ebp+FFFFFE98h]
  00406EBC: 83 C1 01           add         ecx,1
  00406EBF: 89 8D 98 FE FF FF  mov         dword ptr [ebp+FFFFFE98h],ecx
  00406EC5: E9 BC FE FF FF     jmp         00406D86
  00406ECA: 83 BD 98 FE FF FF  cmp         dword ptr [ebp+FFFFFE98h],0
            00
  00406ED1: 74 6E              je          00406F41
  00406ED3: 83 7D EC 20        cmp         dword ptr [ebp-14h],20h
  00406ED7: 7D 32              jge         00406F0B
  00406ED9: BA 00 00 00 80     mov         edx,80000000h
  00406EDE: 8B 4D EC           mov         ecx,dword ptr [ebp-14h]
  00406EE1: D3 EA              shr         edx,cl
  00406EE3: 8B 85 E4 FE FF FF  mov         eax,dword ptr [ebp+FFFFFEE4h]
  00406EE9: 0B C2              or          eax,edx
  00406EEB: 89 85 E4 FE FF FF  mov         dword ptr [ebp+FFFFFEE4h],eax
  00406EF1: BA 00 00 00 80     mov         edx,80000000h
  00406EF6: 8B 4D EC           mov         ecx,dword ptr [ebp-14h]
  00406EF9: D3 EA              shr         edx,cl
  00406EFB: 8B 85 BC FE FF FF  mov         eax,dword ptr [ebp+FFFFFEBCh]
  00406F01: 0B C2              or          eax,edx
  00406F03: 89 85 BC FE FF FF  mov         dword ptr [ebp+FFFFFEBCh],eax
  00406F09: EB 36              jmp         00406F41
  00406F0B: 8B 4D EC           mov         ecx,dword ptr [ebp-14h]
  00406F0E: 83 E9 20           sub         ecx,20h
  00406F11: BA 00 00 00 80     mov         edx,80000000h
  00406F16: D3 EA              shr         edx,cl
  00406F18: 8B 85 B0 FE FF FF  mov         eax,dword ptr [ebp+FFFFFEB0h]
  00406F1E: 0B C2              or          eax,edx
  00406F20: 89 85 B0 FE FF FF  mov         dword ptr [ebp+FFFFFEB0h],eax
  00406F26: 8B 4D EC           mov         ecx,dword ptr [ebp-14h]
  00406F29: 83 E9 20           sub         ecx,20h
  00406F2C: BA 00 00 00 80     mov         edx,80000000h
  00406F31: D3 EA              shr         edx,cl
  00406F33: 8B 85 A8 FE FF FF  mov         eax,dword ptr [ebp+FFFFFEA8h]
  00406F39: 0B C2              or          eax,edx
  00406F3B: 89 85 A8 FE FF FF  mov         dword ptr [ebp+FFFFFEA8h],eax
  00406F41: 8B 8D D0 FE FF FF  mov         ecx,dword ptr [ebp+FFFFFED0h]
  00406F47: 8B 51 04           mov         edx,dword ptr [ecx+4]
  00406F4A: 3B 95 CC FE FF FF  cmp         edx,dword ptr [ebp+FFFFFECCh]
  00406F50: 75 12              jne         00406F64
  00406F52: 8B 45 EC           mov         eax,dword ptr [ebp-14h]
  00406F55: 8B 8D 98 FE FF FF  mov         ecx,dword ptr [ebp+FFFFFE98h]
  00406F5B: 3B 8C 85 E8 FE FF  cmp         ecx,dword ptr [ebp+eax*4+FFFFFEE8h]
            FF
  00406F62: 74 0A              je          00406F6E
  00406F64: B8 F2 FF FF FF     mov         eax,0FFFFFFF2h
  00406F69: E9 CB 00 00 00     jmp         00407039
  00406F6E: 8B 95 CC FE FF FF  mov         edx,dword ptr [ebp+FFFFFECCh]
  00406F74: 8B 42 08           mov         eax,dword ptr [edx+8]
  00406F77: 3B 85 D0 FE FF FF  cmp         eax,dword ptr [ebp+FFFFFED0h]
  00406F7D: 74 0A              je          00406F89
  00406F7F: B8 F1 FF FF FF     mov         eax,0FFFFFFF1h
  00406F84: E9 B0 00 00 00     jmp         00407039
  00406F89: 8B 8D CC FE FF FF  mov         ecx,dword ptr [ebp+FFFFFECCh]
  00406F8F: 83 C1 08           add         ecx,8
  00406F92: 89 8D CC FE FF FF  mov         dword ptr [ebp+FFFFFECCh],ecx
  00406F98: E9 C0 FD FF FF     jmp         00406D5D
  00406F9D: 8B 55 F4           mov         edx,dword ptr [ebp-0Ch]
  00406FA0: 8B 85 A0 FE FF FF  mov         eax,dword ptr [ebp+FFFFFEA0h]
  00406FA6: 8B 8D E4 FE FF FF  mov         ecx,dword ptr [ebp+FFFFFEE4h]
  00406FAC: 3B 4C 90 44        cmp         ecx,dword ptr [eax+edx*4+44h]
  00406FB0: 75 18              jne         00406FCA
  00406FB2: 8B 55 F4           mov         edx,dword ptr [ebp-0Ch]
  00406FB5: 8B 85 A0 FE FF FF  mov         eax,dword ptr [ebp+FFFFFEA0h]
  00406FBB: 8B 8D B0 FE FF FF  mov         ecx,dword ptr [ebp+FFFFFEB0h]
  00406FC1: 3B 8C 90 C4 00 00  cmp         ecx,dword ptr [eax+edx*4+000000C4h]
            00
  00406FC8: 74 07              je          00406FD1
  00406FCA: B8 F0 FF FF FF     mov         eax,0FFFFFFF0h
  00406FCF: EB 68              jmp         00407039
  00406FD1: 8B 95 D8 FE FF FF  mov         edx,dword ptr [ebp+FFFFFED8h]
  00406FD7: 81 C2 00 80 00 00  add         edx,8000h
  00406FDD: 89 95 D8 FE FF FF  mov         dword ptr [ebp+FFFFFED8h],edx
  00406FE3: 8B 45 E8           mov         eax,dword ptr [ebp-18h]
  00406FE6: 05 04 02 00 00     add         eax,204h
  00406FEB: 89 45 E8           mov         dword ptr [ebp-18h],eax
  00406FEE: 8B 4D FC           mov         ecx,dword ptr [ebp-4]
  00406FF1: D1 E1              shl         ecx,1
  00406FF3: 89 4D FC           mov         dword ptr [ebp-4],ecx
  00406FF6: E9 FF FA FF FF     jmp         00406AFA
  00406FFB: 8B 95 C4 FE FF FF  mov         edx,dword ptr [ebp+FFFFFEC4h]
  00407001: 8B 85 BC FE FF FF  mov         eax,dword ptr [ebp+FFFFFEBCh]
  00407007: 3B 02              cmp         eax,dword ptr [edx]
  00407009: 75 11              jne         0040701C
  0040700B: 8B 8D C4 FE FF FF  mov         ecx,dword ptr [ebp+FFFFFEC4h]
  00407011: 8B 95 A8 FE FF FF  mov         edx,dword ptr [ebp+FFFFFEA8h]
  00407017: 3B 51 04           cmp         edx,dword ptr [ecx+4]
  0040701A: 74 07              je          00407023
  0040701C: B8 EF FF FF FF     mov         eax,0FFFFFFEFh
  00407021: EB 16              jmp         00407039
  00407023: 8B 85 C4 FE FF FF  mov         eax,dword ptr [ebp+FFFFFEC4h]
  00407029: 83 C0 14           add         eax,14h
  0040702C: 89 85 C4 FE FF FF  mov         dword ptr [ebp+FFFFFEC4h],eax
  00407032: E9 2C FA FF FF     jmp         00406A63
  00407037: 33 C0              xor         eax,eax
  00407039: 8B E5              mov         esp,ebp
  0040703B: 5D                 pop         ebp
  0040703C: C3                 ret
  0040703D: CC                 int         3
  0040703E: CC                 int         3
  0040703F: CC                 int         3
  00407040: 55                 push        ebp
  00407041: 8B EC              mov         ebp,esp
  00407043: 83 EC 0C           sub         esp,0Ch
  00407046: 83 3D E0 D2 40 00  cmp         dword ptr ds:[0040D2E0h],0FFh
            FF
  0040704D: 75 09              jne         00407058
  0040704F: C7 45 F4 D0 D2 40  mov         dword ptr [ebp-0Ch],40D2D0h
            00
  00407056: EB 23              jmp         0040707B
  00407058: 68 20 20 00 00     push        2020h
  0040705D: 6A 00              push        0
  0040705F: A1 6C 0D 41 00     mov         eax,[00410D6C]
  00407064: 50                 push        eax
  00407065: FF 15 98 B0 40 00  call        dword ptr ds:[0040B098h]
  0040706B: 89 45 F4           mov         dword ptr [ebp-0Ch],eax
  0040706E: 83 7D F4 00        cmp         dword ptr [ebp-0Ch],0
  00407072: 75 07              jne         0040707B
  00407074: 33 C0              xor         eax,eax
  00407076: E9 9F 01 00 00     jmp         0040721A
  0040707B: 6A 04              push        4
  0040707D: 68 00 20 00 00     push        2000h
  00407082: 68 00 00 40 00     push        400000h
  00407087: 6A 00              push        0
  00407089: FF 15 9C B0 40 00  call        dword ptr ds:[0040B09Ch]
  0040708F: 89 45 FC           mov         dword ptr [ebp-4],eax
  00407092: 83 7D FC 00        cmp         dword ptr [ebp-4],0
  00407096: 0F 84 60 01 00 00  je          004071FC
  0040709C: 6A 04              push        4
  0040709E: 68 00 10 00 00     push        1000h
  004070A3: 68 00 00 01 00     push        10000h
  004070A8: 8B 4D FC           mov         ecx,dword ptr [ebp-4]
  004070AB: 51                 push        ecx
  004070AC: FF 15 9C B0 40 00  call        dword ptr ds:[0040B09Ch]
  004070B2: 85 C0              test        eax,eax
  004070B4: 0F 84 31 01 00 00  je          004071EB
  004070BA: 81 7D F4 D0 D2 40  cmp         dword ptr [ebp-0Ch],40D2D0h
            00
  004070C1: 75 28              jne         004070EB
  004070C3: 83 3D D0 D2 40 00  cmp         dword ptr ds:[0040D2D0h],0
            00
  004070CA: 75 0A              jne         004070D6
  004070CC: C7 05 D0 D2 40 00  mov         dword ptr ds:[0040D2D0h],40D2D0h
            D0 D2 40 00
  004070D6: 83 3D D4 D2 40 00  cmp         dword ptr ds:[0040D2D4h],0
            00
  004070DD: 75 0A              jne         004070E9
  004070DF: C7 05 D4 D2 40 00  mov         dword ptr ds:[0040D2D4h],40D2D0h
            D0 D2 40 00
  004070E9: EB 29              jmp         00407114
  004070EB: 8B 55 F4           mov         edx,dword ptr [ebp-0Ch]
  004070EE: C7 02 D0 D2 40 00  mov         dword ptr [edx],40D2D0h
  004070F4: 8B 45 F4           mov         eax,dword ptr [ebp-0Ch]
  004070F7: 8B 0D D4 D2 40 00  mov         ecx,dword ptr ds:[0040D2D4h]
  004070FD: 89 48 04           mov         dword ptr [eax+4],ecx
  00407100: 8B 55 F4           mov         edx,dword ptr [ebp-0Ch]
  00407103: 89 15 D4 D2 40 00  mov         dword ptr ds:[0040D2D4h],edx
  00407109: 8B 45 F4           mov         eax,dword ptr [ebp-0Ch]
  0040710C: 8B 48 04           mov         ecx,dword ptr [eax+4]
  0040710F: 8B 55 F4           mov         edx,dword ptr [ebp-0Ch]
  00407112: 89 11              mov         dword ptr [ecx],edx
  00407114: 8B 45 F4           mov         eax,dword ptr [ebp-0Ch]
  00407117: 8B 4D FC           mov         ecx,dword ptr [ebp-4]
  0040711A: 89 48 10           mov         dword ptr [eax+10h],ecx
  0040711D: 8B 55 FC           mov         edx,dword ptr [ebp-4]
  00407120: 81 C2 00 00 40 00  add         edx,400000h
  00407126: 8B 45 F4           mov         eax,dword ptr [ebp-0Ch]
  00407129: 89 50 14           mov         dword ptr [eax+14h],edx
  0040712C: 8B 4D F4           mov         ecx,dword ptr [ebp-0Ch]
  0040712F: 83 C1 18           add         ecx,18h
  00407132: 8B 55 F4           mov         edx,dword ptr [ebp-0Ch]
  00407135: 89 4A 08           mov         dword ptr [edx+8],ecx
  00407138: 8B 45 F4           mov         eax,dword ptr [ebp-0Ch]
  0040713B: 05 98 00 00 00     add         eax,98h
  00407140: 8B 4D F4           mov         ecx,dword ptr [ebp-0Ch]
  00407143: 89 41 0C           mov         dword ptr [ecx+0Ch],eax
  00407146: C7 45 F8 00 00 00  mov         dword ptr [ebp-8],0
            00
  0040714D: EB 09              jmp         00407158
  0040714F: 8B 55 F8           mov         edx,dword ptr [ebp-8]
  00407152: 83 C2 01           add         edx,1
  00407155: 89 55 F8           mov         dword ptr [ebp-8],edx
  00407158: 81 7D F8 00 04 00  cmp         dword ptr [ebp-8],400h
            00
  0040715F: 7D 34              jge         00407195
  00407161: 83 7D F8 10        cmp         dword ptr [ebp-8],10h
  00407165: 7D 10              jge         00407177
  00407167: 8B 45 F8           mov         eax,dword ptr [ebp-8]
  0040716A: 8B 4D F4           mov         ecx,dword ptr [ebp-0Ch]
  0040716D: C7 44 C1 18 F0 00  mov         dword ptr [ecx+eax*8+18h],0F0h
            00 00
  00407175: EB 0E              jmp         00407185
  00407177: 8B 55 F8           mov         edx,dword ptr [ebp-8]
  0040717A: 8B 45 F4           mov         eax,dword ptr [ebp-0Ch]
  0040717D: C7 44 D0 18 FF FF  mov         dword ptr [eax+edx*8+18h],0FFFFFFFFh
            FF FF
  00407185: 8B 4D F8           mov         ecx,dword ptr [ebp-8]
  00407188: 8B 55 F4           mov         edx,dword ptr [ebp-0Ch]
  0040718B: C7 44 CA 1C F1 00  mov         dword ptr [edx+ecx*8+1Ch],0F1h
            00 00
  00407193: EB BA              jmp         0040714F
  00407195: 68 00 00 01 00     push        10000h
  0040719A: 6A 00              push        0
  0040719C: 8B 45 FC           mov         eax,dword ptr [ebp-4]
  0040719F: 50                 push        eax
  004071A0: E8 DB 1E 00 00     call        00409080
  004071A5: 83 C4 0C           add         esp,0Ch
  004071A8: 8B 4D F4           mov         ecx,dword ptr [ebp-0Ch]
  004071AB: 8B 51 10           mov         edx,dword ptr [ecx+10h]
  004071AE: 81 C2 00 00 01 00  add         edx,10000h
  004071B4: 39 55 FC           cmp         dword ptr [ebp-4],edx
  004071B7: 73 2D              jae         004071E6
  004071B9: 8B 45 FC           mov         eax,dword ptr [ebp-4]
  004071BC: 83 C0 08           add         eax,8
  004071BF: 8B 4D FC           mov         ecx,dword ptr [ebp-4]
  004071C2: 89 01              mov         dword ptr [ecx],eax
  004071C4: 8B 55 FC           mov         edx,dword ptr [ebp-4]
  004071C7: C7 42 04 F0 00 00  mov         dword ptr [edx+4],0F0h
            00
  004071CE: 8B 45 FC           mov         eax,dword ptr [ebp-4]
  004071D1: C6 80 F8 00 00 00  mov         byte ptr [eax+000000F8h],0FFh
            FF
  004071D8: 8B 4D FC           mov         ecx,dword ptr [ebp-4]
  004071DB: 81 C1 00 10 00 00  add         ecx,1000h
  004071E1: 89 4D FC           mov         dword ptr [ebp-4],ecx
  004071E4: EB C2              jmp         004071A8
  004071E6: 8B 45 F4           mov         eax,dword ptr [ebp-0Ch]
  004071E9: EB 2F              jmp         0040721A
  004071EB: 68 00 80 00 00     push        8000h
  004071F0: 6A 00              push        0
  004071F2: 8B 55 FC           mov         edx,dword ptr [ebp-4]
  004071F5: 52                 push        edx
  004071F6: FF 15 74 B0 40 00  call        dword ptr ds:[0040B074h]
  004071FC: 81 7D F4 D0 D2 40  cmp         dword ptr [ebp-0Ch],40D2D0h
            00
  00407203: 74 13              je          00407218
  00407205: 8B 45 F4           mov         eax,dword ptr [ebp-0Ch]
  00407208: 50                 push        eax
  00407209: 6A 00              push        0
  0040720B: 8B 0D 6C 0D 41 00  mov         ecx,dword ptr ds:[00410D6Ch]
  00407211: 51                 push        ecx
  00407212: FF 15 70 B0 40 00  call        dword ptr ds:[0040B070h]
  00407218: 33 C0              xor         eax,eax
  0040721A: 8B E5              mov         esp,ebp
  0040721C: 5D                 pop         ebp
  0040721D: C3                 ret
  0040721E: CC                 int         3
  0040721F: CC                 int         3
  00407220: 55                 push        ebp
  00407221: 8B EC              mov         ebp,esp
  00407223: 68 00 80 00 00     push        8000h
  00407228: 6A 00              push        0
  0040722A: 8B 45 08           mov         eax,dword ptr [ebp+8]
  0040722D: 8B 48 10           mov         ecx,dword ptr [eax+10h]
  00407230: 51                 push        ecx
  00407231: FF 15 74 B0 40 00  call        dword ptr ds:[0040B074h]
  00407237: 8B 15 F0 F2 40 00  mov         edx,dword ptr ds:[0040F2F0h]
  0040723D: 3B 55 08           cmp         edx,dword ptr [ebp+8]
  00407240: 75 0C              jne         0040724E
  00407242: 8B 45 08           mov         eax,dword ptr [ebp+8]
  00407245: 8B 48 04           mov         ecx,dword ptr [eax+4]
  00407248: 89 0D F0 F2 40 00  mov         dword ptr ds:[0040F2F0h],ecx
  0040724E: 81 7D 08 D0 D2 40  cmp         dword ptr [ebp+8],40D2D0h
            00
  00407255: 74 30              je          00407287
  00407257: 8B 55 08           mov         edx,dword ptr [ebp+8]
  0040725A: 8B 42 04           mov         eax,dword ptr [edx+4]
  0040725D: 8B 4D 08           mov         ecx,dword ptr [ebp+8]
  00407260: 8B 11              mov         edx,dword ptr [ecx]
  00407262: 89 10              mov         dword ptr [eax],edx
  00407264: 8B 45 08           mov         eax,dword ptr [ebp+8]
  00407267: 8B 08              mov         ecx,dword ptr [eax]
  00407269: 8B 55 08           mov         edx,dword ptr [ebp+8]
  0040726C: 8B 42 04           mov         eax,dword ptr [edx+4]
  0040726F: 89 41 04           mov         dword ptr [ecx+4],eax
  00407272: 8B 4D 08           mov         ecx,dword ptr [ebp+8]
  00407275: 51                 push        ecx
  00407276: 6A 00              push        0
  00407278: 8B 15 6C 0D 41 00  mov         edx,dword ptr ds:[00410D6Ch]
  0040727E: 52                 push        edx
  0040727F: FF 15 70 B0 40 00  call        dword ptr ds:[0040B070h]
  00407285: EB 0A              jmp         00407291
  00407287: C7 05 E0 D2 40 00  mov         dword ptr ds:[0040D2E0h],0FFFFFFFFh
            FF FF FF FF
  00407291: 5D                 pop         ebp
  00407292: C3                 ret
  00407293: CC                 int         3
  00407294: CC                 int         3
  00407295: CC                 int         3
  00407296: CC                 int         3
  00407297: CC                 int         3
  00407298: CC                 int         3
  00407299: CC                 int         3
  0040729A: CC                 int         3
  0040729B: CC                 int         3
  0040729C: CC                 int         3
  0040729D: CC                 int         3
  0040729E: CC                 int         3
  0040729F: CC                 int         3
  004072A0: 55                 push        ebp
  004072A1: 8B EC              mov         ebp,esp
  004072A3: 83 EC 14           sub         esp,14h
  004072A6: A1 D4 D2 40 00     mov         eax,[0040D2D4]
  004072AB: 89 45 EC           mov         dword ptr [ebp-14h],eax
  004072AE: 8B 4D EC           mov         ecx,dword ptr [ebp-14h]
  004072B1: 83 79 10 FF        cmp         dword ptr [ecx+10h],0FFh
  004072B5: 0F 84 23 01 00 00  je          004073DE
  004072BB: C7 45 F4 FF 03 00  mov         dword ptr [ebp-0Ch],3FFh
            00
  004072C2: C7 45 F0 00 00 00  mov         dword ptr [ebp-10h],0
            00
  004072C9: 8B 55 F4           mov         edx,dword ptr [ebp-0Ch]
  004072CC: 8B 45 EC           mov         eax,dword ptr [ebp-14h]
  004072CF: 8D 4C D0 18        lea         ecx,[eax+edx*8+18h]
  004072D3: 89 4D FC           mov         dword ptr [ebp-4],ecx
  004072D6: EB 12              jmp         004072EA
  004072D8: 8B 55 F4           mov         edx,dword ptr [ebp-0Ch]
  004072DB: 83 EA 01           sub         edx,1
  004072DE: 89 55 F4           mov         dword ptr [ebp-0Ch],edx
  004072E1: 8B 45 FC           mov         eax,dword ptr [ebp-4]
  004072E4: 83 E8 08           sub         eax,8
  004072E7: 89 45 FC           mov         dword ptr [ebp-4],eax
  004072EA: 83 7D F4 00        cmp         dword ptr [ebp-0Ch],0
  004072EE: 0F 8C 80 00 00 00  jl          00407374
  004072F4: 8B 4D FC           mov         ecx,dword ptr [ebp-4]
  004072F7: 81 39 F0 00 00 00  cmp         dword ptr [ecx],0F0h
  004072FD: 75 70              jne         0040736F
  004072FF: 68 00 40 00 00     push        4000h
  00407304: 68 00 10 00 00     push        1000h
  00407309: 8B 55 F4           mov         edx,dword ptr [ebp-0Ch]
  0040730C: C1 E2 0C           shl         edx,0Ch
  0040730F: 8B 45 EC           mov         eax,dword ptr [ebp-14h]
  00407312: 8B 48 10           mov         ecx,dword ptr [eax+10h]
  00407315: 03 CA              add         ecx,edx
  00407317: 51                 push        ecx
  00407318: FF 15 74 B0 40 00  call        dword ptr ds:[0040B074h]
  0040731E: 85 C0              test        eax,eax
  00407320: 74 4D              je          0040736F
  00407322: 8B 55 FC           mov         edx,dword ptr [ebp-4]
  00407325: C7 02 FF FF FF FF  mov         dword ptr [edx],0FFFFFFFFh
  0040732B: A1 D8 FA 40 00     mov         eax,[0040FAD8]
  00407330: 83 E8 01           sub         eax,1
  00407333: A3 D8 FA 40 00     mov         [0040FAD8],eax
  00407338: 8B 4D EC           mov         ecx,dword ptr [ebp-14h]
  0040733B: 83 79 0C 00        cmp         dword ptr [ecx+0Ch],0
  0040733F: 74 0B              je          0040734C
  00407341: 8B 55 EC           mov         edx,dword ptr [ebp-14h]
  00407344: 8B 42 0C           mov         eax,dword ptr [edx+0Ch]
  00407347: 3B 45 FC           cmp         eax,dword ptr [ebp-4]
  0040734A: 76 09              jbe         00407355
  0040734C: 8B 4D EC           mov         ecx,dword ptr [ebp-14h]
  0040734F: 8B 55 FC           mov         edx,dword ptr [ebp-4]
  00407352: 89 51 0C           mov         dword ptr [ecx+0Ch],edx
  00407355: 8B 45 F0           mov         eax,dword ptr [ebp-10h]
  00407358: 83 C0 01           add         eax,1
  0040735B: 89 45 F0           mov         dword ptr [ebp-10h],eax
  0040735E: 8B 4D 08           mov         ecx,dword ptr [ebp+8]
  00407361: 83 E9 01           sub         ecx,1
  00407364: 89 4D 08           mov         dword ptr [ebp+8],ecx
  00407367: 83 7D 08 00        cmp         dword ptr [ebp+8],0
  0040736B: 75 02              jne         0040736F
  0040736D: EB 05              jmp         00407374
  0040736F: E9 64 FF FF FF     jmp         004072D8
  00407374: 8B 55 EC           mov         edx,dword ptr [ebp-14h]
  00407377: 89 55 F8           mov         dword ptr [ebp-8],edx
  0040737A: 8B 45 EC           mov         eax,dword ptr [ebp-14h]
  0040737D: 8B 48 04           mov         ecx,dword ptr [eax+4]
  00407380: 89 4D EC           mov         dword ptr [ebp-14h],ecx
  00407383: 83 7D F0 00        cmp         dword ptr [ebp-10h],0
  00407387: 74 55              je          004073DE
  00407389: 8B 55 F8           mov         edx,dword ptr [ebp-8]
  0040738C: 83 7A 18 FF        cmp         dword ptr [edx+18h],0FFh
  00407390: 75 4C              jne         004073DE
  00407392: C7 45 F4 01 00 00  mov         dword ptr [ebp-0Ch],1
            00
  00407399: 8B 45 F8           mov         eax,dword ptr [ebp-8]
  0040739C: 83 C0 20           add         eax,20h
  0040739F: 89 45 FC           mov         dword ptr [ebp-4],eax
  004073A2: EB 12              jmp         004073B6
  004073A4: 8B 4D F4           mov         ecx,dword ptr [ebp-0Ch]
  004073A7: 83 C1 01           add         ecx,1
  004073AA: 89 4D F4           mov         dword ptr [ebp-0Ch],ecx
  004073AD: 8B 55 FC           mov         edx,dword ptr [ebp-4]
  004073B0: 83 C2 08           add         edx,8
  004073B3: 89 55 FC           mov         dword ptr [ebp-4],edx
  004073B6: 81 7D F4 00 04 00  cmp         dword ptr [ebp-0Ch],400h
            00
  004073BD: 7D 0A              jge         004073C9
  004073BF: 8B 45 FC           mov         eax,dword ptr [ebp-4]
  004073C2: 83 38 FF           cmp         dword ptr [eax],0FFh
  004073C5: 75 02              jne         004073C9
  004073C7: EB DB              jmp         004073A4
  004073C9: 81 7D F4 00 04 00  cmp         dword ptr [ebp-0Ch],400h
            00
  004073D0: 75 0C              jne         004073DE
  004073D2: 8B 4D F8           mov         ecx,dword ptr [ebp-8]
  004073D5: 51                 push        ecx
  004073D6: E8 45 FE FF FF     call        00407220
  004073DB: 83 C4 04           add         esp,4
  004073DE: 8B 55 EC           mov         edx,dword ptr [ebp-14h]
  004073E1: 3B 15 D4 D2 40 00  cmp         edx,dword ptr ds:[0040D2D4h]
  004073E7: 74 0A              je          004073F3
  004073E9: 83 7D 08 00        cmp         dword ptr [ebp+8],0
  004073ED: 0F 8F BB FE FF FF  jg          004072AE
  004073F3: 8B E5              mov         esp,ebp
  004073F5: 5D                 pop         ebp
  004073F6: C3                 ret
  004073F7: CC                 int         3
  004073F8: CC                 int         3
  004073F9: CC                 int         3
  004073FA: CC                 int         3
  004073FB: CC                 int         3
  004073FC: CC                 int         3
  004073FD: CC                 int         3
  004073FE: CC                 int         3
  004073FF: CC                 int         3
  00407400: 55                 push        ebp
  00407401: 8B EC              mov         ebp,esp
  00407403: 83 EC 08           sub         esp,8
  00407406: C7 45 F8 D0 D2 40  mov         dword ptr [ebp-8],40D2D0h
            00
  0040740D: 8B 45 F8           mov         eax,dword ptr [ebp-8]
  00407410: 8B 4D 08           mov         ecx,dword ptr [ebp+8]
  00407413: 3B 48 10           cmp         ecx,dword ptr [eax+10h]
  00407416: 76 61              jbe         00407479
  00407418: 8B 55 F8           mov         edx,dword ptr [ebp-8]
  0040741B: 8B 45 08           mov         eax,dword ptr [ebp+8]
  0040741E: 3B 42 14           cmp         eax,dword ptr [edx+14h]
  00407421: 73 56              jae         00407479
  00407423: 8B 4D 08           mov         ecx,dword ptr [ebp+8]
  00407426: 83 E1 0F           and         ecx,0Fh
  00407429: 85 C9              test        ecx,ecx
  0040742B: 75 48              jne         00407475
  0040742D: 8B 55 08           mov         edx,dword ptr [ebp+8]
  00407430: 81 E2 FF 0F 00 00  and         edx,0FFFh
  00407436: 33 C0              xor         eax,eax
  00407438: 05 00 01 00 00     add         eax,100h
  0040743D: 3B D0              cmp         edx,eax
  0040743F: 72 34              jb          00407475
  00407441: 8B 4D 0C           mov         ecx,dword ptr [ebp+0Ch]
  00407444: 8B 55 F8           mov         edx,dword ptr [ebp-8]
  00407447: 89 11              mov         dword ptr [ecx],edx
  00407449: 8B 45 08           mov         eax,dword ptr [ebp+8]
  0040744C: 25 00 F0 FF FF     and         eax,0FFFFF000h
  00407451: 89 45 FC           mov         dword ptr [ebp-4],eax
  00407454: 8B 4D 10           mov         ecx,dword ptr [ebp+10h]
  00407457: 8B 55 FC           mov         edx,dword ptr [ebp-4]
  0040745A: 89 11              mov         dword ptr [ecx],edx
  0040745C: 8B 45 FC           mov         eax,dword ptr [ebp-4]
  0040745F: 05 00 01 00 00     add         eax,100h
  00407464: 8B 4D 08           mov         ecx,dword ptr [ebp+8]
  00407467: 2B C8              sub         ecx,eax
  00407469: C1 F9 04           sar         ecx,4
  0040746C: 8B 55 FC           mov         edx,dword ptr [ebp-4]
  0040746F: 8D 44 0A 08        lea         eax,[edx+ecx+8]
  00407473: EB 17              jmp         0040748C
  00407475: 33 C0              xor         eax,eax
  00407477: EB 13              jmp         0040748C
  00407479: 8B 45 F8           mov         eax,dword ptr [ebp-8]
  0040747C: 8B 08              mov         ecx,dword ptr [eax]
  0040747E: 89 4D F8           mov         dword ptr [ebp-8],ecx
  00407481: 81 7D F8 D0 D2 40  cmp         dword ptr [ebp-8],40D2D0h
            00
  00407488: 75 83              jne         0040740D
  0040748A: 33 C0              xor         eax,eax
  0040748C: 8B E5              mov         esp,ebp
  0040748E: 5D                 pop         ebp
  0040748F: C3                 ret
  00407490: 55                 push        ebp
  00407491: 8B EC              mov         ebp,esp
  00407493: 51                 push        ecx
  00407494: 8B 45 08           mov         eax,dword ptr [ebp+8]
  00407497: 8B 4D 0C           mov         ecx,dword ptr [ebp+0Ch]
  0040749A: 2B 48 10           sub         ecx,dword ptr [eax+10h]
  0040749D: C1 F9 0C           sar         ecx,0Ch
  004074A0: 8B 55 08           mov         edx,dword ptr [ebp+8]
  004074A3: 8D 44 CA 18        lea         eax,[edx+ecx*8+18h]
  004074A7: 89 45 FC           mov         dword ptr [ebp-4],eax
  004074AA: 8B 4D 10           mov         ecx,dword ptr [ebp+10h]
  004074AD: 33 D2              xor         edx,edx
  004074AF: 8A 11              mov         dl,byte ptr [ecx]
  004074B1: 8B 45 FC           mov         eax,dword ptr [ebp-4]
  004074B4: 8B 08              mov         ecx,dword ptr [eax]
  004074B6: 03 CA              add         ecx,edx
  004074B8: 8B 55 FC           mov         edx,dword ptr [ebp-4]
  004074BB: 89 0A              mov         dword ptr [edx],ecx
  004074BD: 8B 45 10           mov         eax,dword ptr [ebp+10h]
  004074C0: C6 00 00           mov         byte ptr [eax],0
  004074C3: 8B 4D FC           mov         ecx,dword ptr [ebp-4]
  004074C6: C7 41 04 F1 00 00  mov         dword ptr [ecx+4],0F1h
            00
  004074CD: 8B 55 FC           mov         edx,dword ptr [ebp-4]
  004074D0: 81 3A F0 00 00 00  cmp         dword ptr [edx],0F0h
  004074D6: 75 20              jne         004074F8
  004074D8: A1 D8 FA 40 00     mov         eax,[0040FAD8]
  004074DD: 83 C0 01           add         eax,1
  004074E0: A3 D8 FA 40 00     mov         [0040FAD8],eax
  004074E5: 83 3D D8 FA 40 00  cmp         dword ptr ds:[0040FAD8h],20h
            20
  004074EC: 75 0A              jne         004074F8
  004074EE: 6A 10              push        10h
  004074F0: E8 AB FD FF FF     call        004072A0
  004074F5: 83 C4 04           add         esp,4
  004074F8: 8B E5              mov         esp,ebp
  004074FA: 5D                 pop         ebp
  004074FB: C3                 ret
  004074FC: CC                 int         3
  004074FD: CC                 int         3
  004074FE: CC                 int         3
  004074FF: CC                 int         3
  00407500: 55                 push        ebp
  00407501: 8B EC              mov         ebp,esp
  00407503: 83 EC 20           sub         esp,20h
  00407506: A1 F0 F2 40 00     mov         eax,[0040F2F0]
  0040750B: 89 45 E0           mov         dword ptr [ebp-20h],eax
  0040750E: 8B 4D E0           mov         ecx,dword ptr [ebp-20h]
  00407511: 83 79 10 FF        cmp         dword ptr [ecx+10h],0FFh
  00407515: 0F 84 5C 01 00 00  je          00407677
  0040751B: 8B 55 E0           mov         edx,dword ptr [ebp-20h]
  0040751E: 8B 42 08           mov         eax,dword ptr [edx+8]
  00407521: 89 45 FC           mov         dword ptr [ebp-4],eax
  00407524: 8B 4D E0           mov         ecx,dword ptr [ebp-20h]
  00407527: 81 C1 18 20 00 00  add         ecx,2018h
  0040752D: 89 4D F0           mov         dword ptr [ebp-10h],ecx
  00407530: 8B 55 E0           mov         edx,dword ptr [ebp-20h]
  00407533: 83 C2 18           add         edx,18h
  00407536: 8B 45 FC           mov         eax,dword ptr [ebp-4]
  00407539: 2B C2              sub         eax,edx
  0040753B: C1 F8 03           sar         eax,3
  0040753E: C1 E0 0C           shl         eax,0Ch
  00407541: 8B 4D E0           mov         ecx,dword ptr [ebp-20h]
  00407544: 8B 51 10           mov         edx,dword ptr [ecx+10h]
  00407547: 03 D0              add         edx,eax
  00407549: 89 55 F8           mov         dword ptr [ebp-8],edx
  0040754C: EB 15              jmp         00407563
  0040754E: 8B 45 FC           mov         eax,dword ptr [ebp-4]
  00407551: 83 C0 08           add         eax,8
  00407554: 89 45 FC           mov         dword ptr [ebp-4],eax
  00407557: 8B 4D F8           mov         ecx,dword ptr [ebp-8]
  0040755A: 81 C1 00 10 00 00  add         ecx,1000h
  00407560: 89 4D F8           mov         dword ptr [ebp-8],ecx
  00407563: 8B 55 FC           mov         edx,dword ptr [ebp-4]
  00407566: 3B 55 F0           cmp         edx,dword ptr [ebp-10h]
  00407569: 73 69              jae         004075D4
  0040756B: 8B 45 FC           mov         eax,dword ptr [ebp-4]
  0040756E: 8B 08              mov         ecx,dword ptr [eax]
  00407570: 3B 4D 08           cmp         ecx,dword ptr [ebp+8]
  00407573: 7C 5A              jl          004075CF
  00407575: 8B 55 FC           mov         edx,dword ptr [ebp-4]
  00407578: 8B 42 04           mov         eax,dword ptr [edx+4]
  0040757B: 3B 45 08           cmp         eax,dword ptr [ebp+8]
  0040757E: 76 4F              jbe         004075CF
  00407580: 8B 4D 08           mov         ecx,dword ptr [ebp+8]
  00407583: 51                 push        ecx
  00407584: 8B 55 FC           mov         edx,dword ptr [ebp-4]
  00407587: 8B 02              mov         eax,dword ptr [edx]
  00407589: 50                 push        eax
  0040758A: 8B 4D F8           mov         ecx,dword ptr [ebp-8]
  0040758D: 51                 push        ecx
  0040758E: E8 2D 03 00 00     call        004078C0
  00407593: 83 C4 0C           add         esp,0Ch
  00407596: 89 45 F4           mov         dword ptr [ebp-0Ch],eax
  00407599: 83 7D F4 00        cmp         dword ptr [ebp-0Ch],0
  0040759D: 74 27              je          004075C6
  0040759F: 8B 55 E0           mov         edx,dword ptr [ebp-20h]
  004075A2: 89 15 F0 F2 40 00  mov         dword ptr ds:[0040F2F0h],edx
  004075A8: 8B 45 FC           mov         eax,dword ptr [ebp-4]
  004075AB: 8B 08              mov         ecx,dword ptr [eax]
  004075AD: 2B 4D 08           sub         ecx,dword ptr [ebp+8]
  004075B0: 8B 55 FC           mov         edx,dword ptr [ebp-4]
  004075B3: 89 0A              mov         dword ptr [edx],ecx
  004075B5: 8B 45 E0           mov         eax,dword ptr [ebp-20h]
  004075B8: 8B 4D FC           mov         ecx,dword ptr [ebp-4]
  004075BB: 89 48 08           mov         dword ptr [eax+8],ecx
  004075BE: 8B 45 F4           mov         eax,dword ptr [ebp-0Ch]
  004075C1: E9 EE 02 00 00     jmp         004078B4
  004075C6: 8B 55 FC           mov         edx,dword ptr [ebp-4]
  004075C9: 8B 45 08           mov         eax,dword ptr [ebp+8]
  004075CC: 89 42 04           mov         dword ptr [edx+4],eax
  004075CF: E9 7A FF FF FF     jmp         0040754E
  004075D4: 8B 4D E0           mov         ecx,dword ptr [ebp-20h]
  004075D7: 83 C1 18           add         ecx,18h
  004075DA: 89 4D FC           mov         dword ptr [ebp-4],ecx
  004075DD: 8B 55 E0           mov         edx,dword ptr [ebp-20h]
  004075E0: 8B 42 08           mov         eax,dword ptr [edx+8]
  004075E3: 89 45 F0           mov         dword ptr [ebp-10h],eax
  004075E6: 8B 4D E0           mov         ecx,dword ptr [ebp-20h]
  004075E9: 8B 51 10           mov         edx,dword ptr [ecx+10h]
  004075EC: 89 55 F8           mov         dword ptr [ebp-8],edx
  004075EF: EB 15              jmp         00407606
  004075F1: 8B 45 FC           mov         eax,dword ptr [ebp-4]
  004075F4: 83 C0 08           add         eax,8
  004075F7: 89 45 FC           mov         dword ptr [ebp-4],eax
  004075FA: 8B 4D F8           mov         ecx,dword ptr [ebp-8]
  004075FD: 81 C1 00 10 00 00  add         ecx,1000h
  00407603: 89 4D F8           mov         dword ptr [ebp-8],ecx
  00407606: 8B 55 FC           mov         edx,dword ptr [ebp-4]
  00407609: 3B 55 F0           cmp         edx,dword ptr [ebp-10h]
  0040760C: 73 69              jae         00407677
  0040760E: 8B 45 FC           mov         eax,dword ptr [ebp-4]
  00407611: 8B 08              mov         ecx,dword ptr [eax]
  00407613: 3B 4D 08           cmp         ecx,dword ptr [ebp+8]
  00407616: 7C 5A              jl          00407672
  00407618: 8B 55 FC           mov         edx,dword ptr [ebp-4]
  0040761B: 8B 42 04           mov         eax,dword ptr [edx+4]
  0040761E: 3B 45 08           cmp         eax,dword ptr [ebp+8]
  00407621: 76 4F              jbe         00407672
  00407623: 8B 4D 08           mov         ecx,dword ptr [ebp+8]
  00407626: 51                 push        ecx
  00407627: 8B 55 FC           mov         edx,dword ptr [ebp-4]
  0040762A: 8B 02              mov         eax,dword ptr [edx]
  0040762C: 50                 push        eax
  0040762D: 8B 4D F8           mov         ecx,dword ptr [ebp-8]
  00407630: 51                 push        ecx
  00407631: E8 8A 02 00 00     call        004078C0
  00407636: 83 C4 0C           add         esp,0Ch
  00407639: 89 45 F4           mov         dword ptr [ebp-0Ch],eax
  0040763C: 83 7D F4 00        cmp         dword ptr [ebp-0Ch],0
  00407640: 74 27              je          00407669
  00407642: 8B 55 E0           mov         edx,dword ptr [ebp-20h]
  00407645: 89 15 F0 F2 40 00  mov         dword ptr ds:[0040F2F0h],edx
  0040764B: 8B 45 FC           mov         eax,dword ptr [ebp-4]
  0040764E: 8B 08              mov         ecx,dword ptr [eax]
  00407650: 2B 4D 08           sub         ecx,dword ptr [ebp+8]
  00407653: 8B 55 FC           mov         edx,dword ptr [ebp-4]
  00407656: 89 0A              mov         dword ptr [edx],ecx
  00407658: 8B 45 E0           mov         eax,dword ptr [ebp-20h]
  0040765B: 8B 4D FC           mov         ecx,dword ptr [ebp-4]
  0040765E: 89 48 08           mov         dword ptr [eax+8],ecx
  00407661: 8B 45 F4           mov         eax,dword ptr [ebp-0Ch]
  00407664: E9 4B 02 00 00     jmp         004078B4
  00407669: 8B 55 FC           mov         edx,dword ptr [ebp-4]
  0040766C: 8B 45 08           mov         eax,dword ptr [ebp+8]
  0040766F: 89 42 04           mov         dword ptr [edx+4],eax
  00407672: E9 7A FF FF FF     jmp         004075F1
  00407677: 8B 4D E0           mov         ecx,dword ptr [ebp-20h]
  0040767A: 8B 11              mov         edx,dword ptr [ecx]
  0040767C: 89 55 E0           mov         dword ptr [ebp-20h],edx
  0040767F: 8B 45 E0           mov         eax,dword ptr [ebp-20h]
  00407682: 3B 05 F0 F2 40 00  cmp         eax,dword ptr ds:[0040F2F0h]
  00407688: 0F 85 80 FE FF FF  jne         0040750E
  0040768E: C7 45 E0 D0 D2 40  mov         dword ptr [ebp-20h],40D2D0h
            00
  00407695: 8B 4D E0           mov         ecx,dword ptr [ebp-20h]
  00407698: 83 79 10 FF        cmp         dword ptr [ecx+10h],0FFh
  0040769C: 0F 84 95 01 00 00  je          00407837
  004076A2: 8B 55 E0           mov         edx,dword ptr [ebp-20h]
  004076A5: 83 7A 0C 00        cmp         dword ptr [edx+0Ch],0
  004076A9: 0F 84 88 01 00 00  je          00407837
  004076AF: 8B 45 E0           mov         eax,dword ptr [ebp-20h]
  004076B2: 8B 48 0C           mov         ecx,dword ptr [eax+0Ch]
  004076B5: 89 4D FC           mov         dword ptr [ebp-4],ecx
  004076B8: 8B 55 E0           mov         edx,dword ptr [ebp-20h]
  004076BB: 83 C2 18           add         edx,18h
  004076BE: 8B 45 FC           mov         eax,dword ptr [ebp-4]
  004076C1: 2B C2              sub         eax,edx
  004076C3: C1 F8 03           sar         eax,3
  004076C6: C1 E0 0C           shl         eax,0Ch
  004076C9: 8B 4D E0           mov         ecx,dword ptr [ebp-20h]
  004076CC: 8B 51 10           mov         edx,dword ptr [ecx+10h]
  004076CF: 03 D0              add         edx,eax
  004076D1: 89 55 F8           mov         dword ptr [ebp-8],edx
  004076D4: C7 45 EC 00 00 00  mov         dword ptr [ebp-14h],0
            00
  004076DB: 8B 45 FC           mov         eax,dword ptr [ebp-4]
  004076DE: 89 45 F0           mov         dword ptr [ebp-10h],eax
  004076E1: EB 12              jmp         004076F5
  004076E3: 8B 4D F0           mov         ecx,dword ptr [ebp-10h]
  004076E6: 83 C1 08           add         ecx,8
  004076E9: 89 4D F0           mov         dword ptr [ebp-10h],ecx
  004076EC: 8B 55 EC           mov         edx,dword ptr [ebp-14h]
  004076EF: 83 C2 01           add         edx,1
  004076F2: 89 55 EC           mov         dword ptr [ebp-14h],edx
  004076F5: 8B 45 F0           mov         eax,dword ptr [ebp-10h]
  004076F8: 83 38 FF           cmp         dword ptr [eax],0FFh
  004076FB: 75 08              jne         00407705
  004076FD: 83 7D EC 10        cmp         dword ptr [ebp-14h],10h
  00407701: 7D 02              jge         00407705
  00407703: EB DE              jmp         004076E3
  00407705: 6A 04              push        4
  00407707: 68 00 10 00 00     push        1000h
  0040770C: 8B 4D EC           mov         ecx,dword ptr [ebp-14h]
  0040770F: C1 E1 0C           shl         ecx,0Ch
  00407712: 51                 push        ecx
  00407713: 8B 55 F8           mov         edx,dword ptr [ebp-8]
  00407716: 52                 push        edx
  00407717: FF 15 9C B0 40 00  call        dword ptr ds:[0040B09Ch]
  0040771D: 3B 45 F8           cmp         eax,dword ptr [ebp-8]
  00407720: 0F 85 0D 01 00 00  jne         00407833
  00407726: 6A 00              push        0
  00407728: 8B 45 EC           mov         eax,dword ptr [ebp-14h]
  0040772B: C1 E0 0C           shl         eax,0Ch
  0040772E: 50                 push        eax
  0040772F: 8B 4D F8           mov         ecx,dword ptr [ebp-8]
  00407732: 51                 push        ecx
  00407733: E8 48 19 00 00     call        00409080
  00407738: 83 C4 0C           add         esp,0Ch
  0040773B: C7 45 E8 00 00 00  mov         dword ptr [ebp-18h],0
            00
  00407742: 8B 55 F8           mov         edx,dword ptr [ebp-8]
  00407745: 89 55 E4           mov         dword ptr [ebp-1Ch],edx
  00407748: 8B 45 FC           mov         eax,dword ptr [ebp-4]
  0040774B: 89 45 F0           mov         dword ptr [ebp-10h],eax
  0040774E: EB 1E              jmp         0040776E
  00407750: 8B 4D E8           mov         ecx,dword ptr [ebp-18h]
  00407753: 83 C1 01           add         ecx,1
  00407756: 89 4D E8           mov         dword ptr [ebp-18h],ecx
  00407759: 8B 55 E4           mov         edx,dword ptr [ebp-1Ch]
  0040775C: 81 C2 00 10 00 00  add         edx,1000h
  00407762: 89 55 E4           mov         dword ptr [ebp-1Ch],edx
  00407765: 8B 45 F0           mov         eax,dword ptr [ebp-10h]
  00407768: 83 C0 08           add         eax,8
  0040776B: 89 45 F0           mov         dword ptr [ebp-10h],eax
  0040776E: 8B 4D E8           mov         ecx,dword ptr [ebp-18h]
  00407771: 3B 4D EC           cmp         ecx,dword ptr [ebp-14h]
  00407774: 7D 34              jge         004077AA
  00407776: 8B 55 E4           mov         edx,dword ptr [ebp-1Ch]
  00407779: 83 C2 08           add         edx,8
  0040777C: 8B 45 E4           mov         eax,dword ptr [ebp-1Ch]
  0040777F: 89 10              mov         dword ptr [eax],edx
  00407781: 8B 4D E4           mov         ecx,dword ptr [ebp-1Ch]
  00407784: C7 41 04 F0 00 00  mov         dword ptr [ecx+4],0F0h
            00
  0040778B: 8B 55 E4           mov         edx,dword ptr [ebp-1Ch]
  0040778E: C6 82 F8 00 00 00  mov         byte ptr [edx+000000F8h],0FFh
            FF
  00407795: 8B 45 F0           mov         eax,dword ptr [ebp-10h]
  00407798: C7 00 F0 00 00 00  mov         dword ptr [eax],0F0h
  0040779E: 8B 4D F0           mov         ecx,dword ptr [ebp-10h]
  004077A1: C7 41 04 F1 00 00  mov         dword ptr [ecx+4],0F1h
            00
  004077A8: EB A6              jmp         00407750
  004077AA: 8B 55 E0           mov         edx,dword ptr [ebp-20h]
  004077AD: 89 15 F0 F2 40 00  mov         dword ptr ds:[0040F2F0h],edx
  004077B3: 8B 45 E0           mov         eax,dword ptr [ebp-20h]
  004077B6: 05 18 20 00 00     add         eax,2018h
  004077BB: 39 45 F0           cmp         dword ptr [ebp-10h],eax
  004077BE: 73 13              jae         004077D3
  004077C0: 8B 4D F0           mov         ecx,dword ptr [ebp-10h]
  004077C3: 83 39 FF           cmp         dword ptr [ecx],0FFh
  004077C6: 74 0B              je          004077D3
  004077C8: 8B 55 F0           mov         edx,dword ptr [ebp-10h]
  004077CB: 83 C2 08           add         edx,8
  004077CE: 89 55 F0           mov         dword ptr [ebp-10h],edx
  004077D1: EB E0              jmp         004077B3
  004077D3: 8B 45 E0           mov         eax,dword ptr [ebp-20h]
  004077D6: 05 18 20 00 00     add         eax,2018h
  004077DB: 39 45 F0           cmp         dword ptr [ebp-10h],eax
  004077DE: 1B C9              sbb         ecx,ecx
  004077E0: 23 4D F0           and         ecx,dword ptr [ebp-10h]
  004077E3: 8B 55 E0           mov         edx,dword ptr [ebp-20h]
  004077E6: 89 4A 0C           mov         dword ptr [edx+0Ch],ecx
  004077E9: 8B 45 F8           mov         eax,dword ptr [ebp-8]
  004077EC: 8A 4D 08           mov         cl,byte ptr [ebp+8]
  004077EF: 88 48 08           mov         byte ptr [eax+8],cl
  004077F2: 8B 55 E0           mov         edx,dword ptr [ebp-20h]
  004077F5: 8B 45 FC           mov         eax,dword ptr [ebp-4]
  004077F8: 89 42 08           mov         dword ptr [edx+8],eax
  004077FB: 8B 4D FC           mov         ecx,dword ptr [ebp-4]
  004077FE: 8B 11              mov         edx,dword ptr [ecx]
  00407800: 2B 55 08           sub         edx,dword ptr [ebp+8]
  00407803: 8B 45 FC           mov         eax,dword ptr [ebp-4]
  00407806: 89 10              mov         dword ptr [eax],edx
  00407808: 8B 4D 08           mov         ecx,dword ptr [ebp+8]
  0040780B: 8B 55 F8           mov         edx,dword ptr [ebp-8]
  0040780E: 8D 44 0A 08        lea         eax,[edx+ecx+8]
  00407812: 8B 4D F8           mov         ecx,dword ptr [ebp-8]
  00407815: 89 01              mov         dword ptr [ecx],eax
  00407817: 8B 55 F8           mov         edx,dword ptr [ebp-8]
  0040781A: 8B 42 04           mov         eax,dword ptr [edx+4]
  0040781D: 2B 45 08           sub         eax,dword ptr [ebp+8]
  00407820: 8B 4D F8           mov         ecx,dword ptr [ebp-8]
  00407823: 89 41 04           mov         dword ptr [ecx+4],eax
  00407826: 8B 45 F8           mov         eax,dword ptr [ebp-8]
  00407829: 05 00 01 00 00     add         eax,100h
  0040782E: E9 81 00 00 00     jmp         004078B4
  00407833: 33 C0              xor         eax,eax
  00407835: EB 7D              jmp         004078B4
  00407837: 8B 55 E0           mov         edx,dword ptr [ebp-20h]
  0040783A: 8B 02              mov         eax,dword ptr [edx]
  0040783C: 89 45 E0           mov         dword ptr [ebp-20h],eax
  0040783F: 81 7D E0 D0 D2 40  cmp         dword ptr [ebp-20h],40D2D0h
            00
  00407846: 0F 85 49 FE FF FF  jne         00407695
  0040784C: E8 EF F7 FF FF     call        00407040
  00407851: 89 45 E0           mov         dword ptr [ebp-20h],eax
  00407854: 83 7D E0 00        cmp         dword ptr [ebp-20h],0
  00407858: 74 58              je          004078B2
  0040785A: 8B 4D E0           mov         ecx,dword ptr [ebp-20h]
  0040785D: 8B 51 10           mov         edx,dword ptr [ecx+10h]
  00407860: 89 55 F8           mov         dword ptr [ebp-8],edx
  00407863: 8B 45 F8           mov         eax,dword ptr [ebp-8]
  00407866: 8A 4D 08           mov         cl,byte ptr [ebp+8]
  00407869: 88 48 08           mov         byte ptr [eax+8],cl
  0040786C: 8B 55 E0           mov         edx,dword ptr [ebp-20h]
  0040786F: 89 15 F0 F2 40 00  mov         dword ptr ds:[0040F2F0h],edx
  00407875: 8B 45 08           mov         eax,dword ptr [ebp+8]
  00407878: 8B 4D F8           mov         ecx,dword ptr [ebp-8]
  0040787B: 8D 54 01 08        lea         edx,[ecx+eax+8]
  0040787F: 8B 45 F8           mov         eax,dword ptr [ebp-8]
  00407882: 89 10              mov         dword ptr [eax],edx
  00407884: B9 F0 00 00 00     mov         ecx,0F0h
  00407889: 2B 4D 08           sub         ecx,dword ptr [ebp+8]
  0040788C: 8B 55 F8           mov         edx,dword ptr [ebp-8]
  0040788F: 89 4A 04           mov         dword ptr [edx+4],ecx
  00407892: 8B 45 08           mov         eax,dword ptr [ebp+8]
  00407895: 25 FF 00 00 00     and         eax,0FFh
  0040789A: 8B 4D E0           mov         ecx,dword ptr [ebp-20h]
  0040789D: 8B 51 18           mov         edx,dword ptr [ecx+18h]
  004078A0: 2B D0              sub         edx,eax
  004078A2: 8B 45 E0           mov         eax,dword ptr [ebp-20h]
  004078A5: 89 50 18           mov         dword ptr [eax+18h],edx
  004078A8: 8B 45 F8           mov         eax,dword ptr [ebp-8]
  004078AB: 05 00 01 00 00     add         eax,100h
  004078B0: EB 02              jmp         004078B4
  004078B2: 33 C0              xor         eax,eax
  004078B4: 8B E5              mov         esp,ebp
  004078B6: 5D                 pop         ebp
  004078B7: C3                 ret
  004078B8: CC                 int         3
  004078B9: CC                 int         3
  004078BA: CC                 int         3
  004078BB: CC                 int         3
  004078BC: CC                 int         3
  004078BD: CC                 int         3
  004078BE: CC                 int         3
  004078BF: CC                 int         3
  004078C0: 55                 push        ebp
  004078C1: 8B EC              mov         ebp,esp
  004078C3: 83 EC 14           sub         esp,14h
  004078C6: 8B 45 08           mov         eax,dword ptr [ebp+8]
  004078C9: 8B 08              mov         ecx,dword ptr [eax]
  004078CB: 89 4D FC           mov         dword ptr [ebp-4],ecx
  004078CE: 8B 55 FC           mov         edx,dword ptr [ebp-4]
  004078D1: 89 55 F8           mov         dword ptr [ebp-8],edx
  004078D4: 8B 45 08           mov         eax,dword ptr [ebp+8]
  004078D7: 05 F8 00 00 00     add         eax,0F8h
  004078DC: 89 45 EC           mov         dword ptr [ebp-14h],eax
  004078DF: 8B 4D 08           mov         ecx,dword ptr [ebp+8]
  004078E2: 8B 51 04           mov         edx,dword ptr [ecx+4]
  004078E5: 3B 55 10           cmp         edx,dword ptr [ebp+10h]
  004078E8: 72 63              jb          0040794D
  004078EA: 8B 45 F8           mov         eax,dword ptr [ebp-8]
  004078ED: 8A 4D 10           mov         cl,byte ptr [ebp+10h]
  004078F0: 88 08              mov         byte ptr [eax],cl
  004078F2: 8B 55 F8           mov         edx,dword ptr [ebp-8]
  004078F5: 03 55 10           add         edx,dword ptr [ebp+10h]
  004078F8: 3B 55 EC           cmp         edx,dword ptr [ebp-14h]
  004078FB: 73 1E              jae         0040791B
  004078FD: 8B 45 08           mov         eax,dword ptr [ebp+8]
  00407900: 8B 08              mov         ecx,dword ptr [eax]
  00407902: 03 4D 10           add         ecx,dword ptr [ebp+10h]
  00407905: 8B 55 08           mov         edx,dword ptr [ebp+8]
  00407908: 89 0A              mov         dword ptr [edx],ecx
  0040790A: 8B 45 08           mov         eax,dword ptr [ebp+8]
  0040790D: 8B 48 04           mov         ecx,dword ptr [eax+4]
  00407910: 2B 4D 10           sub         ecx,dword ptr [ebp+10h]
  00407913: 8B 55 08           mov         edx,dword ptr [ebp+8]
  00407916: 89 4A 04           mov         dword ptr [edx+4],ecx
  00407919: EB 15              jmp         00407930
  0040791B: 8B 45 08           mov         eax,dword ptr [ebp+8]
  0040791E: 83 C0 08           add         eax,8
  00407921: 8B 4D 08           mov         ecx,dword ptr [ebp+8]
  00407924: 89 01              mov         dword ptr [ecx],eax
  00407926: 8B 55 08           mov         edx,dword ptr [ebp+8]
  00407929: C7 42 04 00 00 00  mov         dword ptr [edx+4],0
            00
  00407930: 8B 45 08           mov         eax,dword ptr [ebp+8]
  00407933: 83 C0 08           add         eax,8
  00407936: 8B 4D F8           mov         ecx,dword ptr [ebp-8]
  00407939: 2B C8              sub         ecx,eax
  0040793B: C1 E1 04           shl         ecx,4
  0040793E: 8B 55 08           mov         edx,dword ptr [ebp+8]
  00407941: 8D 84 0A 00 01 00  lea         eax,[edx+ecx+00000100h]
            00
  00407948: E9 18 02 00 00     jmp         00407B65
  0040794D: 8B 45 08           mov         eax,dword ptr [ebp+8]
  00407950: 8B 48 04           mov         ecx,dword ptr [eax+4]
  00407953: 8B 55 F8           mov         edx,dword ptr [ebp-8]
  00407956: 33 C0              xor         eax,eax
  00407958: 8A 04 0A           mov         al,byte ptr [edx+ecx]
  0040795B: 85 C0              test        eax,eax
  0040795D: 74 0C              je          0040796B
  0040795F: 8B 4D 08           mov         ecx,dword ptr [ebp+8]
  00407962: 8B 55 F8           mov         edx,dword ptr [ebp-8]
  00407965: 03 51 04           add         edx,dword ptr [ecx+4]
  00407968: 89 55 F8           mov         dword ptr [ebp-8],edx
  0040796B: 8B 45 F8           mov         eax,dword ptr [ebp-8]
  0040796E: 03 45 10           add         eax,dword ptr [ebp+10h]
  00407971: 3B 45 EC           cmp         eax,dword ptr [ebp-14h]
  00407974: 0F 83 EF 00 00 00  jae         00407A69
  0040797A: 8B 4D F8           mov         ecx,dword ptr [ebp-8]
  0040797D: 33 D2              xor         edx,edx
  0040797F: 8A 11              mov         dl,byte ptr [ecx]
  00407981: 85 D2              test        edx,edx
  00407983: 0F 85 CC 00 00 00  jne         00407A55
  00407989: 8B 45 F8           mov         eax,dword ptr [ebp-8]
  0040798C: 83 C0 01           add         eax,1
  0040798F: 89 45 F4           mov         dword ptr [ebp-0Ch],eax
  00407992: C7 45 F0 01 00 00  mov         dword ptr [ebp-10h],1
            00
  00407999: EB 12              jmp         004079AD
  0040799B: 8B 4D F4           mov         ecx,dword ptr [ebp-0Ch]
  0040799E: 83 C1 01           add         ecx,1
  004079A1: 89 4D F4           mov         dword ptr [ebp-0Ch],ecx
  004079A4: 8B 55 F0           mov         edx,dword ptr [ebp-10h]
  004079A7: 83 C2 01           add         edx,1
  004079AA: 89 55 F0           mov         dword ptr [ebp-10h],edx
  004079AD: 8B 45 F4           mov         eax,dword ptr [ebp-0Ch]
  004079B0: 33 C9              xor         ecx,ecx
  004079B2: 8A 08              mov         cl,byte ptr [eax]
  004079B4: 85 C9              test        ecx,ecx
  004079B6: 75 02              jne         004079BA
  004079B8: EB E1              jmp         0040799B
  004079BA: 8B 55 F0           mov         edx,dword ptr [ebp-10h]
  004079BD: 3B 55 10           cmp         edx,dword ptr [ebp+10h]
  004079C0: 73 33              jae         004079F5
  004079C2: 8B 45 F8           mov         eax,dword ptr [ebp-8]
  004079C5: 3B 45 FC           cmp         eax,dword ptr [ebp-4]
  004079C8: 75 0B              jne         004079D5
  004079CA: 8B 4D 08           mov         ecx,dword ptr [ebp+8]
  004079CD: 8B 55 F0           mov         edx,dword ptr [ebp-10h]
  004079D0: 89 51 04           mov         dword ptr [ecx+4],edx
  004079D3: EB 18              jmp         004079ED
  004079D5: 8B 45 0C           mov         eax,dword ptr [ebp+0Ch]
  004079D8: 2B 45 F0           sub         eax,dword ptr [ebp-10h]
  004079DB: 89 45 0C           mov         dword ptr [ebp+0Ch],eax
  004079DE: 8B 4D 0C           mov         ecx,dword ptr [ebp+0Ch]
  004079E1: 3B 4D 10           cmp         ecx,dword ptr [ebp+10h]
  004079E4: 73 07              jae         004079ED
  004079E6: 33 C0              xor         eax,eax
  004079E8: E9 78 01 00 00     jmp         00407B65
  004079ED: 8B 55 F4           mov         edx,dword ptr [ebp-0Ch]
  004079F0: 89 55 F8           mov         dword ptr [ebp-8],edx
  004079F3: EB 5E              jmp         00407A53
  004079F5: 8B 45 F8           mov         eax,dword ptr [ebp-8]
  004079F8: 03 45 10           add         eax,dword ptr [ebp+10h]
  004079FB: 3B 45 EC           cmp         eax,dword ptr [ebp-14h]
  004079FE: 73 19              jae         00407A19
  00407A00: 8B 4D F8           mov         ecx,dword ptr [ebp-8]
  00407A03: 03 4D 10           add         ecx,dword ptr [ebp+10h]
  00407A06: 8B 55 08           mov         edx,dword ptr [ebp+8]
  00407A09: 89 0A              mov         dword ptr [edx],ecx
  00407A0B: 8B 45 F0           mov         eax,dword ptr [ebp-10h]
  00407A0E: 2B 45 10           sub         eax,dword ptr [ebp+10h]
  00407A11: 8B 4D 08           mov         ecx,dword ptr [ebp+8]
  00407A14: 89 41 04           mov         dword ptr [ecx+4],eax
  00407A17: EB 15              jmp         00407A2E
  00407A19: 8B 55 08           mov         edx,dword ptr [ebp+8]
  00407A1C: 83 C2 08           add         edx,8
  00407A1F: 8B 45 08           mov         eax,dword ptr [ebp+8]
  00407A22: 89 10              mov         dword ptr [eax],edx
  00407A24: 8B 4D 08           mov         ecx,dword ptr [ebp+8]
  00407A27: C7 41 04 00 00 00  mov         dword ptr [ecx+4],0
            00
  00407A2E: 8B 55 F8           mov         edx,dword ptr [ebp-8]
  00407A31: 8A 45 10           mov         al,byte ptr [ebp+10h]
  00407A34: 88 02              mov         byte ptr [edx],al
  00407A36: 8B 4D 08           mov         ecx,dword ptr [ebp+8]
  00407A39: 83 C1 08           add         ecx,8
  00407A3C: 8B 55 F8           mov         edx,dword ptr [ebp-8]
  00407A3F: 2B D1              sub         edx,ecx
  00407A41: C1 E2 04           shl         edx,4
  00407A44: 8B 45 08           mov         eax,dword ptr [ebp+8]
  00407A47: 8D 84 10 00 01 00  lea         eax,[eax+edx+00000100h]
            00
  00407A4E: E9 12 01 00 00     jmp         00407B65
  00407A53: EB 0F              jmp         00407A64
  00407A55: 8B 4D F8           mov         ecx,dword ptr [ebp-8]
  00407A58: 33 D2              xor         edx,edx
  00407A5A: 8A 11              mov         dl,byte ptr [ecx]
  00407A5C: 8B 45 F8           mov         eax,dword ptr [ebp-8]
  00407A5F: 03 C2              add         eax,edx
  00407A61: 89 45 F8           mov         dword ptr [ebp-8],eax
  00407A64: E9 02 FF FF FF     jmp         0040796B
  00407A69: 8B 4D 08           mov         ecx,dword ptr [ebp+8]
  00407A6C: 83 C1 08           add         ecx,8
  00407A6F: 89 4D F8           mov         dword ptr [ebp-8],ecx
  00407A72: 8B 55 F8           mov         edx,dword ptr [ebp-8]
  00407A75: 3B 55 FC           cmp         edx,dword ptr [ebp-4]
  00407A78: 0F 83 E5 00 00 00  jae         00407B63
  00407A7E: 8B 45 F8           mov         eax,dword ptr [ebp-8]
  00407A81: 03 45 10           add         eax,dword ptr [ebp+10h]
  00407A84: 3B 45 EC           cmp         eax,dword ptr [ebp-14h]
  00407A87: 0F 83 D6 00 00 00  jae         00407B63
  00407A8D: 8B 4D F8           mov         ecx,dword ptr [ebp-8]
  00407A90: 33 D2              xor         edx,edx
  00407A92: 8A 11              mov         dl,byte ptr [ecx]
  00407A94: 85 D2              test        edx,edx
  00407A96: 0F 85 B3 00 00 00  jne         00407B4F
  00407A9C: 8B 45 F8           mov         eax,dword ptr [ebp-8]
  00407A9F: 83 C0 01           add         eax,1
  00407AA2: 89 45 F4           mov         dword ptr [ebp-0Ch],eax
  00407AA5: C7 45 F0 01 00 00  mov         dword ptr [ebp-10h],1
            00
  00407AAC: EB 12              jmp         00407AC0
  00407AAE: 8B 4D F4           mov         ecx,dword ptr [ebp-0Ch]
  00407AB1: 83 C1 01           add         ecx,1
  00407AB4: 89 4D F4           mov         dword ptr [ebp-0Ch],ecx
  00407AB7: 8B 55 F0           mov         edx,dword ptr [ebp-10h]
  00407ABA: 83 C2 01           add         edx,1
  00407ABD: 89 55 F0           mov         dword ptr [ebp-10h],edx
  00407AC0: 8B 45 F4           mov         eax,dword ptr [ebp-0Ch]
  00407AC3: 33 C9              xor         ecx,ecx
  00407AC5: 8A 08              mov         cl,byte ptr [eax]
  00407AC7: 85 C9              test        ecx,ecx
  00407AC9: 75 02              jne         00407ACD
  00407ACB: EB E1              jmp         00407AAE
  00407ACD: 8B 55 F0           mov         edx,dword ptr [ebp-10h]
  00407AD0: 3B 55 10           cmp         edx,dword ptr [ebp+10h]
  00407AD3: 73 1D              jae         00407AF2
  00407AD5: 8B 45 0C           mov         eax,dword ptr [ebp+0Ch]
  00407AD8: 2B 45 F0           sub         eax,dword ptr [ebp-10h]
  00407ADB: 89 45 0C           mov         dword ptr [ebp+0Ch],eax
  00407ADE: 8B 4D 0C           mov         ecx,dword ptr [ebp+0Ch]
  00407AE1: 3B 4D 10           cmp         ecx,dword ptr [ebp+10h]
  00407AE4: 73 04              jae         00407AEA
  00407AE6: 33 C0              xor         eax,eax
  00407AE8: EB 7B              jmp         00407B65
  00407AEA: 8B 55 F4           mov         edx,dword ptr [ebp-0Ch]
  00407AED: 89 55 F8           mov         dword ptr [ebp-8],edx
  00407AF0: EB 5B              jmp         00407B4D
  00407AF2: 8B 45 F8           mov         eax,dword ptr [ebp-8]
  00407AF5: 03 45 10           add         eax,dword ptr [ebp+10h]
  00407AF8: 3B 45 EC           cmp         eax,dword ptr [ebp-14h]
  00407AFB: 73 19              jae         00407B16
  00407AFD: 8B 4D F8           mov         ecx,dword ptr [ebp-8]
  00407B00: 03 4D 10           add         ecx,dword ptr [ebp+10h]
  00407B03: 8B 55 08           mov         edx,dword ptr [ebp+8]
  00407B06: 89 0A              mov         dword ptr [edx],ecx
  00407B08: 8B 45 F0           mov         eax,dword ptr [ebp-10h]
  00407B0B: 2B 45 10           sub         eax,dword ptr [ebp+10h]
  00407B0E: 8B 4D 08           mov         ecx,dword ptr [ebp+8]
  00407B11: 89 41 04           mov         dword ptr [ecx+4],eax
  00407B14: EB 15              jmp         00407B2B
  00407B16: 8B 55 08           mov         edx,dword ptr [ebp+8]
  00407B19: 83 C2 08           add         edx,8
  00407B1C: 8B 45 08           mov         eax,dword ptr [ebp+8]
  00407B1F: 89 10              mov         dword ptr [eax],edx
  00407B21: 8B 4D 08           mov         ecx,dword ptr [ebp+8]
  00407B24: C7 41 04 00 00 00  mov         dword ptr [ecx+4],0
            00
  00407B2B: 8B 55 F8           mov         edx,dword ptr [ebp-8]
  00407B2E: 8A 45 10           mov         al,byte ptr [ebp+10h]
  00407B31: 88 02              mov         byte ptr [edx],al
  00407B33: 8B 4D 08           mov         ecx,dword ptr [ebp+8]
  00407B36: 83 C1 08           add         ecx,8
  00407B39: 8B 55 F8           mov         edx,dword ptr [ebp-8]
  00407B3C: 2B D1              sub         edx,ecx
  00407B3E: C1 E2 04           shl         edx,4
  00407B41: 8B 45 08           mov         eax,dword ptr [ebp+8]
  00407B44: 8D 84 10 00 01 00  lea         eax,[eax+edx+00000100h]
            00
  00407B4B: EB 18              jmp         00407B65
  00407B4D: EB 0F              jmp         00407B5E
  00407B4F: 8B 4D F8           mov         ecx,dword ptr [ebp-8]
  00407B52: 33 D2              xor         edx,edx
  00407B54: 8A 11              mov         dl,byte ptr [ecx]
  00407B56: 8B 45 F8           mov         eax,dword ptr [ebp-8]
  00407B59: 03 C2              add         eax,edx
  00407B5B: 89 45 F8           mov         dword ptr [ebp-8],eax
  00407B5E: E9 0F FF FF FF     jmp         00407A72
  00407B63: 33 C0              xor         eax,eax
  00407B65: 8B E5              mov         esp,ebp
  00407B67: 5D                 pop         ebp
  00407B68: C3                 ret
  00407B69: CC                 int         3
  00407B6A: CC                 int         3
  00407B6B: CC                 int         3
  00407B6C: CC                 int         3
  00407B6D: CC                 int         3
  00407B6E: CC                 int         3
  00407B6F: CC                 int         3
  00407B70: 55                 push        ebp
  00407B71: 8B EC              mov         ebp,esp
  00407B73: 83 EC 28           sub         esp,28h
  00407B76: C7 45 F8 00 00 00  mov         dword ptr [ebp-8],0
            00
  00407B7D: C7 45 E4 D0 D2 40  mov         dword ptr [ebp-1Ch],40D2D0h
            00
  00407B84: A1 F0 F2 40 00     mov         eax,[0040F2F0]
  00407B89: 3B 45 E4           cmp         eax,dword ptr [ebp-1Ch]
  00407B8C: 75 09              jne         00407B97
  00407B8E: 8B 4D F8           mov         ecx,dword ptr [ebp-8]
  00407B91: 83 C1 01           add         ecx,1
  00407B94: 89 4D F8           mov         dword ptr [ebp-8],ecx
  00407B97: 8B 55 E4           mov         edx,dword ptr [ebp-1Ch]
  00407B9A: 8B 42 10           mov         eax,dword ptr [edx+10h]
  00407B9D: 89 45 FC           mov         dword ptr [ebp-4],eax
  00407BA0: 83 7D FC FF        cmp         dword ptr [ebp-4],0FFh
  00407BA4: 0F 84 D5 01 00 00  je          00407D7F
  00407BAA: C7 45 F4 00 00 00  mov         dword ptr [ebp-0Ch],0
            00
  00407BB1: C7 45 D8 00 00 00  mov         dword ptr [ebp-28h],0
            00
  00407BB8: 8B 4D E4           mov         ecx,dword ptr [ebp-1Ch]
  00407BBB: 8B 51 10           mov         edx,dword ptr [ecx+10h]
  00407BBE: 89 55 FC           mov         dword ptr [ebp-4],edx
  00407BC1: EB 15              jmp         00407BD8
  00407BC3: 8B 45 F4           mov         eax,dword ptr [ebp-0Ch]
  00407BC6: 83 C0 01           add         eax,1
  00407BC9: 89 45 F4           mov         dword ptr [ebp-0Ch],eax
  00407BCC: 8B 4D FC           mov         ecx,dword ptr [ebp-4]
  00407BCF: 81 C1 00 10 00 00  add         ecx,1000h
  00407BD5: 89 4D FC           mov         dword ptr [ebp-4],ecx
  00407BD8: 81 7D F4 00 04 00  cmp         dword ptr [ebp-0Ch],400h
            00
  00407BDF: 0F 8D 9A 01 00 00  jge         00407D7F
  00407BE5: 8B 55 F4           mov         edx,dword ptr [ebp-0Ch]
  00407BE8: 8B 45 E4           mov         eax,dword ptr [ebp-1Ch]
  00407BEB: 83 7C D0 18 FF     cmp         dword ptr [eax+edx*8+18h],0FFh
  00407BF0: 75 2E              jne         00407C20
  00407BF2: 83 7D D8 00        cmp         dword ptr [ebp-28h],0
  00407BF6: 75 1A              jne         00407C12
  00407BF8: 8B 4D F4           mov         ecx,dword ptr [ebp-0Ch]
  00407BFB: 8B 55 E4           mov         edx,dword ptr [ebp-1Ch]
  00407BFE: 8D 44 CA 18        lea         eax,[edx+ecx*8+18h]
  00407C02: 8B 4D E4           mov         ecx,dword ptr [ebp-1Ch]
  00407C05: 39 41 0C           cmp         dword ptr [ecx+0Ch],eax
  00407C08: 74 08              je          00407C12
  00407C0A: 83 C8 FF           or          eax,0FFh
  00407C0D: E9 91 01 00 00     jmp         00407DA3
  00407C12: 8B 55 D8           mov         edx,dword ptr [ebp-28h]
  00407C15: 83 C2 01           add         edx,1
  00407C18: 89 55 D8           mov         dword ptr [ebp-28h],edx
  00407C1B: E9 5A 01 00 00     jmp         00407D7A
  00407C20: 8B 45 FC           mov         eax,dword ptr [ebp-4]
  00407C23: 05 F8 00 00 00     add         eax,0F8h
  00407C28: 8B 4D FC           mov         ecx,dword ptr [ebp-4]
  00407C2B: 39 01              cmp         dword ptr [ecx],eax
  00407C2D: 72 0A              jb          00407C39
  00407C2F: B8 FE FF FF FF     mov         eax,0FFFFFFFEh
  00407C34: E9 6A 01 00 00     jmp         00407DA3
  00407C39: 8B 55 FC           mov         edx,dword ptr [ebp-4]
  00407C3C: 33 C0              xor         eax,eax
  00407C3E: 8A 82 F8 00 00 00  mov         al,byte ptr [edx+000000F8h]
  00407C44: 3D FF 00 00 00     cmp         eax,0FFh
  00407C49: 74 0A              je          00407C55
  00407C4B: B8 FD FF FF FF     mov         eax,0FFFFFFFDh
  00407C50: E9 4E 01 00 00     jmp         00407DA3
  00407C55: C7 45 F0 00 00 00  mov         dword ptr [ebp-10h],0
            00
  00407C5C: C7 45 E8 00 00 00  mov         dword ptr [ebp-18h],0
            00
  00407C63: C7 45 DC 00 00 00  mov         dword ptr [ebp-24h],0
            00
  00407C6A: C7 45 E0 00 00 00  mov         dword ptr [ebp-20h],0
            00
  00407C71: 81 7D F0 F0 00 00  cmp         dword ptr [ebp-10h],0F0h
            00
  00407C78: 0F 8D D9 00 00 00  jge         00407D57
  00407C7E: 8B 4D F0           mov         ecx,dword ptr [ebp-10h]
  00407C81: 8B 55 FC           mov         edx,dword ptr [ebp-4]
  00407C84: 8D 44 0A 08        lea         eax,[edx+ecx+8]
  00407C88: 8B 4D FC           mov         ecx,dword ptr [ebp-4]
  00407C8B: 3B 01              cmp         eax,dword ptr [ecx]
  00407C8D: 75 09              jne         00407C98
  00407C8F: 8B 55 E8           mov         edx,dword ptr [ebp-18h]
  00407C92: 83 C2 01           add         edx,1
  00407C95: 89 55 E8           mov         dword ptr [ebp-18h],edx
  00407C98: 8B 45 FC           mov         eax,dword ptr [ebp-4]
  00407C9B: 03 45 F0           add         eax,dword ptr [ebp-10h]
  00407C9E: 33 C9              xor         ecx,ecx
  00407CA0: 8A 48 08           mov         cl,byte ptr [eax+8]
  00407CA3: 85 C9              test        ecx,ecx
  00407CA5: 75 20              jne         00407CC7
  00407CA7: 8B 55 DC           mov         edx,dword ptr [ebp-24h]
  00407CAA: 83 C2 01           add         edx,1
  00407CAD: 89 55 DC           mov         dword ptr [ebp-24h],edx
  00407CB0: 8B 45 E0           mov         eax,dword ptr [ebp-20h]
  00407CB3: 83 C0 01           add         eax,1
  00407CB6: 89 45 E0           mov         dword ptr [ebp-20h],eax
  00407CB9: 8B 4D F0           mov         ecx,dword ptr [ebp-10h]
  00407CBC: 83 C1 01           add         ecx,1
  00407CBF: 89 4D F0           mov         dword ptr [ebp-10h],ecx
  00407CC2: E9 8B 00 00 00     jmp         00407D52
  00407CC7: 8B 55 F4           mov         edx,dword ptr [ebp-0Ch]
  00407CCA: 8B 45 E4           mov         eax,dword ptr [ebp-1Ch]
  00407CCD: 8B 4D E0           mov         ecx,dword ptr [ebp-20h]
  00407CD0: 3B 4C D0 1C        cmp         ecx,dword ptr [eax+edx*8+1Ch]
  00407CD4: 7C 0A              jl          00407CE0
  00407CD6: B8 FC FF FF FF     mov         eax,0FFFFFFFCh
  00407CDB: E9 C3 00 00 00     jmp         00407DA3
  00407CE0: 83 7D E8 01        cmp         dword ptr [ebp-18h],1
  00407CE4: 75 1E              jne         00407D04
  00407CE6: 8B 55 FC           mov         edx,dword ptr [ebp-4]
  00407CE9: 8B 45 E0           mov         eax,dword ptr [ebp-20h]
  00407CEC: 3B 42 04           cmp         eax,dword ptr [edx+4]
  00407CEF: 7D 0A              jge         00407CFB
  00407CF1: B8 FB FF FF FF     mov         eax,0FFFFFFFBh
  00407CF6: E9 A8 00 00 00     jmp         00407DA3
  00407CFB: 8B 4D E8           mov         ecx,dword ptr [ebp-18h]
  00407CFE: 83 C1 01           add         ecx,1
  00407D01: 89 4D E8           mov         dword ptr [ebp-18h],ecx
  00407D04: C7 45 E0 00 00 00  mov         dword ptr [ebp-20h],0
            00
  00407D0B: 8B 55 F0           mov         edx,dword ptr [ebp-10h]
  00407D0E: 83 C2 01           add         edx,1
  00407D11: 89 55 EC           mov         dword ptr [ebp-14h],edx
  00407D14: EB 09              jmp         00407D1F
  00407D16: 8B 45 EC           mov         eax,dword ptr [ebp-14h]
  00407D19: 83 C0 01           add         eax,1
  00407D1C: 89 45 EC           mov         dword ptr [ebp-14h],eax
  00407D1F: 8B 4D FC           mov         ecx,dword ptr [ebp-4]
  00407D22: 03 4D F0           add         ecx,dword ptr [ebp-10h]
  00407D25: 33 D2              xor         edx,edx
  00407D27: 8A 51 08           mov         dl,byte ptr [ecx+8]
  00407D2A: 8B 45 F0           mov         eax,dword ptr [ebp-10h]
  00407D2D: 03 C2              add         eax,edx
  00407D2F: 39 45 EC           cmp         dword ptr [ebp-14h],eax
  00407D32: 7D 18              jge         00407D4C
  00407D34: 8B 4D FC           mov         ecx,dword ptr [ebp-4]
  00407D37: 03 4D EC           add         ecx,dword ptr [ebp-14h]
  00407D3A: 33 D2              xor         edx,edx
  00407D3C: 8A 51 08           mov         dl,byte ptr [ecx+8]
  00407D3F: 85 D2              test        edx,edx
  00407D41: 74 07              je          00407D4A
  00407D43: B8 FA FF FF FF     mov         eax,0FFFFFFFAh
  00407D48: EB 59              jmp         00407DA3
  00407D4A: EB CA              jmp         00407D16
  00407D4C: 8B 45 EC           mov         eax,dword ptr [ebp-14h]
  00407D4F: 89 45 F0           mov         dword ptr [ebp-10h],eax
  00407D52: E9 1A FF FF FF     jmp         00407C71
  00407D57: 8B 4D F4           mov         ecx,dword ptr [ebp-0Ch]
  00407D5A: 8B 55 E4           mov         edx,dword ptr [ebp-1Ch]
  00407D5D: 8B 45 DC           mov         eax,dword ptr [ebp-24h]
  00407D60: 3B 44 CA 18        cmp         eax,dword ptr [edx+ecx*8+18h]
  00407D64: 74 07              je          00407D6D
  00407D66: B8 F9 FF FF FF     mov         eax,0FFFFFFF9h
  00407D6B: EB 36              jmp         00407DA3
  00407D6D: 83 7D E8 00        cmp         dword ptr [ebp-18h],0
  00407D71: 75 07              jne         00407D7A
  00407D73: B8 F8 FF FF FF     mov         eax,0FFFFFFF8h
  00407D78: EB 29              jmp         00407DA3
  00407D7A: E9 44 FE FF FF     jmp         00407BC3
  00407D7F: 8B 4D E4           mov         ecx,dword ptr [ebp-1Ch]
  00407D82: 8B 11              mov         edx,dword ptr [ecx]
  00407D84: 89 55 E4           mov         dword ptr [ebp-1Ch],edx
  00407D87: 81 7D E4 D0 D2 40  cmp         dword ptr [ebp-1Ch],40D2D0h
            00
  00407D8E: 0F 85 F0 FD FF FF  jne         00407B84
  00407D94: 83 7D F8 00        cmp         dword ptr [ebp-8],0
  00407D98: 75 07              jne         00407DA1
  00407D9A: B8 F7 FF FF FF     mov         eax,0FFFFFFF7h
  00407D9F: EB 02              jmp         00407DA3
  00407DA1: 33 C0              xor         eax,eax
  00407DA3: 8B E5              mov         esp,ebp
  00407DA5: 5D                 pop         ebp
  00407DA6: C3                 ret
  00407DA7: CC                 int         3
  00407DA8: CC                 int         3
  00407DA9: CC                 int         3
  00407DAA: CC                 int         3
  00407DAB: CC                 int         3
  00407DAC: CC                 int         3
  00407DAD: CC                 int         3
  00407DAE: CC                 int         3
  00407DAF: CC                 int         3
  00407DB0: 53                 push        ebx
  00407DB1: 56                 push        esi
  00407DB2: 8B 44 24 18        mov         eax,dword ptr [esp+18h]
  00407DB6: 0B C0              or          eax,eax
  00407DB8: 75 18              jne         00407DD2
  00407DBA: 8B 4C 24 14        mov         ecx,dword ptr [esp+14h]
  00407DBE: 8B 44 24 10        mov         eax,dword ptr [esp+10h]
  00407DC2: 33 D2              xor         edx,edx
  00407DC4: F7 F1              div         eax,ecx
  00407DC6: 8B D8              mov         ebx,eax
  00407DC8: 8B 44 24 0C        mov         eax,dword ptr [esp+0Ch]
  00407DCC: F7 F1              div         eax,ecx
  00407DCE: 8B D3              mov         edx,ebx
  00407DD0: EB 41              jmp         00407E13
  00407DD2: 8B C8              mov         ecx,eax
  00407DD4: 8B 5C 24 14        mov         ebx,dword ptr [esp+14h]
  00407DD8: 8B 54 24 10        mov         edx,dword ptr [esp+10h]
  00407DDC: 8B 44 24 0C        mov         eax,dword ptr [esp+0Ch]
  00407DE0: D1 E9              shr         ecx,1
  00407DE2: D1 DB              rcr         ebx,1
  00407DE4: D1 EA              shr         edx,1
  00407DE6: D1 D8              rcr         eax,1
  00407DE8: 0B C9              or          ecx,ecx
  00407DEA: 75 F4              jne         00407DE0
  00407DEC: F7 F3              div         eax,ebx
  00407DEE: 8B F0              mov         esi,eax
  00407DF0: F7 64 24 18        mul         eax,dword ptr [esp+18h]
  00407DF4: 8B C8              mov         ecx,eax
  00407DF6: 8B 44 24 14        mov         eax,dword ptr [esp+14h]
  00407DFA: F7 E6              mul         eax,esi
  00407DFC: 03 D1              add         edx,ecx
  00407DFE: 72 0E              jb          00407E0E
  00407E00: 3B 54 24 10        cmp         edx,dword ptr [esp+10h]
  00407E04: 77 08              ja          00407E0E
  00407E06: 72 07              jb          00407E0F
  00407E08: 3B 44 24 0C        cmp         eax,dword ptr [esp+0Ch]
  00407E0C: 76 01              jbe         00407E0F
  00407E0E: 4E                 dec         esi
  00407E0F: 33 D2              xor         edx,edx
  00407E11: 8B C6              mov         eax,esi
  00407E13: 5E                 pop         esi
  00407E14: 5B                 pop         ebx
  00407E15: C2 10 00           ret         10h
  00407E18: CC                 int         3
  00407E19: CC                 int         3
  00407E1A: CC                 int         3
  00407E1B: CC                 int         3
  00407E1C: CC                 int         3
  00407E1D: CC                 int         3
  00407E1E: CC                 int         3
  00407E1F: CC                 int         3
  00407E20: 53                 push        ebx
  00407E21: 8B 44 24 14        mov         eax,dword ptr [esp+14h]
  00407E25: 0B C0              or          eax,eax
  00407E27: 75 18              jne         00407E41
  00407E29: 8B 4C 24 10        mov         ecx,dword ptr [esp+10h]
  00407E2D: 8B 44 24 0C        mov         eax,dword ptr [esp+0Ch]
  00407E31: 33 D2              xor         edx,edx
  00407E33: F7 F1              div         eax,ecx
  00407E35: 8B 44 24 08        mov         eax,dword ptr [esp+8]
  00407E39: F7 F1              div         eax,ecx
  00407E3B: 8B C2              mov         eax,edx
  00407E3D: 33 D2              xor         edx,edx
  00407E3F: EB 50              jmp         00407E91
  00407E41: 8B C8              mov         ecx,eax
  00407E43: 8B 5C 24 10        mov         ebx,dword ptr [esp+10h]
  00407E47: 8B 54 24 0C        mov         edx,dword ptr [esp+0Ch]
  00407E4B: 8B 44 24 08        mov         eax,dword ptr [esp+8]
  00407E4F: D1 E9              shr         ecx,1
  00407E51: D1 DB              rcr         ebx,1
  00407E53: D1 EA              shr         edx,1
  00407E55: D1 D8              rcr         eax,1
  00407E57: 0B C9              or          ecx,ecx
  00407E59: 75 F4              jne         00407E4F
  00407E5B: F7 F3              div         eax,ebx
  00407E5D: 8B C8              mov         ecx,eax
  00407E5F: F7 64 24 14        mul         eax,dword ptr [esp+14h]
  00407E63: 91                 xchg        eax,ecx
  00407E64: F7 64 24 10        mul         eax,dword ptr [esp+10h]
  00407E68: 03 D1              add         edx,ecx
  00407E6A: 72 0E              jb          00407E7A
  00407E6C: 3B 54 24 0C        cmp         edx,dword ptr [esp+0Ch]
  00407E70: 77 08              ja          00407E7A
  00407E72: 72 0E              jb          00407E82
  00407E74: 3B 44 24 08        cmp         eax,dword ptr [esp+8]
  00407E78: 76 08              jbe         00407E82
  00407E7A: 2B 44 24 10        sub         eax,dword ptr [esp+10h]
  00407E7E: 1B 54 24 14        sbb         edx,dword ptr [esp+14h]
  00407E82: 2B 44 24 08        sub         eax,dword ptr [esp+8]
  00407E86: 1B 54 24 0C        sbb         edx,dword ptr [esp+0Ch]
  00407E8A: F7 DA              neg         edx
  00407E8C: F7 D8              neg         eax
  00407E8E: 83 DA 00           sbb         edx,0
  00407E91: 5B                 pop         ebx
  00407E92: C2 10 00           ret         10h
  00407E95: CC                 int         3
  00407E96: CC                 int         3
  00407E97: CC                 int         3
  00407E98: CC                 int         3
  00407E99: CC                 int         3
  00407E9A: CC                 int         3
  00407E9B: CC                 int         3
  00407E9C: CC                 int         3
  00407E9D: CC                 int         3
  00407E9E: CC                 int         3
  00407E9F: CC                 int         3
  00407EA0: 55                 push        ebp
  00407EA1: 8B EC              mov         ebp,esp
  00407EA3: 83 EC 14           sub         esp,14h
  00407EA6: 53                 push        ebx
  00407EA7: 56                 push        esi
  00407EA8: 57                 push        edi
  00407EA9: 83 7D 0C 00        cmp         dword ptr [ebp+0Ch],0
  00407EAD: 75 1E              jne         00407ECD
  00407EAF: 68 04 BD 40 00     push        40BD04h
  00407EB4: 6A 00              push        0
  00407EB6: 6A 69              push        69h
  00407EB8: 68 F8 BC 40 00     push        40BCF8h
  00407EBD: 6A 02              push        2
  00407EBF: E8 9C 93 FF FF     call        00401260
  00407EC4: 83 C4 14           add         esp,14h
  00407EC7: 83 F8 01           cmp         eax,1
  00407ECA: 75 01              jne         00407ECD
  00407ECC: CC                 int         3
  00407ECD: 33 C0              xor         eax,eax
  00407ECF: 85 C0              test        eax,eax
  00407ED1: 75 D6              jne         00407EA9
  00407ED3: 8B 4D 0C           mov         ecx,dword ptr [ebp+0Ch]
  00407ED6: 89 4D F8           mov         dword ptr [ebp-8],ecx
  00407ED9: 8B 55 F8           mov         edx,dword ptr [ebp-8]
  00407EDC: 8B 42 10           mov         eax,dword ptr [edx+10h]
  00407EDF: 89 45 F0           mov         dword ptr [ebp-10h],eax
  00407EE2: 8B 4D F8           mov         ecx,dword ptr [ebp-8]
  00407EE5: 8B 51 0C           mov         edx,dword ptr [ecx+0Ch]
  00407EE8: 81 E2 82 00 00 00  and         edx,82h
  00407EEE: 85 D2              test        edx,edx
  00407EF0: 74 0D              je          00407EFF
  00407EF2: 8B 45 F8           mov         eax,dword ptr [ebp-8]
  00407EF5: 8B 48 0C           mov         ecx,dword ptr [eax+0Ch]
  00407EF8: 83 E1 40           and         ecx,40h
  00407EFB: 85 C9              test        ecx,ecx
  00407EFD: 74 16              je          00407F15
  00407EFF: 8B 55 F8           mov         edx,dword ptr [ebp-8]
  00407F02: 8B 42 0C           mov         eax,dword ptr [edx+0Ch]
  00407F05: 0C 20              or          al,20h
  00407F07: 8B 4D F8           mov         ecx,dword ptr [ebp-8]
  00407F0A: 89 41 0C           mov         dword ptr [ecx+0Ch],eax
  00407F0D: 83 C8 FF           or          eax,0FFh
  00407F10: E9 F6 01 00 00     jmp         0040810B
  00407F15: 8B 55 F8           mov         edx,dword ptr [ebp-8]
  00407F18: 8B 42 0C           mov         eax,dword ptr [edx+0Ch]
  00407F1B: 83 E0 01           and         eax,1
  00407F1E: 85 C0              test        eax,eax
  00407F20: 74 4A              je          00407F6C
  00407F22: 8B 4D F8           mov         ecx,dword ptr [ebp-8]
  00407F25: C7 41 04 00 00 00  mov         dword ptr [ecx+4],0
            00
  00407F2C: 8B 55 F8           mov         edx,dword ptr [ebp-8]
  00407F2F: 8B 42 0C           mov         eax,dword ptr [edx+0Ch]
  00407F32: 83 E0 10           and         eax,10h
  00407F35: 85 C0              test        eax,eax
  00407F37: 74 1C              je          00407F55
  00407F39: 8B 4D F8           mov         ecx,dword ptr [ebp-8]
  00407F3C: 8B 55 F8           mov         edx,dword ptr [ebp-8]
  00407F3F: 8B 42 08           mov         eax,dword ptr [edx+8]
  00407F42: 89 01              mov         dword ptr [ecx],eax
  00407F44: 8B 4D F8           mov         ecx,dword ptr [ebp-8]
  00407F47: 8B 51 0C           mov         edx,dword ptr [ecx+0Ch]
  00407F4A: 83 E2 FE           and         edx,0FEh
  00407F4D: 8B 45 F8           mov         eax,dword ptr [ebp-8]
  00407F50: 89 50 0C           mov         dword ptr [eax+0Ch],edx
  00407F53: EB 17              jmp         00407F6C
  00407F55: 8B 4D F8           mov         ecx,dword ptr [ebp-8]
  00407F58: 8B 51 0C           mov         edx,dword ptr [ecx+0Ch]
  00407F5B: 83 CA 20           or          edx,20h
  00407F5E: 8B 45 F8           mov         eax,dword ptr [ebp-8]
  00407F61: 89 50 0C           mov         dword ptr [eax+0Ch],edx
  00407F64: 83 C8 FF           or          eax,0FFh
  00407F67: E9 9F 01 00 00     jmp         0040810B
  00407F6C: 8B 4D F8           mov         ecx,dword ptr [ebp-8]
  00407F6F: 8B 51 0C           mov         edx,dword ptr [ecx+0Ch]
  00407F72: 83 CA 02           or          edx,2
  00407F75: 8B 45 F8           mov         eax,dword ptr [ebp-8]
  00407F78: 89 50 0C           mov         dword ptr [eax+0Ch],edx
  00407F7B: 8B 4D F8           mov         ecx,dword ptr [ebp-8]
  00407F7E: 8B 51 0C           mov         edx,dword ptr [ecx+0Ch]
  00407F81: 83 E2 EF           and         edx,0EFh
  00407F84: 8B 45 F8           mov         eax,dword ptr [ebp-8]
  00407F87: 89 50 0C           mov         dword ptr [eax+0Ch],edx
  00407F8A: 8B 4D F8           mov         ecx,dword ptr [ebp-8]
  00407F8D: C7 41 04 00 00 00  mov         dword ptr [ecx+4],0
            00
  00407F94: C7 45 FC 00 00 00  mov         dword ptr [ebp-4],0
            00
  00407F9B: 8B 55 FC           mov         edx,dword ptr [ebp-4]
  00407F9E: 89 55 F4           mov         dword ptr [ebp-0Ch],edx
  00407FA1: 8B 45 F8           mov         eax,dword ptr [ebp-8]
  00407FA4: 8B 48 0C           mov         ecx,dword ptr [eax+0Ch]
  00407FA7: 81 E1 0C 01 00 00  and         ecx,10Ch
  00407FAD: 85 C9              test        ecx,ecx
  00407FAF: 75 2E              jne         00407FDF
  00407FB1: 81 7D F8 50 F5 40  cmp         dword ptr [ebp-8],40F550h
            00
  00407FB8: 74 09              je          00407FC3
  00407FBA: 81 7D F8 70 F5 40  cmp         dword ptr [ebp-8],40F570h
            00
  00407FC1: 75 10              jne         00407FD3
  00407FC3: 8B 55 F0           mov         edx,dword ptr [ebp-10h]
  00407FC6: 52                 push        edx
  00407FC7: E8 14 23 00 00     call        0040A2E0
  00407FCC: 83 C4 04           add         esp,4
  00407FCF: 85 C0              test        eax,eax
  00407FD1: 75 0C              jne         00407FDF
  00407FD3: 8B 45 F8           mov         eax,dword ptr [ebp-8]
  00407FD6: 50                 push        eax
  00407FD7: E8 34 22 00 00     call        0040A210
  00407FDC: 83 C4 04           add         esp,4
  00407FDF: 8B 4D F8           mov         ecx,dword ptr [ebp-8]
  00407FE2: 8B 51 0C           mov         edx,dword ptr [ecx+0Ch]
  00407FE5: 81 E2 08 01 00 00  and         edx,108h
  00407FEB: 85 D2              test        edx,edx
  00407FED: 0F 84 D6 00 00 00  je          004080C9
  00407FF3: 8B 45 F8           mov         eax,dword ptr [ebp-8]
  00407FF6: 8B 4D F8           mov         ecx,dword ptr [ebp-8]
  00407FF9: 8B 10              mov         edx,dword ptr [eax]
  00407FFB: 2B 51 08           sub         edx,dword ptr [ecx+8]
  00407FFE: 85 D2              test        edx,edx
  00408000: 7D 21              jge         00408023
  00408002: 68 B8 BC 40 00     push        40BCB8h
  00408007: 6A 00              push        0
  00408009: 68 A0 00 00 00     push        0A0h
  0040800E: 68 F8 BC 40 00     push        40BCF8h
  00408013: 6A 02              push        2
  00408015: E8 46 92 FF FF     call        00401260
  0040801A: 83 C4 14           add         esp,14h
  0040801D: 83 F8 01           cmp         eax,1
  00408020: 75 01              jne         00408023
  00408022: CC                 int         3
  00408023: 33 C0              xor         eax,eax
  00408025: 85 C0              test        eax,eax
  00408027: 75 CA              jne         00407FF3
  00408029: 8B 4D F8           mov         ecx,dword ptr [ebp-8]
  0040802C: 8B 55 F8           mov         edx,dword ptr [ebp-8]
  0040802F: 8B 01              mov         eax,dword ptr [ecx]
  00408031: 2B 42 08           sub         eax,dword ptr [edx+8]
  00408034: 89 45 FC           mov         dword ptr [ebp-4],eax
  00408037: 8B 4D F8           mov         ecx,dword ptr [ebp-8]
  0040803A: 8B 51 08           mov         edx,dword ptr [ecx+8]
  0040803D: 83 C2 01           add         edx,1
  00408040: 8B 45 F8           mov         eax,dword ptr [ebp-8]
  00408043: 89 10              mov         dword ptr [eax],edx
  00408045: 8B 4D F8           mov         ecx,dword ptr [ebp-8]
  00408048: 8B 51 18           mov         edx,dword ptr [ecx+18h]
  0040804B: 83 EA 01           sub         edx,1
  0040804E: 8B 45 F8           mov         eax,dword ptr [ebp-8]
  00408051: 89 50 04           mov         dword ptr [eax+4],edx
  00408054: 83 7D FC 00        cmp         dword ptr [ebp-4],0
  00408058: 7E 1C              jle         00408076
  0040805A: 8B 4D FC           mov         ecx,dword ptr [ebp-4]
  0040805D: 51                 push        ecx
  0040805E: 8B 55 F8           mov         edx,dword ptr [ebp-8]
  00408061: 8B 42 08           mov         eax,dword ptr [edx+8]
  00408064: 50                 push        eax
  00408065: 8B 4D F0           mov         ecx,dword ptr [ebp-10h]
  00408068: 51                 push        ecx
  00408069: E8 F2 1E 00 00     call        00409F60
  0040806E: 83 C4 0C           add         esp,0Ch
  00408071: 89 45 F4           mov         dword ptr [ebp-0Ch],eax
  00408074: EB 46              jmp         004080BC
  00408076: 83 7D F0 FF        cmp         dword ptr [ebp-10h],0FFh
  0040807A: 74 1B              je          00408097
  0040807C: 8B 55 F0           mov         edx,dword ptr [ebp-10h]
  0040807F: C1 FA 05           sar         edx,5
  00408082: 8B 45 F0           mov         eax,dword ptr [ebp-10h]
  00408085: 83 E0 1F           and         eax,1Fh
  00408088: 8B 0C 95 80 0D 41  mov         ecx,dword ptr [edx*4+00410D80h]
            00
  0040808F: 8D 14 C1           lea         edx,[ecx+eax*8]
  00408092: 89 55 EC           mov         dword ptr [ebp-14h],edx
  00408095: EB 07              jmp         0040809E
  00408097: C7 45 EC F8 D0 40  mov         dword ptr [ebp-14h],40D0F8h
            00
  0040809E: 8B 45 EC           mov         eax,dword ptr [ebp-14h]
  004080A1: 0F BE 48 04        movsx       ecx,byte ptr [eax+4]
  004080A5: 83 E1 20           and         ecx,20h
  004080A8: 85 C9              test        ecx,ecx
  004080AA: 74 10              je          004080BC
  004080AC: 6A 02              push        2
  004080AE: 6A 00              push        0
  004080B0: 8B 55 F0           mov         edx,dword ptr [ebp-10h]
  004080B3: 52                 push        edx
  004080B4: E8 B7 1D 00 00     call        00409E70
  004080B9: 83 C4 0C           add         esp,0Ch
  004080BC: 8B 45 F8           mov         eax,dword ptr [ebp-8]
  004080BF: 8B 48 08           mov         ecx,dword ptr [eax+8]
  004080C2: 8A 55 08           mov         dl,byte ptr [ebp+8]
  004080C5: 88 11              mov         byte ptr [ecx],dl
  004080C7: EB 1E              jmp         004080E7
  004080C9: C7 45 FC 01 00 00  mov         dword ptr [ebp-4],1
            00
  004080D0: 8B 45 FC           mov         eax,dword ptr [ebp-4]
  004080D3: 50                 push        eax
  004080D4: 8D 4D 08           lea         ecx,[ebp+8]
  004080D7: 51                 push        ecx
  004080D8: 8B 55 F0           mov         edx,dword ptr [ebp-10h]
  004080DB: 52                 push        edx
  004080DC: E8 7F 1E 00 00     call        00409F60
  004080E1: 83 C4 0C           add         esp,0Ch
  004080E4: 89 45 F4           mov         dword ptr [ebp-0Ch],eax
  004080E7: 8B 45 F4           mov         eax,dword ptr [ebp-0Ch]
  004080EA: 3B 45 FC           cmp         eax,dword ptr [ebp-4]
  004080ED: 74 14              je          00408103
  004080EF: 8B 4D F8           mov         ecx,dword ptr [ebp-8]
  004080F2: 8B 51 0C           mov         edx,dword ptr [ecx+0Ch]
  004080F5: 83 CA 20           or          edx,20h
  004080F8: 8B 45 F8           mov         eax,dword ptr [ebp-8]
  004080FB: 89 50 0C           mov         dword ptr [eax+0Ch],edx
  004080FE: 83 C8 FF           or          eax,0FFh
  00408101: EB 08              jmp         0040810B
  00408103: 8B 45 08           mov         eax,dword ptr [ebp+8]
  00408106: 25 FF 00 00 00     and         eax,0FFh
  0040810B: 5F                 pop         edi
  0040810C: 5E                 pop         esi
  0040810D: 5B                 pop         ebx
  0040810E: 8B E5              mov         esp,ebp
  00408110: 5D                 pop         ebp
  00408111: C3                 ret
  00408112: CC                 int         3
  00408113: CC                 int         3
  00408114: CC                 int         3
  00408115: CC                 int         3
  00408116: CC                 int         3
  00408117: CC                 int         3
  00408118: CC                 int         3
  00408119: CC                 int         3
  0040811A: CC                 int         3
  0040811B: CC                 int         3
  0040811C: CC                 int         3
  0040811D: CC                 int         3
  0040811E: CC                 int         3
  0040811F: CC                 int         3
  00408120: 55                 push        ebp
  00408121: 8B EC              mov         ebp,esp
  00408123: 81 EC AC 02 00 00  sub         esp,2ACh
  00408129: 53                 push        ebx
  0040812A: 56                 push        esi
  0040812B: 57                 push        edi
  0040812C: C7 45 D8 00 00 00  mov         dword ptr [ebp-28h],0
            00
  00408133: C7 85 D0 FD FF FF  mov         dword ptr [ebp+FFFFFDD0h],0
            00 00 00 00
  0040813D: C7 45 E4 00 00 00  mov         dword ptr [ebp-1Ch],0
            00
  00408144: C7 45 F4 00 00 00  mov         dword ptr [ebp-0Ch],0
            00
  0040814B: 8B 45 0C           mov         eax,dword ptr [ebp+0Ch]
  0040814E: 8A 08              mov         cl,byte ptr [eax]
  00408150: 88 4D D4           mov         byte ptr [ebp-2Ch],cl
  00408153: 0F BE 55 D4        movsx       edx,byte ptr [ebp-2Ch]
  00408157: 8B 45 0C           mov         eax,dword ptr [ebp+0Ch]
  0040815A: 83 C0 01           add         eax,1
  0040815D: 89 45 0C           mov         dword ptr [ebp+0Ch],eax
  00408160: 85 D2              test        edx,edx
  00408162: 0F 84 66 0C 00 00  je          00408DCE
  00408168: 83 BD D0 FD FF FF  cmp         dword ptr [ebp+FFFFFDD0h],0
            00
  0040816F: 0F 8C 59 0C 00 00  jl          00408DCE
  00408175: 0F BE 4D D4        movsx       ecx,byte ptr [ebp-2Ch]
  00408179: 83 F9 20           cmp         ecx,20h
  0040817C: 7C 1F              jl          0040819D
  0040817E: 0F BE 55 D4        movsx       edx,byte ptr [ebp-2Ch]
  00408182: 83 FA 78           cmp         edx,78h
  00408185: 7F 16              jg          0040819D
  00408187: 0F BE 45 D4        movsx       eax,byte ptr [ebp-2Ch]
  0040818B: 0F BE 88 F0 BC 40  movsx       ecx,byte ptr [eax+0040BCF0h]
            00
  00408192: 83 E1 0F           and         ecx,0Fh
  00408195: 89 8D 6C FD FF FF  mov         dword ptr [ebp+FFFFFD6Ch],ecx
  0040819B: EB 0A              jmp         004081A7
  0040819D: C7 85 6C FD FF FF  mov         dword ptr [ebp+FFFFFD6Ch],0
            00 00 00 00
  004081A7: 8B 95 6C FD FF FF  mov         edx,dword ptr [ebp+FFFFFD6Ch]
  004081AD: 89 55 F0           mov         dword ptr [ebp-10h],edx
  004081B0: 8B 45 F0           mov         eax,dword ptr [ebp-10h]
  004081B3: 8B 4D E4           mov         ecx,dword ptr [ebp-1Ch]
  004081B6: 0F BE 94 C1 10 BD  movsx       edx,byte ptr [ecx+eax*8+0040BD10h]
            40 00
  004081BE: C1 FA 04           sar         edx,4
  004081C1: 89 55 E4           mov         dword ptr [ebp-1Ch],edx
  004081C4: 8B 45 E4           mov         eax,dword ptr [ebp-1Ch]
  004081C7: 89 85 68 FD FF FF  mov         dword ptr [ebp+FFFFFD68h],eax
  004081CD: 83 BD 68 FD FF FF  cmp         dword ptr [ebp+FFFFFD68h],7
            07
  004081D4: 0F 87 EF 0B 00 00  ja          00408DC9
  004081DA: 8B 8D 68 FD FF FF  mov         ecx,dword ptr [ebp+FFFFFD68h]
  004081E0: FF 24 8D DB 8D 40  jmp         dword ptr [ecx*4+00408DDBh]
            00
  004081E7: C7 45 E0 00 00 00  mov         dword ptr [ebp-20h],0
            00
  004081EE: 8B 55 D4           mov         edx,dword ptr [ebp-2Ch]
  004081F1: 81 E2 FF 00 00 00  and         edx,0FFh
  004081F7: A1 14 F3 40 00     mov         eax,[0040F314]
  004081FC: 33 C9              xor         ecx,ecx
  004081FE: 66 8B 0C 50        mov         cx,word ptr [eax+edx*2]
  00408202: 81 E1 00 80 00 00  and         ecx,8000h
  00408208: 85 C9              test        ecx,ecx
  0040820A: 74 58              je          00408264
  0040820C: 8D 95 D0 FD FF FF  lea         edx,[ebp+FFFFFDD0h]
  00408212: 52                 push        edx
  00408213: 8B 45 08           mov         eax,dword ptr [ebp+8]
  00408216: 50                 push        eax
  00408217: 0F BE 4D D4        movsx       ecx,byte ptr [ebp-2Ch]
  0040821B: 51                 push        ecx
  0040821C: E8 BF 0C 00 00     call        00408EE0
  00408221: 83 C4 0C           add         esp,0Ch
  00408224: 8B 55 0C           mov         edx,dword ptr [ebp+0Ch]
  00408227: 8A 02              mov         al,byte ptr [edx]
  00408229: 88 45 D4           mov         byte ptr [ebp-2Ch],al
  0040822C: 8B 4D 0C           mov         ecx,dword ptr [ebp+0Ch]
  0040822F: 83 C1 01           add         ecx,1
  00408232: 89 4D 0C           mov         dword ptr [ebp+0Ch],ecx
  00408235: 0F BE 55 D4        movsx       edx,byte ptr [ebp-2Ch]
  00408239: 85 D2              test        edx,edx
  0040823B: 75 21              jne         0040825E
  0040823D: 68 90 BD 40 00     push        40BD90h
  00408242: 6A 00              push        0
  00408244: 68 8E 01 00 00     push        18Eh
  00408249: 68 84 BD 40 00     push        40BD84h
  0040824E: 6A 02              push        2
  00408250: E8 0B 90 FF FF     call        00401260
  00408255: 83 C4 14           add         esp,14h
  00408258: 83 F8 01           cmp         eax,1
  0040825B: 75 01              jne         0040825E
  0040825D: CC                 int         3
  0040825E: 33 C0              xor         eax,eax
  00408260: 85 C0              test        eax,eax
  00408262: 75 D1              jne         00408235
  00408264: 8D 8D D0 FD FF FF  lea         ecx,[ebp+FFFFFDD0h]
  0040826A: 51                 push        ecx
  0040826B: 8B 55 08           mov         edx,dword ptr [ebp+8]
  0040826E: 52                 push        edx
  0040826F: 0F BE 45 D4        movsx       eax,byte ptr [ebp-2Ch]
  00408273: 50                 push        eax
  00408274: E8 67 0C 00 00     call        00408EE0
  00408279: 83 C4 0C           add         esp,0Ch
  0040827C: E9 48 0B 00 00     jmp         00408DC9
  00408281: C7 45 F8 00 00 00  mov         dword ptr [ebp-8],0
            00
  00408288: 8B 4D F8           mov         ecx,dword ptr [ebp-8]
  0040828B: 89 8D C0 FD FF FF  mov         dword ptr [ebp+FFFFFDC0h],ecx
  00408291: 8B 95 C0 FD FF FF  mov         edx,dword ptr [ebp+FFFFFDC0h]
  00408297: 89 95 B8 FD FF FF  mov         dword ptr [ebp+FFFFFDB8h],edx
  0040829D: 8B 85 B8 FD FF FF  mov         eax,dword ptr [ebp+FFFFFDB8h]
  004082A3: 89 45 EC           mov         dword ptr [ebp-14h],eax
  004082A6: C7 45 FC 00 00 00  mov         dword ptr [ebp-4],0
            00
  004082AD: C7 85 C8 FD FF FF  mov         dword ptr [ebp+FFFFFDC8h],0FFFFFFFFh
            FF FF FF FF
  004082B7: C7 45 E0 00 00 00  mov         dword ptr [ebp-20h],0
            00
  004082BE: E9 06 0B 00 00     jmp         00408DC9
  004082C3: 0F BE 4D D4        movsx       ecx,byte ptr [ebp-2Ch]
  004082C7: 89 8D 64 FD FF FF  mov         dword ptr [ebp+FFFFFD64h],ecx
  004082CD: 8B 95 64 FD FF FF  mov         edx,dword ptr [ebp+FFFFFD64h]
  004082D3: 83 EA 20           sub         edx,20h
  004082D6: 89 95 64 FD FF FF  mov         dword ptr [ebp+FFFFFD64h],edx
  004082DC: 83 BD 64 FD FF FF  cmp         dword ptr [ebp+FFFFFD64h],10h
            10
  004082E3: 77 48              ja          0040832D
  004082E5: 8B 8D 64 FD FF FF  mov         ecx,dword ptr [ebp+FFFFFD64h]
  004082EB: 33 C0              xor         eax,eax
  004082ED: 8A 81 13 8E 40 00  mov         al,byte ptr [ecx+00408E13h]
  004082F3: FF 24 85 FB 8D 40  jmp         dword ptr [eax*4+00408DFBh]
            00
  004082FA: 8B 55 FC           mov         edx,dword ptr [ebp-4]
  004082FD: 83 CA 04           or          edx,4
  00408300: 89 55 FC           mov         dword ptr [ebp-4],edx
  00408303: EB 28              jmp         0040832D
  00408305: 8B 45 FC           mov         eax,dword ptr [ebp-4]
  00408308: 0C 01              or          al,1
  0040830A: 89 45 FC           mov         dword ptr [ebp-4],eax
  0040830D: EB 1E              jmp         0040832D
  0040830F: 8B 4D FC           mov         ecx,dword ptr [ebp-4]
  00408312: 83 C9 02           or          ecx,2
  00408315: 89 4D FC           mov         dword ptr [ebp-4],ecx
  00408318: EB 13              jmp         0040832D
  0040831A: 8B 55 FC           mov         edx,dword ptr [ebp-4]
  0040831D: 80 CA 80           or          dl,80h
  00408320: 89 55 FC           mov         dword ptr [ebp-4],edx
  00408323: EB 08              jmp         0040832D
  00408325: 8B 45 FC           mov         eax,dword ptr [ebp-4]
  00408328: 0C 08              or          al,8
  0040832A: 89 45 FC           mov         dword ptr [ebp-4],eax
  0040832D: E9 97 0A 00 00     jmp         00408DC9
  00408332: 0F BE 4D D4        movsx       ecx,byte ptr [ebp-2Ch]
  00408336: 83 F9 2A           cmp         ecx,2Ah
  00408339: 75 33              jne         0040836E
  0040833B: 8D 55 10           lea         edx,[ebp+10h]
  0040833E: 52                 push        edx
  0040833F: E8 AC 0C 00 00     call        00408FF0
  00408344: 83 C4 04           add         esp,4
  00408347: 89 85 B8 FD FF FF  mov         dword ptr [ebp+FFFFFDB8h],eax
  0040834D: 83 BD B8 FD FF FF  cmp         dword ptr [ebp+FFFFFDB8h],0
            00
  00408354: 7D 16              jge         0040836C
  00408356: 8B 45 FC           mov         eax,dword ptr [ebp-4]
  00408359: 0C 04              or          al,4
  0040835B: 89 45 FC           mov         dword ptr [ebp-4],eax
  0040835E: 8B 8D B8 FD FF FF  mov         ecx,dword ptr [ebp+FFFFFDB8h]
  00408364: F7 D9              neg         ecx
  00408366: 89 8D B8 FD FF FF  mov         dword ptr [ebp+FFFFFDB8h],ecx
  0040836C: EB 17              jmp         00408385
  0040836E: 8B 95 B8 FD FF FF  mov         edx,dword ptr [ebp+FFFFFDB8h]
  00408374: 6B D2 0A           imul        edx,edx,0Ah
  00408377: 0F BE 45 D4        movsx       eax,byte ptr [ebp-2Ch]
  0040837B: 8D 4C 02 D0        lea         ecx,[edx+eax-30h]
  0040837F: 89 8D B8 FD FF FF  mov         dword ptr [ebp+FFFFFDB8h],ecx
  00408385: E9 3F 0A 00 00     jmp         00408DC9
  0040838A: C7 85 C8 FD FF FF  mov         dword ptr [ebp+FFFFFDC8h],0
            00 00 00 00
  00408394: E9 30 0A 00 00     jmp         00408DC9
  00408399: 0F BE 55 D4        movsx       edx,byte ptr [ebp-2Ch]
  0040839D: 83 FA 2A           cmp         edx,2Ah
  004083A0: 75 27              jne         004083C9
  004083A2: 8D 45 10           lea         eax,[ebp+10h]
  004083A5: 50                 push        eax
  004083A6: E8 45 0C 00 00     call        00408FF0
  004083AB: 83 C4 04           add         esp,4
  004083AE: 89 85 C8 FD FF FF  mov         dword ptr [ebp+FFFFFDC8h],eax
  004083B4: 83 BD C8 FD FF FF  cmp         dword ptr [ebp+FFFFFDC8h],0
            00
  004083BB: 7D 0A              jge         004083C7
  004083BD: C7 85 C8 FD FF FF  mov         dword ptr [ebp+FFFFFDC8h],0FFFFFFFFh
            FF FF FF FF
  004083C7: EB 17              jmp         004083E0
  004083C9: 8B 8D C8 FD FF FF  mov         ecx,dword ptr [ebp+FFFFFDC8h]
  004083CF: 6B C9 0A           imul        ecx,ecx,0Ah
  004083D2: 0F BE 55 D4        movsx       edx,byte ptr [ebp-2Ch]
  004083D6: 8D 44 11 D0        lea         eax,[ecx+edx-30h]
  004083DA: 89 85 C8 FD FF FF  mov         dword ptr [ebp+FFFFFDC8h],eax
  004083E0: E9 E4 09 00 00     jmp         00408DC9
  004083E5: 0F BE 4D D4        movsx       ecx,byte ptr [ebp-2Ch]
  004083E9: 89 8D 60 FD FF FF  mov         dword ptr [ebp+FFFFFD60h],ecx
  004083EF: 8B 95 60 FD FF FF  mov         edx,dword ptr [ebp+FFFFFD60h]
  004083F5: 83 EA 49           sub         edx,49h
  004083F8: 89 95 60 FD FF FF  mov         dword ptr [ebp+FFFFFD60h],edx
  004083FE: 83 BD 60 FD FF FF  cmp         dword ptr [ebp+FFFFFD60h],2Eh
            2E
  00408405: 77 6C              ja          00408473
  00408407: 8B 8D 60 FD FF FF  mov         ecx,dword ptr [ebp+FFFFFD60h]
  0040840D: 33 C0              xor         eax,eax
  0040840F: 8A 81 38 8E 40 00  mov         al,byte ptr [ecx+00408E38h]
  00408415: FF 24 85 24 8E 40  jmp         dword ptr [eax*4+00408E24h]
            00
  0040841C: 8B 55 FC           mov         edx,dword ptr [ebp-4]
  0040841F: 83 CA 10           or          edx,10h
  00408422: 89 55 FC           mov         dword ptr [ebp-4],edx
  00408425: EB 4C              jmp         00408473
  00408427: 8B 45 0C           mov         eax,dword ptr [ebp+0Ch]
  0040842A: 0F BE 08           movsx       ecx,byte ptr [eax]
  0040842D: 83 F9 36           cmp         ecx,36h
  00408430: 75 20              jne         00408452
  00408432: 8B 55 0C           mov         edx,dword ptr [ebp+0Ch]
  00408435: 0F BE 42 01        movsx       eax,byte ptr [edx+1]
  00408439: 83 F8 34           cmp         eax,34h
  0040843C: 75 14              jne         00408452
  0040843E: 8B 4D 0C           mov         ecx,dword ptr [ebp+0Ch]
  00408441: 83 C1 02           add         ecx,2
  00408444: 89 4D 0C           mov         dword ptr [ebp+0Ch],ecx
  00408447: 8B 55 FC           mov         edx,dword ptr [ebp-4]
  0040844A: 80 CE 80           or          dh,80h
  0040844D: 89 55 FC           mov         dword ptr [ebp-4],edx
  00408450: EB 0C              jmp         0040845E
  00408452: C7 45 E4 00 00 00  mov         dword ptr [ebp-1Ch],0
            00
  00408459: E9 89 FD FF FF     jmp         004081E7
  0040845E: EB 13              jmp         00408473
  00408460: 8B 45 FC           mov         eax,dword ptr [ebp-4]
  00408463: 0C 20              or          al,20h
  00408465: 89 45 FC           mov         dword ptr [ebp-4],eax
  00408468: EB 09              jmp         00408473
  0040846A: 8B 4D FC           mov         ecx,dword ptr [ebp-4]
  0040846D: 80 CD 08           or          ch,8
  00408470: 89 4D FC           mov         dword ptr [ebp-4],ecx
  00408473: E9 51 09 00 00     jmp         00408DC9
  00408478: 0F BE 55 D4        movsx       edx,byte ptr [ebp-2Ch]
  0040847C: 89 95 5C FD FF FF  mov         dword ptr [ebp+FFFFFD5Ch],edx
  00408482: 8B 85 5C FD FF FF  mov         eax,dword ptr [ebp+FFFFFD5Ch]
  00408488: 83 E8 43           sub         eax,43h
  0040848B: 89 85 5C FD FF FF  mov         dword ptr [ebp+FFFFFD5Ch],eax
  00408491: 83 BD 5C FD FF FF  cmp         dword ptr [ebp+FFFFFD5Ch],35h
            35
  00408498: 0F 87 35 07 00 00  ja          00408BD3
  0040849E: 8B 95 5C FD FF FF  mov         edx,dword ptr [ebp+FFFFFD5Ch]
  004084A4: 33 C9              xor         ecx,ecx
  004084A6: 8A 8A A3 8E 40 00  mov         cl,byte ptr [edx+00408EA3h]
  004084AC: FF 24 8D 67 8E 40  jmp         dword ptr [ecx*4+00408E67h]
            00
  004084B3: 8B 45 FC           mov         eax,dword ptr [ebp-4]
  004084B6: 25 30 08 00 00     and         eax,830h
  004084BB: 85 C0              test        eax,eax
  004084BD: 75 09              jne         004084C8
  004084BF: 8B 4D FC           mov         ecx,dword ptr [ebp-4]
  004084C2: 80 CD 08           or          ch,8
  004084C5: 89 4D FC           mov         dword ptr [ebp-4],ecx
  004084C8: 8B 55 FC           mov         edx,dword ptr [ebp-4]
  004084CB: 81 E2 10 08 00 00  and         edx,810h
  004084D1: 85 D2              test        edx,edx
  004084D3: 74 39              je          0040850E
  004084D5: 8D 45 10           lea         eax,[ebp+10h]
  004084D8: 50                 push        eax
  004084D9: E8 52 0B 00 00     call        00409030
  004084DE: 83 C4 04           add         esp,4
  004084E1: 66 89 45 E8        mov         word ptr [ebp-18h],ax
  004084E5: 66 8B 4D E8        mov         cx,word ptr [ebp-18h]
  004084E9: 51                 push        ecx
  004084EA: 8D 95 D4 FD FF FF  lea         edx,[ebp+FFFFFDD4h]
  004084F0: 52                 push        edx
  004084F1: E8 6A 1F 00 00     call        0040A460
  004084F6: 83 C4 08           add         esp,8
  004084F9: 89 45 D8           mov         dword ptr [ebp-28h],eax
  004084FC: 83 7D D8 00        cmp         dword ptr [ebp-28h],0
  00408500: 7D 0A              jge         0040850C
  00408502: C7 85 C0 FD FF FF  mov         dword ptr [ebp+FFFFFDC0h],1
            01 00 00 00
  0040850C: EB 26              jmp         00408534
  0040850E: 8D 45 10           lea         eax,[ebp+10h]
  00408511: 50                 push        eax
  00408512: E8 D9 0A 00 00     call        00408FF0
  00408517: 83 C4 04           add         esp,4
  0040851A: 66 89 85 B4 FD FF  mov         word ptr [ebp+FFFFFDB4h],ax
            FF
  00408521: 8A 8D B4 FD FF FF  mov         cl,byte ptr [ebp+FFFFFDB4h]
  00408527: 88 8D D4 FD FF FF  mov         byte ptr [ebp+FFFFFDD4h],cl
  0040852D: C7 45 D8 01 00 00  mov         dword ptr [ebp-28h],1
            00
  00408534: 8D 95 D4 FD FF FF  lea         edx,[ebp+FFFFFDD4h]
  0040853A: 89 55 DC           mov         dword ptr [ebp-24h],edx
  0040853D: E9 91 06 00 00     jmp         00408BD3
  00408542: 8D 45 10           lea         eax,[ebp+10h]
  00408545: 50                 push        eax
  00408546: E8 A5 0A 00 00     call        00408FF0
  0040854B: 83 C4 04           add         esp,4
  0040854E: 89 85 B0 FD FF FF  mov         dword ptr [ebp+FFFFFDB0h],eax
  00408554: 83 BD B0 FD FF FF  cmp         dword ptr [ebp+FFFFFDB0h],0
            00
  0040855B: 74 0C              je          00408569
  0040855D: 8B 8D B0 FD FF FF  mov         ecx,dword ptr [ebp+FFFFFDB0h]
  00408563: 83 79 04 00        cmp         dword ptr [ecx+4],0
  00408567: 75 1A              jne         00408583
  00408569: 8B 15 00 F3 40 00  mov         edx,dword ptr ds:[0040F300h]
  0040856F: 89 55 DC           mov         dword ptr [ebp-24h],edx
  00408572: 8B 45 DC           mov         eax,dword ptr [ebp-24h]
  00408575: 50                 push        eax
  00408576: E8 D5 AA FF FF     call        00403050
  0040857B: 83 C4 04           add         esp,4
  0040857E: 89 45 D8           mov         dword ptr [ebp-28h],eax
  00408581: EB 4F              jmp         004085D2
  00408583: 8B 4D FC           mov         ecx,dword ptr [ebp-4]
  00408586: 81 E1 00 08 00 00  and         ecx,800h
  0040858C: 85 C9              test        ecx,ecx
  0040858E: 74 23              je          004085B3
  00408590: 8B 95 B0 FD FF FF  mov         edx,dword ptr [ebp+FFFFFDB0h]
  00408596: 8B 42 04           mov         eax,dword ptr [edx+4]
  00408599: 89 45 DC           mov         dword ptr [ebp-24h],eax
  0040859C: 8B 8D B0 FD FF FF  mov         ecx,dword ptr [ebp+FFFFFDB0h]
  004085A2: 0F BF 11           movsx       edx,word ptr [ecx]
  004085A5: D1 EA              shr         edx,1
  004085A7: 89 55 D8           mov         dword ptr [ebp-28h],edx
  004085AA: C7 45 E0 01 00 00  mov         dword ptr [ebp-20h],1
            00
  004085B1: EB 1F              jmp         004085D2
  004085B3: C7 45 E0 00 00 00  mov         dword ptr [ebp-20h],0
            00
  004085BA: 8B 85 B0 FD FF FF  mov         eax,dword ptr [ebp+FFFFFDB0h]
  004085C0: 8B 48 04           mov         ecx,dword ptr [eax+4]
  004085C3: 89 4D DC           mov         dword ptr [ebp-24h],ecx
  004085C6: 8B 95 B0 FD FF FF  mov         edx,dword ptr [ebp+FFFFFDB0h]
  004085CC: 0F BF 02           movsx       eax,word ptr [edx]
  004085CF: 89 45 D8           mov         dword ptr [ebp-28h],eax
  004085D2: E9 FC 05 00 00     jmp         00408BD3
  004085D7: 8B 4D FC           mov         ecx,dword ptr [ebp-4]
  004085DA: 81 E1 30 08 00 00  and         ecx,830h
  004085E0: 85 C9              test        ecx,ecx
  004085E2: 75 09              jne         004085ED
  004085E4: 8B 55 FC           mov         edx,dword ptr [ebp-4]
  004085E7: 80 CE 08           or          dh,8
  004085EA: 89 55 FC           mov         dword ptr [ebp-4],edx
  004085ED: 83 BD C8 FD FF FF  cmp         dword ptr [ebp+FFFFFDC8h],0FFh
            FF
  004085F4: 75 0C              jne         00408602
  004085F6: C7 85 58 FD FF FF  mov         dword ptr [ebp+FFFFFD58h],7FFFFFFFh
            FF FF FF 7F
  00408600: EB 0C              jmp         0040860E
  00408602: 8B 85 C8 FD FF FF  mov         eax,dword ptr [ebp+FFFFFDC8h]
  00408608: 89 85 58 FD FF FF  mov         dword ptr [ebp+FFFFFD58h],eax
  0040860E: 8B 8D 58 FD FF FF  mov         ecx,dword ptr [ebp+FFFFFD58h]
  00408614: 89 8D A4 FD FF FF  mov         dword ptr [ebp+FFFFFDA4h],ecx
  0040861A: 8D 55 10           lea         edx,[ebp+10h]
  0040861D: 52                 push        edx
  0040861E: E8 CD 09 00 00     call        00408FF0
  00408623: 83 C4 04           add         esp,4
  00408626: 89 45 DC           mov         dword ptr [ebp-24h],eax
  00408629: 8B 45 FC           mov         eax,dword ptr [ebp-4]
  0040862C: 25 10 08 00 00     and         eax,810h
  00408631: 85 C0              test        eax,eax
  00408633: 74 68              je          0040869D
  00408635: 83 7D DC 00        cmp         dword ptr [ebp-24h],0
  00408639: 75 09              jne         00408644
  0040863B: 8B 0D 04 F3 40 00  mov         ecx,dword ptr ds:[0040F304h]
  00408641: 89 4D DC           mov         dword ptr [ebp-24h],ecx
  00408644: C7 45 E0 01 00 00  mov         dword ptr [ebp-20h],1
            00
  0040864B: 8B 55 DC           mov         edx,dword ptr [ebp-24h]
  0040864E: 89 95 A8 FD FF FF  mov         dword ptr [ebp+FFFFFDA8h],edx
  00408654: 8B 85 A4 FD FF FF  mov         eax,dword ptr [ebp+FFFFFDA4h]
  0040865A: 8B 8D A4 FD FF FF  mov         ecx,dword ptr [ebp+FFFFFDA4h]
  00408660: 83 E9 01           sub         ecx,1
  00408663: 89 8D A4 FD FF FF  mov         dword ptr [ebp+FFFFFDA4h],ecx
  00408669: 85 C0              test        eax,eax
  0040866B: 74 20              je          0040868D
  0040866D: 8B 95 A8 FD FF FF  mov         edx,dword ptr [ebp+FFFFFDA8h]
  00408673: 33 C0              xor         eax,eax
  00408675: 66 8B 02           mov         ax,word ptr [edx]
  00408678: 85 C0              test        eax,eax
  0040867A: 74 11              je          0040868D
  0040867C: 8B 8D A8 FD FF FF  mov         ecx,dword ptr [ebp+FFFFFDA8h]
  00408682: 83 C1 02           add         ecx,2
  00408685: 89 8D A8 FD FF FF  mov         dword ptr [ebp+FFFFFDA8h],ecx
  0040868B: EB C7              jmp         00408654
  0040868D: 8B 95 A8 FD FF FF  mov         edx,dword ptr [ebp+FFFFFDA8h]
  00408693: 2B 55 DC           sub         edx,dword ptr [ebp-24h]
  00408696: D1 FA              sar         edx,1
  00408698: 89 55 D8           mov         dword ptr [ebp-28h],edx
  0040869B: EB 5A              jmp         004086F7
  0040869D: 83 7D DC 00        cmp         dword ptr [ebp-24h],0
  004086A1: 75 08              jne         004086AB
  004086A3: A1 00 F3 40 00     mov         eax,[0040F300]
  004086A8: 89 45 DC           mov         dword ptr [ebp-24h],eax
  004086AB: 8B 4D DC           mov         ecx,dword ptr [ebp-24h]
  004086AE: 89 8D AC FD FF FF  mov         dword ptr [ebp+FFFFFDACh],ecx
  004086B4: 8B 95 A4 FD FF FF  mov         edx,dword ptr [ebp+FFFFFDA4h]
  004086BA: 8B 85 A4 FD FF FF  mov         eax,dword ptr [ebp+FFFFFDA4h]
  004086C0: 83 E8 01           sub         eax,1
  004086C3: 89 85 A4 FD FF FF  mov         dword ptr [ebp+FFFFFDA4h],eax
  004086C9: 85 D2              test        edx,edx
  004086CB: 74 1E              je          004086EB
  004086CD: 8B 8D AC FD FF FF  mov         ecx,dword ptr [ebp+FFFFFDACh]
  004086D3: 0F BE 11           movsx       edx,byte ptr [ecx]
  004086D6: 85 D2              test        edx,edx
  004086D8: 74 11              je          004086EB
  004086DA: 8B 85 AC FD FF FF  mov         eax,dword ptr [ebp+FFFFFDACh]
  004086E0: 83 C0 01           add         eax,1
  004086E3: 89 85 AC FD FF FF  mov         dword ptr [ebp+FFFFFDACh],eax
  004086E9: EB C9              jmp         004086B4
  004086EB: 8B 8D AC FD FF FF  mov         ecx,dword ptr [ebp+FFFFFDACh]
  004086F1: 2B 4D DC           sub         ecx,dword ptr [ebp-24h]
  004086F4: 89 4D D8           mov         dword ptr [ebp-28h],ecx
  004086F7: E9 D7 04 00 00     jmp         00408BD3
  004086FC: 8D 55 10           lea         edx,[ebp+10h]
  004086FF: 52                 push        edx
  00408700: E8 EB 08 00 00     call        00408FF0
  00408705: 83 C4 04           add         esp,4
  00408708: 89 85 A0 FD FF FF  mov         dword ptr [ebp+FFFFFDA0h],eax
  0040870E: 8B 45 FC           mov         eax,dword ptr [ebp-4]
  00408711: 83 E0 20           and         eax,20h
  00408714: 85 C0              test        eax,eax
  00408716: 74 12              je          0040872A
  00408718: 8B 8D A0 FD FF FF  mov         ecx,dword ptr [ebp+FFFFFDA0h]
  0040871E: 66 8B 95 D0 FD FF  mov         dx,word ptr [ebp+FFFFFDD0h]
            FF
  00408725: 66 89 11           mov         word ptr [ecx],dx
  00408728: EB 0E              jmp         00408738
  0040872A: 8B 85 A0 FD FF FF  mov         eax,dword ptr [ebp+FFFFFDA0h]
  00408730: 8B 8D D0 FD FF FF  mov         ecx,dword ptr [ebp+FFFFFDD0h]
  00408736: 89 08              mov         dword ptr [eax],ecx
  00408738: C7 85 C0 FD FF FF  mov         dword ptr [ebp+FFFFFDC0h],1
            01 00 00 00
  00408742: E9 8C 04 00 00     jmp         00408BD3
  00408747: C7 45 F8 01 00 00  mov         dword ptr [ebp-8],1
            00
  0040874E: 8A 55 D4           mov         dl,byte ptr [ebp-2Ch]
  00408751: 80 C2 20           add         dl,20h
  00408754: 88 55 D4           mov         byte ptr [ebp-2Ch],dl
  00408757: 8B 45 FC           mov         eax,dword ptr [ebp-4]
  0040875A: 0C 40              or          al,40h
  0040875C: 89 45 FC           mov         dword ptr [ebp-4],eax
  0040875F: 8D 8D D4 FD FF FF  lea         ecx,[ebp+FFFFFDD4h]
  00408765: 89 4D DC           mov         dword ptr [ebp-24h],ecx
  00408768: 83 BD C8 FD FF FF  cmp         dword ptr [ebp+FFFFFDC8h],0
            00
  0040876F: 7D 0C              jge         0040877D
  00408771: C7 85 C8 FD FF FF  mov         dword ptr [ebp+FFFFFDC8h],6
            06 00 00 00
  0040877B: EB 34              jmp         004087B1
  0040877D: 83 BD C8 FD FF FF  cmp         dword ptr [ebp+FFFFFDC8h],0
            00
  00408784: 75 15              jne         0040879B
  00408786: 0F BE 55 D4        movsx       edx,byte ptr [ebp-2Ch]
  0040878A: 83 FA 67           cmp         edx,67h
  0040878D: 75 0C              jne         0040879B
  0040878F: C7 85 C8 FD FF FF  mov         dword ptr [ebp+FFFFFDC8h],1
            01 00 00 00
  00408799: EB 16              jmp         004087B1
  0040879B: 81 BD C8 FD FF FF  cmp         dword ptr [ebp+FFFFFDC8h],200h
            00 02 00 00
  004087A5: 7E 0A              jle         004087B1
  004087A7: C7 85 C8 FD FF FF  mov         dword ptr [ebp+FFFFFDC8h],200h
            00 02 00 00
  004087B1: 81 BD C8 FD FF FF  cmp         dword ptr [ebp+FFFFFDC8h],0A3h
            A3 00 00 00
  004087BB: 7E 3B              jle         004087F8
  004087BD: 68 EA 02 00 00     push        2EAh
  004087C2: 68 84 BD 40 00     push        40BD84h
  004087C7: 6A 02              push        2
  004087C9: 8B 85 C8 FD FF FF  mov         eax,dword ptr [ebp+FFFFFDC8h]
  004087CF: 05 5D 01 00 00     add         eax,15Dh
  004087D4: 50                 push        eax
  004087D5: E8 F6 AF FF FF     call        004037D0
  004087DA: 83 C4 10           add         esp,10h
  004087DD: 89 45 F4           mov         dword ptr [ebp-0Ch],eax
  004087E0: 83 7D F4 00        cmp         dword ptr [ebp-0Ch],0
  004087E4: 74 08              je          004087EE
  004087E6: 8B 4D F4           mov         ecx,dword ptr [ebp-0Ch]
  004087E9: 89 4D DC           mov         dword ptr [ebp-24h],ecx
  004087EC: EB 0A              jmp         004087F8
  004087EE: C7 85 C8 FD FF FF  mov         dword ptr [ebp+FFFFFDC8h],0A3h
            A3 00 00 00
  004087F8: 8B 55 10           mov         edx,dword ptr [ebp+10h]
  004087FB: 83 C2 08           add         edx,8
  004087FE: 89 55 10           mov         dword ptr [ebp+10h],edx
  00408801: 8B 45 10           mov         eax,dword ptr [ebp+10h]
  00408804: 83 E8 08           sub         eax,8
  00408807: 8B 08              mov         ecx,dword ptr [eax]
  00408809: 8B 50 04           mov         edx,dword ptr [eax+4]
  0040880C: 89 8D 98 FD FF FF  mov         dword ptr [ebp+FFFFFD98h],ecx
  00408812: 89 95 9C FD FF FF  mov         dword ptr [ebp+FFFFFD9Ch],edx
  00408818: 8B 45 F8           mov         eax,dword ptr [ebp-8]
  0040881B: 50                 push        eax
  0040881C: 8B 8D C8 FD FF FF  mov         ecx,dword ptr [ebp+FFFFFDC8h]
  00408822: 51                 push        ecx
  00408823: 0F BE 55 D4        movsx       edx,byte ptr [ebp-2Ch]
  00408827: 52                 push        edx
  00408828: 8B 45 DC           mov         eax,dword ptr [ebp-24h]
  0040882B: 50                 push        eax
  0040882C: 8D 8D 98 FD FF FF  lea         ecx,[ebp+FFFFFD98h]
  00408832: 51                 push        ecx
  00408833: FF 15 B0 F7 40 00  call        dword ptr ds:[0040F7B0h]
  00408839: 83 C4 14           add         esp,14h
  0040883C: 8B 55 FC           mov         edx,dword ptr [ebp-4]
  0040883F: 81 E2 80 00 00 00  and         edx,80h
  00408845: 85 D2              test        edx,edx
  00408847: 74 16              je          0040885F
  00408849: 83 BD C8 FD FF FF  cmp         dword ptr [ebp+FFFFFDC8h],0
            00
  00408850: 75 0D              jne         0040885F
  00408852: 8B 45 DC           mov         eax,dword ptr [ebp-24h]
  00408855: 50                 push        eax
  00408856: FF 15 BC F7 40 00  call        dword ptr ds:[0040F7BCh]
  0040885C: 83 C4 04           add         esp,4
  0040885F: 0F BE 4D D4        movsx       ecx,byte ptr [ebp-2Ch]
  00408863: 83 F9 67           cmp         ecx,67h
  00408866: 75 1A              jne         00408882
  00408868: 8B 55 FC           mov         edx,dword ptr [ebp-4]
  0040886B: 81 E2 80 00 00 00  and         edx,80h
  00408871: 85 D2              test        edx,edx
  00408873: 75 0D              jne         00408882
  00408875: 8B 45 DC           mov         eax,dword ptr [ebp-24h]
  00408878: 50                 push        eax
  00408879: FF 15 B4 F7 40 00  call        dword ptr ds:[0040F7B4h]
  0040887F: 83 C4 04           add         esp,4
  00408882: 8B 4D DC           mov         ecx,dword ptr [ebp-24h]
  00408885: 0F BE 11           movsx       edx,byte ptr [ecx]
  00408888: 83 FA 2D           cmp         edx,2Dh
  0040888B: 75 12              jne         0040889F
  0040888D: 8B 45 FC           mov         eax,dword ptr [ebp-4]
  00408890: 80 CC 01           or          ah,1
  00408893: 89 45 FC           mov         dword ptr [ebp-4],eax
  00408896: 8B 4D DC           mov         ecx,dword ptr [ebp-24h]
  00408899: 83 C1 01           add         ecx,1
  0040889C: 89 4D DC           mov         dword ptr [ebp-24h],ecx
  0040889F: 8B 55 DC           mov         edx,dword ptr [ebp-24h]
  004088A2: 52                 push        edx
  004088A3: E8 A8 A7 FF FF     call        00403050
  004088A8: 83 C4 04           add         esp,4
  004088AB: 89 45 D8           mov         dword ptr [ebp-28h],eax
  004088AE: E9 20 03 00 00     jmp         00408BD3
  004088B3: 8B 45 FC           mov         eax,dword ptr [ebp-4]
  004088B6: 0C 40              or          al,40h
  004088B8: 89 45 FC           mov         dword ptr [ebp-4],eax
  004088BB: C7 85 C4 FD FF FF  mov         dword ptr [ebp+FFFFFDC4h],0Ah
            0A 00 00 00
  004088C5: E9 81 00 00 00     jmp         0040894B
  004088CA: C7 85 C4 FD FF FF  mov         dword ptr [ebp+FFFFFDC4h],0Ah
            0A 00 00 00
  004088D4: EB 75              jmp         0040894B
  004088D6: C7 85 C8 FD FF FF  mov         dword ptr [ebp+FFFFFDC8h],8
            08 00 00 00
  004088E0: C7 85 CC FD FF FF  mov         dword ptr [ebp+FFFFFDCCh],7
            07 00 00 00
  004088EA: EB 0A              jmp         004088F6
  004088EC: C7 85 CC FD FF FF  mov         dword ptr [ebp+FFFFFDCCh],27h
            27 00 00 00
  004088F6: C7 85 C4 FD FF FF  mov         dword ptr [ebp+FFFFFDC4h],10h
            10 00 00 00
  00408900: 8B 4D FC           mov         ecx,dword ptr [ebp-4]
  00408903: 81 E1 80 00 00 00  and         ecx,80h
  00408909: 85 C9              test        ecx,ecx
  0040890B: 74 1D              je          0040892A
  0040890D: C6 85 BC FD FF FF  mov         byte ptr [ebp+FFFFFDBCh],30h
            30
  00408914: 8B 95 CC FD FF FF  mov         edx,dword ptr [ebp+FFFFFDCCh]
  0040891A: 83 C2 51           add         edx,51h
  0040891D: 88 95 BD FD FF FF  mov         byte ptr [ebp+FFFFFDBDh],dl
  00408923: C7 45 EC 02 00 00  mov         dword ptr [ebp-14h],2
            00
  0040892A: EB 1F              jmp         0040894B
  0040892C: C7 85 C4 FD FF FF  mov         dword ptr [ebp+FFFFFDC4h],8
            08 00 00 00
  00408936: 8B 45 FC           mov         eax,dword ptr [ebp-4]
  00408939: 25 80 00 00 00     and         eax,80h
  0040893E: 85 C0              test        eax,eax
  00408940: 74 09              je          0040894B
  00408942: 8B 4D FC           mov         ecx,dword ptr [ebp-4]
  00408945: 80 CD 02           or          ch,2
  00408948: 89 4D FC           mov         dword ptr [ebp-4],ecx
  0040894B: 8B 55 FC           mov         edx,dword ptr [ebp-4]
  0040894E: 81 E2 00 80 00 00  and         edx,8000h
  00408954: 85 D2              test        edx,edx
  00408956: 74 1D              je          00408975
  00408958: 8D 45 10           lea         eax,[ebp+10h]
  0040895B: 50                 push        eax
  0040895C: E8 AF 06 00 00     call        00409010
  00408961: 83 C4 04           add         esp,4
  00408964: 89 85 84 FD FF FF  mov         dword ptr [ebp+FFFFFD84h],eax
  0040896A: 89 95 88 FD FF FF  mov         dword ptr [ebp+FFFFFD88h],edx
  00408970: E9 91 00 00 00     jmp         00408A06
  00408975: 8B 4D FC           mov         ecx,dword ptr [ebp-4]
  00408978: 83 E1 20           and         ecx,20h
  0040897B: 85 C9              test        ecx,ecx
  0040897D: 74 48              je          004089C7
  0040897F: 8B 55 FC           mov         edx,dword ptr [ebp-4]
  00408982: 83 E2 40           and         edx,40h
  00408985: 85 D2              test        edx,edx
  00408987: 74 1E              je          004089A7
  00408989: 8D 45 10           lea         eax,[ebp+10h]
  0040898C: 50                 push        eax
  0040898D: E8 5E 06 00 00     call        00408FF0
  00408992: 83 C4 04           add         esp,4
  00408995: 0F BF C0           movsx       eax,ax
  00408998: 99                 cdq
  00408999: 89 85 84 FD FF FF  mov         dword ptr [ebp+FFFFFD84h],eax
  0040899F: 89 95 88 FD FF FF  mov         dword ptr [ebp+FFFFFD88h],edx
  004089A5: EB 1E              jmp         004089C5
  004089A7: 8D 4D 10           lea         ecx,[ebp+10h]
  004089AA: 51                 push        ecx
  004089AB: E8 40 06 00 00     call        00408FF0
  004089B0: 83 C4 04           add         esp,4
  004089B3: 25 FF FF 00 00     and         eax,0FFFFh
  004089B8: 99                 cdq
  004089B9: 89 85 84 FD FF FF  mov         dword ptr [ebp+FFFFFD84h],eax
  004089BF: 89 95 88 FD FF FF  mov         dword ptr [ebp+FFFFFD88h],edx
  004089C5: EB 3F              jmp         00408A06
  004089C7: 8B 55 FC           mov         edx,dword ptr [ebp-4]
  004089CA: 83 E2 40           and         edx,40h
  004089CD: 85 D2              test        edx,edx
  004089CF: 74 1B              je          004089EC
  004089D1: 8D 45 10           lea         eax,[ebp+10h]
  004089D4: 50                 push        eax
  004089D5: E8 16 06 00 00     call        00408FF0
  004089DA: 83 C4 04           add         esp,4
  004089DD: 99                 cdq
  004089DE: 89 85 84 FD FF FF  mov         dword ptr [ebp+FFFFFD84h],eax
  004089E4: 89 95 88 FD FF FF  mov         dword ptr [ebp+FFFFFD88h],edx
  004089EA: EB 1A              jmp         00408A06
  004089EC: 8D 4D 10           lea         ecx,[ebp+10h]
  004089EF: 51                 push        ecx
  004089F0: E8 FB 05 00 00     call        00408FF0
  004089F5: 83 C4 04           add         esp,4
  004089F8: 33 D2              xor         edx,edx
  004089FA: 89 85 84 FD FF FF  mov         dword ptr [ebp+FFFFFD84h],eax
  00408A00: 89 95 88 FD FF FF  mov         dword ptr [ebp+FFFFFD88h],edx
  00408A06: 8B 45 FC           mov         eax,dword ptr [ebp-4]
  00408A09: 83 E0 40           and         eax,40h
  00408A0C: 85 C0              test        eax,eax
  00408A0E: 74 3E              je          00408A4E
  00408A10: 83 BD 88 FD FF FF  cmp         dword ptr [ebp+FFFFFD88h],0
            00
  00408A17: 7F 35              jg          00408A4E
  00408A19: 7C 09              jl          00408A24
  00408A1B: 83 BD 84 FD FF FF  cmp         dword ptr [ebp+FFFFFD84h],0
            00
  00408A22: 73 2A              jae         00408A4E
  00408A24: 8B 8D 84 FD FF FF  mov         ecx,dword ptr [ebp+FFFFFD84h]
  00408A2A: F7 D9              neg         ecx
  00408A2C: 8B 95 88 FD FF FF  mov         edx,dword ptr [ebp+FFFFFD88h]
  00408A32: 83 D2 00           adc         edx,0
  00408A35: F7 DA              neg         edx
  00408A37: 89 8D 90 FD FF FF  mov         dword ptr [ebp+FFFFFD90h],ecx
  00408A3D: 89 95 94 FD FF FF  mov         dword ptr [ebp+FFFFFD94h],edx
  00408A43: 8B 45 FC           mov         eax,dword ptr [ebp-4]
  00408A46: 80 CC 01           or          ah,1
  00408A49: 89 45 FC           mov         dword ptr [ebp-4],eax
  00408A4C: EB 18              jmp         00408A66
  00408A4E: 8B 8D 84 FD FF FF  mov         ecx,dword ptr [ebp+FFFFFD84h]
  00408A54: 89 8D 90 FD FF FF  mov         dword ptr [ebp+FFFFFD90h],ecx
  00408A5A: 8B 95 88 FD FF FF  mov         edx,dword ptr [ebp+FFFFFD88h]
  00408A60: 89 95 94 FD FF FF  mov         dword ptr [ebp+FFFFFD94h],edx
  00408A66: 8B 45 FC           mov         eax,dword ptr [ebp-4]
  00408A69: 25 00 80 00 00     and         eax,8000h
  00408A6E: 85 C0              test        eax,eax
  00408A70: 75 1B              jne         00408A8D
  00408A72: 8B 8D 90 FD FF FF  mov         ecx,dword ptr [ebp+FFFFFD90h]
  00408A78: 8B 95 94 FD FF FF  mov         edx,dword ptr [ebp+FFFFFD94h]
  00408A7E: 83 E2 00           and         edx,0
  00408A81: 89 8D 90 FD FF FF  mov         dword ptr [ebp+FFFFFD90h],ecx
  00408A87: 89 95 94 FD FF FF  mov         dword ptr [ebp+FFFFFD94h],edx
  00408A8D: 83 BD C8 FD FF FF  cmp         dword ptr [ebp+FFFFFDC8h],0
            00
  00408A94: 7D 0C              jge         00408AA2
  00408A96: C7 85 C8 FD FF FF  mov         dword ptr [ebp+FFFFFDC8h],1
            01 00 00 00
  00408AA0: EB 1E              jmp         00408AC0
  00408AA2: 8B 45 FC           mov         eax,dword ptr [ebp-4]
  00408AA5: 24 F7              and         al,0F7h
  00408AA7: 89 45 FC           mov         dword ptr [ebp-4],eax
  00408AAA: 81 BD C8 FD FF FF  cmp         dword ptr [ebp+FFFFFDC8h],200h
            00 02 00 00
  00408AB4: 7E 0A              jle         00408AC0
  00408AB6: C7 85 C8 FD FF FF  mov         dword ptr [ebp+FFFFFDC8h],200h
            00 02 00 00
  00408AC0: 8B 8D 90 FD FF FF  mov         ecx,dword ptr [ebp+FFFFFD90h]
  00408AC6: 0B 8D 94 FD FF FF  or          ecx,dword ptr [ebp+FFFFFD94h]
  00408ACC: 85 C9              test        ecx,ecx
  00408ACE: 75 07              jne         00408AD7
  00408AD0: C7 45 EC 00 00 00  mov         dword ptr [ebp-14h],0
            00
  00408AD7: 8D 55 D3           lea         edx,[ebp-2Dh]
  00408ADA: 89 55 DC           mov         dword ptr [ebp-24h],edx
  00408ADD: 8B 85 C8 FD FF FF  mov         eax,dword ptr [ebp+FFFFFDC8h]
  00408AE3: 8B 8D C8 FD FF FF  mov         ecx,dword ptr [ebp+FFFFFDC8h]
  00408AE9: 83 E9 01           sub         ecx,1
  00408AEC: 89 8D C8 FD FF FF  mov         dword ptr [ebp+FFFFFDC8h],ecx
  00408AF2: 85 C0              test        eax,eax
  00408AF4: 7F 14              jg          00408B0A
  00408AF6: 8B 95 90 FD FF FF  mov         edx,dword ptr [ebp+FFFFFD90h]
  00408AFC: 0B 95 94 FD FF FF  or          edx,dword ptr [ebp+FFFFFD94h]
  00408B02: 85 D2              test        edx,edx
  00408B04: 0F 84 81 00 00 00  je          00408B8B
  00408B0A: 8B 85 C4 FD FF FF  mov         eax,dword ptr [ebp+FFFFFDC4h]
  00408B10: 99                 cdq
  00408B11: 52                 push        edx
  00408B12: 50                 push        eax
  00408B13: 8B 85 94 FD FF FF  mov         eax,dword ptr [ebp+FFFFFD94h]
  00408B19: 50                 push        eax
  00408B1A: 8B 8D 90 FD FF FF  mov         ecx,dword ptr [ebp+FFFFFD90h]
  00408B20: 51                 push        ecx
  00408B21: E8 FA F2 FF FF     call        00407E20
  00408B26: 83 C0 30           add         eax,30h
  00408B29: 89 85 8C FD FF FF  mov         dword ptr [ebp+FFFFFD8Ch],eax
  00408B2F: 8B 85 C4 FD FF FF  mov         eax,dword ptr [ebp+FFFFFDC4h]
  00408B35: 99                 cdq
  00408B36: 52                 push        edx
  00408B37: 50                 push        eax
  00408B38: 8B 95 94 FD FF FF  mov         edx,dword ptr [ebp+FFFFFD94h]
  00408B3E: 52                 push        edx
  00408B3F: 8B 85 90 FD FF FF  mov         eax,dword ptr [ebp+FFFFFD90h]
  00408B45: 50                 push        eax
  00408B46: E8 65 F2 FF FF     call        00407DB0
  00408B4B: 89 85 90 FD FF FF  mov         dword ptr [ebp+FFFFFD90h],eax
  00408B51: 89 95 94 FD FF FF  mov         dword ptr [ebp+FFFFFD94h],edx
  00408B57: 83 BD 8C FD FF FF  cmp         dword ptr [ebp+FFFFFD8Ch],39h
            39
  00408B5E: 7E 12              jle         00408B72
  00408B60: 8B 8D 8C FD FF FF  mov         ecx,dword ptr [ebp+FFFFFD8Ch]
  00408B66: 03 8D CC FD FF FF  add         ecx,dword ptr [ebp+FFFFFDCCh]
  00408B6C: 89 8D 8C FD FF FF  mov         dword ptr [ebp+FFFFFD8Ch],ecx
  00408B72: 8B 55 DC           mov         edx,dword ptr [ebp-24h]
  00408B75: 8A 85 8C FD FF FF  mov         al,byte ptr [ebp+FFFFFD8Ch]
  00408B7B: 88 02              mov         byte ptr [edx],al
  00408B7D: 8B 4D DC           mov         ecx,dword ptr [ebp-24h]
  00408B80: 83 E9 01           sub         ecx,1
  00408B83: 89 4D DC           mov         dword ptr [ebp-24h],ecx
  00408B86: E9 52 FF FF FF     jmp         00408ADD
  00408B8B: 8D 55 D3           lea         edx,[ebp-2Dh]
  00408B8E: 2B 55 DC           sub         edx,dword ptr [ebp-24h]
  00408B91: 89 55 D8           mov         dword ptr [ebp-28h],edx
  00408B94: 8B 45 DC           mov         eax,dword ptr [ebp-24h]
  00408B97: 83 C0 01           add         eax,1
  00408B9A: 89 45 DC           mov         dword ptr [ebp-24h],eax
  00408B9D: 8B 4D FC           mov         ecx,dword ptr [ebp-4]
  00408BA0: 81 E1 00 02 00 00  and         ecx,200h
  00408BA6: 85 C9              test        ecx,ecx
  00408BA8: 74 29              je          00408BD3
  00408BAA: 8B 55 DC           mov         edx,dword ptr [ebp-24h]
  00408BAD: 0F BE 02           movsx       eax,byte ptr [edx]
  00408BB0: 83 F8 30           cmp         eax,30h
  00408BB3: 75 06              jne         00408BBB
  00408BB5: 83 7D D8 00        cmp         dword ptr [ebp-28h],0
  00408BB9: 75 18              jne         00408BD3
  00408BBB: 8B 4D DC           mov         ecx,dword ptr [ebp-24h]
  00408BBE: 83 E9 01           sub         ecx,1
  00408BC1: 89 4D DC           mov         dword ptr [ebp-24h],ecx
  00408BC4: 8B 55 DC           mov         edx,dword ptr [ebp-24h]
  00408BC7: C6 02 30           mov         byte ptr [edx],30h
  00408BCA: 8B 45 D8           mov         eax,dword ptr [ebp-28h]
  00408BCD: 83 C0 01           add         eax,1
  00408BD0: 89 45 D8           mov         dword ptr [ebp-28h],eax
  00408BD3: 83 BD C0 FD FF FF  cmp         dword ptr [ebp+FFFFFDC0h],0
            00
  00408BDA: 0F 85 CE 01 00 00  jne         00408DAE
  00408BE0: 8B 4D FC           mov         ecx,dword ptr [ebp-4]
  00408BE3: 83 E1 40           and         ecx,40h
  00408BE6: 85 C9              test        ecx,ecx
  00408BE8: 74 4F              je          00408C39
  00408BEA: 8B 55 FC           mov         edx,dword ptr [ebp-4]
  00408BED: 81 E2 00 01 00 00  and         edx,100h
  00408BF3: 85 D2              test        edx,edx
  00408BF5: 74 10              je          00408C07
  00408BF7: C6 85 BC FD FF FF  mov         byte ptr [ebp+FFFFFDBCh],2Dh
            2D
  00408BFE: C7 45 EC 01 00 00  mov         dword ptr [ebp-14h],1
            00
  00408C05: EB 32              jmp         00408C39
  00408C07: 8B 45 FC           mov         eax,dword ptr [ebp-4]
  00408C0A: 83 E0 01           and         eax,1
  00408C0D: 85 C0              test        eax,eax
  00408C0F: 74 10              je          00408C21
  00408C11: C6 85 BC FD FF FF  mov         byte ptr [ebp+FFFFFDBCh],2Bh
            2B
  00408C18: C7 45 EC 01 00 00  mov         dword ptr [ebp-14h],1
            00
  00408C1F: EB 18              jmp         00408C39
  00408C21: 8B 4D FC           mov         ecx,dword ptr [ebp-4]
  00408C24: 83 E1 02           and         ecx,2
  00408C27: 85 C9              test        ecx,ecx
  00408C29: 74 0E              je          00408C39
  00408C2B: C6 85 BC FD FF FF  mov         byte ptr [ebp+FFFFFDBCh],20h
            20
  00408C32: C7 45 EC 01 00 00  mov         dword ptr [ebp-14h],1
            00
  00408C39: 8B 95 B8 FD FF FF  mov         edx,dword ptr [ebp+FFFFFDB8h]
  00408C3F: 2B 55 D8           sub         edx,dword ptr [ebp-28h]
  00408C42: 2B 55 EC           sub         edx,dword ptr [ebp-14h]
  00408C45: 89 95 80 FD FF FF  mov         dword ptr [ebp+FFFFFD80h],edx
  00408C4B: 8B 45 FC           mov         eax,dword ptr [ebp-4]
  00408C4E: 83 E0 0C           and         eax,0Ch
  00408C51: 85 C0              test        eax,eax
  00408C53: 75 1C              jne         00408C71
  00408C55: 8D 8D D0 FD FF FF  lea         ecx,[ebp+FFFFFDD0h]
  00408C5B: 51                 push        ecx
  00408C5C: 8B 55 08           mov         edx,dword ptr [ebp+8]
  00408C5F: 52                 push        edx
  00408C60: 8B 85 80 FD FF FF  mov         eax,dword ptr [ebp+FFFFFD80h]
  00408C66: 50                 push        eax
  00408C67: 6A 20              push        20h
  00408C69: E8 F2 02 00 00     call        00408F60
  00408C6E: 83 C4 10           add         esp,10h
  00408C71: 8D 8D D0 FD FF FF  lea         ecx,[ebp+FFFFFDD0h]
  00408C77: 51                 push        ecx
  00408C78: 8B 55 08           mov         edx,dword ptr [ebp+8]
  00408C7B: 52                 push        edx
  00408C7C: 8B 45 EC           mov         eax,dword ptr [ebp-14h]
  00408C7F: 50                 push        eax
  00408C80: 8D 8D BC FD FF FF  lea         ecx,[ebp+FFFFFDBCh]
  00408C86: 51                 push        ecx
  00408C87: E8 14 03 00 00     call        00408FA0
  00408C8C: 83 C4 10           add         esp,10h
  00408C8F: 8B 55 FC           mov         edx,dword ptr [ebp-4]
  00408C92: 83 E2 08           and         edx,8
  00408C95: 85 D2              test        edx,edx
  00408C97: 74 26              je          00408CBF
  00408C99: 8B 45 FC           mov         eax,dword ptr [ebp-4]
  00408C9C: 83 E0 04           and         eax,4
  00408C9F: 85 C0              test        eax,eax
  00408CA1: 75 1C              jne         00408CBF
  00408CA3: 8D 8D D0 FD FF FF  lea         ecx,[ebp+FFFFFDD0h]
  00408CA9: 51                 push        ecx
  00408CAA: 8B 55 08           mov         edx,dword ptr [ebp+8]
  00408CAD: 52                 push        edx
  00408CAE: 8B 85 80 FD FF FF  mov         eax,dword ptr [ebp+FFFFFD80h]
  00408CB4: 50                 push        eax
  00408CB5: 6A 30              push        30h
  00408CB7: E8 A4 02 00 00     call        00408F60
  00408CBC: 83 C4 10           add         esp,10h
  00408CBF: 83 7D E0 00        cmp         dword ptr [ebp-20h],0
  00408CC3: 0F 84 A4 00 00 00  je          00408D6D
  00408CC9: 83 7D D8 00        cmp         dword ptr [ebp-28h],0
  00408CCD: 0F 8E 9A 00 00 00  jle         00408D6D
  00408CD3: 8B 4D DC           mov         ecx,dword ptr [ebp-24h]
  00408CD6: 89 8D 7C FD FF FF  mov         dword ptr [ebp+FFFFFD7Ch],ecx
  00408CDC: 8B 55 D8           mov         edx,dword ptr [ebp-28h]
  00408CDF: 89 95 78 FD FF FF  mov         dword ptr [ebp+FFFFFD78h],edx
  00408CE5: 8B 85 78 FD FF FF  mov         eax,dword ptr [ebp+FFFFFD78h]
  00408CEB: 8B 8D 78 FD FF FF  mov         ecx,dword ptr [ebp+FFFFFD78h]
  00408CF1: 83 E9 01           sub         ecx,1
  00408CF4: 89 8D 78 FD FF FF  mov         dword ptr [ebp+FFFFFD78h],ecx
  00408CFA: 85 C0              test        eax,eax
  00408CFC: 74 6D              je          00408D6B
  00408CFE: 8B 95 7C FD FF FF  mov         edx,dword ptr [ebp+FFFFFD7Ch]
  00408D04: 66 8B 02           mov         ax,word ptr [edx]
  00408D07: 66 89 85 56 FD FF  mov         word ptr [ebp+FFFFFD56h],ax
            FF
  00408D0E: 66 8B 8D 56 FD FF  mov         cx,word ptr [ebp+FFFFFD56h]
            FF
  00408D15: 51                 push        ecx
  00408D16: 8D 95 74 FD FF FF  lea         edx,[ebp+FFFFFD74h]
  00408D1C: 52                 push        edx
  00408D1D: 8B 85 7C FD FF FF  mov         eax,dword ptr [ebp+FFFFFD7Ch]
  00408D23: 83 C0 02           add         eax,2
  00408D26: 89 85 7C FD FF FF  mov         dword ptr [ebp+FFFFFD7Ch],eax
  00408D2C: E8 2F 17 00 00     call        0040A460
  00408D31: 83 C4 08           add         esp,8
  00408D34: 89 85 70 FD FF FF  mov         dword ptr [ebp+FFFFFD70h],eax
  00408D3A: 83 BD 70 FD FF FF  cmp         dword ptr [ebp+FFFFFD70h],0
            00
  00408D41: 7F 02              jg          00408D45
  00408D43: EB 26              jmp         00408D6B
  00408D45: 8D 8D D0 FD FF FF  lea         ecx,[ebp+FFFFFDD0h]
  00408D4B: 51                 push        ecx
  00408D4C: 8B 55 08           mov         edx,dword ptr [ebp+8]
  00408D4F: 52                 push        edx
  00408D50: 8B 85 70 FD FF FF  mov         eax,dword ptr [ebp+FFFFFD70h]
  00408D56: 50                 push        eax
  00408D57: 8D 8D 74 FD FF FF  lea         ecx,[ebp+FFFFFD74h]
  00408D5D: 51                 push        ecx
  00408D5E: E8 3D 02 00 00     call        00408FA0
  00408D63: 83 C4 10           add         esp,10h
  00408D66: E9 7A FF FF FF     jmp         00408CE5
  00408D6B: EB 1B              jmp         00408D88
  00408D6D: 8D 95 D0 FD FF FF  lea         edx,[ebp+FFFFFDD0h]
  00408D73: 52                 push        edx
  00408D74: 8B 45 08           mov         eax,dword ptr [ebp+8]
  00408D77: 50                 push        eax
  00408D78: 8B 4D D8           mov         ecx,dword ptr [ebp-28h]
  00408D7B: 51                 push        ecx
  00408D7C: 8B 55 DC           mov         edx,dword ptr [ebp-24h]
  00408D7F: 52                 push        edx
  00408D80: E8 1B 02 00 00     call        00408FA0
  00408D85: 83 C4 10           add         esp,10h
  00408D88: 8B 45 FC           mov         eax,dword ptr [ebp-4]
  00408D8B: 83 E0 04           and         eax,4
  00408D8E: 85 C0              test        eax,eax
  00408D90: 74 1C              je          00408DAE
  00408D92: 8D 8D D0 FD FF FF  lea         ecx,[ebp+FFFFFDD0h]
  00408D98: 51                 push        ecx
  00408D99: 8B 55 08           mov         edx,dword ptr [ebp+8]
  00408D9C: 52                 push        edx
  00408D9D: 8B 85 80 FD FF FF  mov         eax,dword ptr [ebp+FFFFFD80h]
  00408DA3: 50                 push        eax
  00408DA4: 6A 20              push        20h
  00408DA6: E8 B5 01 00 00     call        00408F60
  00408DAB: 83 C4 10           add         esp,10h
  00408DAE: 83 7D F4 00        cmp         dword ptr [ebp-0Ch],0
  00408DB2: 74 15              je          00408DC9
  00408DB4: 6A 02              push        2
  00408DB6: 8B 4D F4           mov         ecx,dword ptr [ebp-0Ch]
  00408DB9: 51                 push        ecx
  00408DBA: E8 11 AE FF FF     call        00403BD0
  00408DBF: 83 C4 08           add         esp,8
  00408DC2: C7 45 F4 00 00 00  mov         dword ptr [ebp-0Ch],0
            00
  00408DC9: E9 7D F3 FF FF     jmp         0040814B
  00408DCE: 8B 85 D0 FD FF FF  mov         eax,dword ptr [ebp+FFFFFDD0h]
  00408DD4: 5F                 pop         edi
  00408DD5: 5E                 pop         esi
  00408DD6: 5B                 pop         ebx
  00408DD7: 8B E5              mov         esp,ebp
  00408DD9: 5D                 pop         ebp
  00408DDA: C3                 ret
  00408DDB: E7 81              out         81h,eax
  00408DDD: 40                 inc         eax
  00408DDE: 00 81 82 40 00 C3  add         byte ptr [ecx+C3004082h],al
  00408DE4: 82 40              mov         al,40h
  00408DE6: 00 32              add         byte ptr [edx],dh
  00408DE8: 83 40 00 8A        add         dword ptr [eax],8Ah
  00408DEC: 83 40 00 99        add         dword ptr [eax],99h
  00408DF0: 83 40 00 E5        add         dword ptr [eax],0E5h
  00408DF4: 83 40 00 78        add         dword ptr [eax],78h
  00408DF8: 84 40 00           test        byte ptr [eax],al
  00408DFB: 0F 83 40 00 1A 83  jae         835A8E41
  00408E01: 40                 inc         eax
  00408E02: 00 05 83 40 00 FA  add         byte ptr ds:[FA004083h],al
  00408E08: 82 40              mov         al,40h
  00408E0A: 00 25 83 40 00 2D  add         byte ptr ds:[2D004083h],ah
  00408E10: 83 40 00 00        add         dword ptr [eax],0
  00408E14: 05 05 01 05 05     add         eax,5050105h
  00408E19: 05 05 05 05 05     add         eax,5050505h
  00408E1E: 02 05 03 05 05 04  add         al,byte ptr ds:[04050503h]
  00408E24: 27                 daa
  00408E25: 84 40 00           test        byte ptr [eax],al
  00408E28: 60                 pushad
  00408E29: 84 40 00           test        byte ptr [eax],al
  00408E2C: 1C 84              sbb         al,84h
  00408E2E: 40                 inc         eax
  00408E2F: 00 6A 84           add         byte ptr [edx-7Ch],ch
  00408E32: 40                 inc         eax
  00408E33: 00 73 84           add         byte ptr [ebx-7Ch],dh
  00408E36: 40                 inc         eax
  00408E37: 00 00              add         byte ptr [eax],al
  00408E39: 04 04              add         al,4
  00408E3B: 04 04              add         al,4
  00408E3D: 04 04              add         al,4
  00408E3F: 04 04              add         al,4
  00408E41: 04 04              add         al,4
  00408E43: 04 04              add         al,4
  00408E45: 04 04              add         al,4
  00408E47: 04 04              add         al,4
  00408E49: 04 04              add         al,4
  00408E4B: 04 04              add         al,4
  00408E4D: 04 04              add         al,4
  00408E4F: 04 04              add         al,4
  00408E51: 04 04              add         al,4
  00408E53: 04 04              add         al,4
  00408E55: 04 04              add         al,4
  00408E57: 01 04 04           add         dword ptr [esp+eax],eax
  00408E5A: 04 02              add         al,2
  00408E5C: 04 04              add         al,4
  00408E5E: 04 04              add         al,4
  00408E60: 04 04              add         al,4
  00408E62: 04 04              add         al,4
  00408E64: 04 04              add         al,4
  00408E66: 03 B3 84 40 00 47  add         esi,dword ptr [ebx+47004084h]
  00408E6C: 87 40 00           xchg        eax,dword ptr [eax]
  00408E6F: D7                 xlat        byte ptr [ebx]
  00408E70: 85 40 00           test        dword ptr [eax],eax
  00408E73: E0 88              loopne      00408DFD
  00408E75: 40                 inc         eax
  00408E76: 00 42 85           add         byte ptr [edx-7Bh],al
  00408E79: 40                 inc         eax
  00408E7A: 00 C8              add         al,cl
  00408E7C: 84 40 00           test        byte ptr [eax],al
  00408E7F: B3 88              mov         bl,88h
  00408E81: 40                 inc         eax
  00408E82: 00 57 87           add         byte ptr [edi-79h],dl
  00408E85: 40                 inc         eax
  00408E86: 00 FC              add         ah,bh
  00408E88: 86 40 00           xchg        al,byte ptr [eax]
  00408E8B: 2C 89              sub         al,89h
  00408E8D: 40                 inc         eax
  00408E8E: 00 D6              add         dh,dl
  00408E90: 88 40 00           mov         byte ptr [eax],al
  00408E93: ED                 in          eax,dx
  00408E94: 85 40 00           test        dword ptr [eax],eax
  00408E97: CA 88 40           retf        4088h
  00408E9A: 00 EC              add         ah,ch
  00408E9C: 88 40 00           mov         byte ptr [eax],al
  00408E9F: D3 8B 40 00 00 0E  ror         dword ptr [ebx+0E000040h],cl
  00408EA5: 01 0E              add         dword ptr [esi],ecx
  00408EA7: 01 0E              add         dword ptr [esi],ecx
  00408EA9: 0E                 push        cs
  00408EAA: 0E                 push        cs
  00408EAB: 0E                 push        cs
  00408EAC: 0E                 push        cs
  00408EAD: 0E                 push        cs
  00408EAE: 0E                 push        cs
  00408EAF: 0E                 push        cs
  00408EB0: 0E                 push        cs
  00408EB1: 0E                 push        cs
  00408EB2: 0E                 push        cs
  00408EB3: 02 0E              add         cl,byte ptr [esi]
  00408EB5: 0E                 push        cs
  00408EB6: 0E                 push        cs
  00408EB7: 0E                 push        cs
  00408EB8: 03 0E              add         ecx,dword ptr [esi]
  00408EBA: 04 0E              add         al,0Eh
  00408EBC: 0E                 push        cs
  00408EBD: 0E                 push        cs
  00408EBE: 0E                 push        cs
  00408EBF: 0E                 push        cs
  00408EC0: 0E                 push        cs
  00408EC1: 0E                 push        cs
  00408EC2: 0E                 push        cs
  00408EC3: 05 06 07 07 07     add         eax,7070706h
  00408EC8: 0E                 push        cs
  00408EC9: 06                 push        es
  00408ECA: 0E                 push        cs
  00408ECB: 0E                 push        cs
  00408ECC: 0E                 push        cs
  00408ECD: 0E                 push        cs
  00408ECE: 08 09              or          byte ptr [ecx],cl
  00408ED0: 0A 0E              or          cl,byte ptr [esi]
  00408ED2: 0E                 push        cs
  00408ED3: 0B 0E              or          ecx,dword ptr [esi]
  00408ED5: 0C 0E              or          al,0Eh
  00408ED7: 0E                 push        cs
  00408ED8: 0D CC CC CC CC     or          eax,0CCCCCCCCh
  00408EDD: CC                 int         3
  00408EDE: CC                 int         3
  00408EDF: CC                 int         3
  00408EE0: 55                 push        ebp
  00408EE1: 8B EC              mov         ebp,esp
  00408EE3: 51                 push        ecx
  00408EE4: 8B 45 0C           mov         eax,dword ptr [ebp+0Ch]
  00408EE7: 8B 48 04           mov         ecx,dword ptr [eax+4]
  00408EEA: 83 E9 01           sub         ecx,1
  00408EED: 8B 55 0C           mov         edx,dword ptr [ebp+0Ch]
  00408EF0: 89 4A 04           mov         dword ptr [edx+4],ecx
  00408EF3: 8B 45 0C           mov         eax,dword ptr [ebp+0Ch]
  00408EF6: 83 78 04 00        cmp         dword ptr [eax+4],0
  00408EFA: 7C 26              jl          00408F22
  00408EFC: 8B 4D 0C           mov         ecx,dword ptr [ebp+0Ch]
  00408EFF: 8B 11              mov         edx,dword ptr [ecx]
  00408F01: 8A 45 08           mov         al,byte ptr [ebp+8]
  00408F04: 88 02              mov         byte ptr [edx],al
  00408F06: 0F BE 4D 08        movsx       ecx,byte ptr [ebp+8]
  00408F0A: 81 E1 FF 00 00 00  and         ecx,0FFh
  00408F10: 89 4D FC           mov         dword ptr [ebp-4],ecx
  00408F13: 8B 55 0C           mov         edx,dword ptr [ebp+0Ch]
  00408F16: 8B 02              mov         eax,dword ptr [edx]
  00408F18: 83 C0 01           add         eax,1
  00408F1B: 8B 4D 0C           mov         ecx,dword ptr [ebp+0Ch]
  00408F1E: 89 01              mov         dword ptr [ecx],eax
  00408F20: EB 13              jmp         00408F35
  00408F22: 8B 55 0C           mov         edx,dword ptr [ebp+0Ch]
  00408F25: 52                 push        edx
  00408F26: 8B 45 08           mov         eax,dword ptr [ebp+8]
  00408F29: 50                 push        eax
  00408F2A: E8 71 EF FF FF     call        00407EA0
  00408F2F: 83 C4 08           add         esp,8
  00408F32: 89 45 FC           mov         dword ptr [ebp-4],eax
  00408F35: 83 7D FC FF        cmp         dword ptr [ebp-4],0FFh
  00408F39: 75 0B              jne         00408F46
  00408F3B: 8B 4D 10           mov         ecx,dword ptr [ebp+10h]
  00408F3E: C7 01 FF FF FF FF  mov         dword ptr [ecx],0FFFFFFFFh
  00408F44: EB 0D              jmp         00408F53
  00408F46: 8B 55 10           mov         edx,dword ptr [ebp+10h]
  00408F49: 8B 02              mov         eax,dword ptr [edx]
  00408F4B: 83 C0 01           add         eax,1
  00408F4E: 8B 4D 10           mov         ecx,dword ptr [ebp+10h]
  00408F51: 89 01              mov         dword ptr [ecx],eax
  00408F53: 8B E5              mov         esp,ebp
  00408F55: 5D                 pop         ebp
  00408F56: C3                 ret
  00408F57: CC                 int         3
  00408F58: CC                 int         3
  00408F59: CC                 int         3
  00408F5A: CC                 int         3
  00408F5B: CC                 int         3
  00408F5C: CC                 int         3
  00408F5D: CC                 int         3
  00408F5E: CC                 int         3
  00408F5F: CC                 int         3
  00408F60: 55                 push        ebp
  00408F61: 8B EC              mov         ebp,esp
  00408F63: 8B 45 0C           mov         eax,dword ptr [ebp+0Ch]
  00408F66: 8B 4D 0C           mov         ecx,dword ptr [ebp+0Ch]
  00408F69: 83 E9 01           sub         ecx,1
  00408F6C: 89 4D 0C           mov         dword ptr [ebp+0Ch],ecx
  00408F6F: 85 C0              test        eax,eax
  00408F71: 7E 20              jle         00408F93
  00408F73: 8B 55 14           mov         edx,dword ptr [ebp+14h]
  00408F76: 52                 push        edx
  00408F77: 8B 45 10           mov         eax,dword ptr [ebp+10h]
  00408F7A: 50                 push        eax
  00408F7B: 8B 4D 08           mov         ecx,dword ptr [ebp+8]
  00408F7E: 51                 push        ecx
  00408F7F: E8 5C FF FF FF     call        00408EE0
  00408F84: 83 C4 0C           add         esp,0Ch
  00408F87: 8B 55 14           mov         edx,dword ptr [ebp+14h]
  00408F8A: 83 3A FF           cmp         dword ptr [edx],0FFh
  00408F8D: 75 02              jne         00408F91
  00408F8F: EB 02              jmp         00408F93
  00408F91: EB D0              jmp         00408F63
  00408F93: 5D                 pop         ebp
  00408F94: C3                 ret
  00408F95: CC                 int         3
  00408F96: CC                 int         3
  00408F97: CC                 int         3
  00408F98: CC                 int         3
  00408F99: CC                 int         3
  00408F9A: CC                 int         3
  00408F9B: CC                 int         3
  00408F9C: CC                 int         3
  00408F9D: CC                 int         3
  00408F9E: CC                 int         3
  00408F9F: CC                 int         3
  00408FA0: 55                 push        ebp
  00408FA1: 8B EC              mov         ebp,esp
  00408FA3: 51                 push        ecx
  00408FA4: 8B 45 0C           mov         eax,dword ptr [ebp+0Ch]
  00408FA7: 8B 4D 0C           mov         ecx,dword ptr [ebp+0Ch]
  00408FAA: 83 E9 01           sub         ecx,1
  00408FAD: 89 4D 0C           mov         dword ptr [ebp+0Ch],ecx
  00408FB0: 85 C0              test        eax,eax
  00408FB2: 7E 32              jle         00408FE6
  00408FB4: 8B 55 14           mov         edx,dword ptr [ebp+14h]
  00408FB7: 52                 push        edx
  00408FB8: 8B 45 10           mov         eax,dword ptr [ebp+10h]
  00408FBB: 50                 push        eax
  00408FBC: 8B 4D 08           mov         ecx,dword ptr [ebp+8]
  00408FBF: 0F BE 11           movsx       edx,byte ptr [ecx]
  00408FC2: 89 55 FC           mov         dword ptr [ebp-4],edx
  00408FC5: 8B 45 FC           mov         eax,dword ptr [ebp-4]
  00408FC8: 50                 push        eax
  00408FC9: 8B 4D 08           mov         ecx,dword ptr [ebp+8]
  00408FCC: 83 C1 01           add         ecx,1
  00408FCF: 89 4D 08           mov         dword ptr [ebp+8],ecx
  00408FD2: E8 09 FF FF FF     call        00408EE0
  00408FD7: 83 C4 0C           add         esp,0Ch
  00408FDA: 8B 55 14           mov         edx,dword ptr [ebp+14h]
  00408FDD: 83 3A FF           cmp         dword ptr [edx],0FFh
  00408FE0: 75 02              jne         00408FE4
  00408FE2: EB 02              jmp         00408FE6
  00408FE4: EB BE              jmp         00408FA4
  00408FE6: 8B E5              mov         esp,ebp
  00408FE8: 5D                 pop         ebp
  00408FE9: C3                 ret
  00408FEA: CC                 int         3
  00408FEB: CC                 int         3
  00408FEC: CC                 int         3
  00408FED: CC                 int         3
  00408FEE: CC                 int         3
  00408FEF: CC                 int         3
  00408FF0: 55                 push        ebp
  00408FF1: 8B EC              mov         ebp,esp
  00408FF3: 8B 45 08           mov         eax,dword ptr [ebp+8]
  00408FF6: 8B 08              mov         ecx,dword ptr [eax]
  00408FF8: 83 C1 04           add         ecx,4
  00408FFB: 8B 55 08           mov         edx,dword ptr [ebp+8]
  00408FFE: 89 0A              mov         dword ptr [edx],ecx
  00409000: 8B 45 08           mov         eax,dword ptr [ebp+8]
  00409003: 8B 08              mov         ecx,dword ptr [eax]
  00409005: 8B 41 FC           mov         eax,dword ptr [ecx-4]
  00409008: 5D                 pop         ebp
  00409009: C3                 ret
  0040900A: CC                 int         3
  0040900B: CC                 int         3
  0040900C: CC                 int         3
  0040900D: CC                 int         3
  0040900E: CC                 int         3
  0040900F: CC                 int         3
  00409010: 55                 push        ebp
  00409011: 8B EC              mov         ebp,esp
  00409013: 8B 45 08           mov         eax,dword ptr [ebp+8]
  00409016: 8B 08              mov         ecx,dword ptr [eax]
  00409018: 83 C1 08           add         ecx,8
  0040901B: 8B 55 08           mov         edx,dword ptr [ebp+8]
  0040901E: 89 0A              mov         dword ptr [edx],ecx
  00409020: 8B 45 08           mov         eax,dword ptr [ebp+8]
  00409023: 8B 08              mov         ecx,dword ptr [eax]
  00409025: 83 E9 08           sub         ecx,8
  00409028: 8B 01              mov         eax,dword ptr [ecx]
  0040902A: 8B 51 04           mov         edx,dword ptr [ecx+4]
  0040902D: 5D                 pop         ebp
  0040902E: C3                 ret
  0040902F: CC                 int         3
  00409030: 55                 push        ebp
  00409031: 8B EC              mov         ebp,esp
  00409033: 8B 45 08           mov         eax,dword ptr [ebp+8]
  00409036: 8B 08              mov         ecx,dword ptr [eax]
  00409038: 83 C1 04           add         ecx,4
  0040903B: 8B 55 08           mov         edx,dword ptr [ebp+8]
  0040903E: 89 0A              mov         dword ptr [edx],ecx
  00409040: 8B 45 08           mov         eax,dword ptr [ebp+8]
  00409043: 8B 08              mov         ecx,dword ptr [eax]
  00409045: 66 8B 41 FC        mov         ax,word ptr [ecx-4]
  00409049: 5D                 pop         ebp
  0040904A: C3                 ret
  0040904B: CC                 int         3
  0040904C: CC                 int         3
  0040904D: CC                 int         3
  0040904E: CC                 int         3
  0040904F: CC                 int         3
  00409050: 55                 push        ebp
  00409051: 8B EC              mov         ebp,esp
  00409053: 51                 push        ecx
  00409054: A1 E0 FA 40 00     mov         eax,[0040FAE0]
  00409059: 89 45 FC           mov         dword ptr [ebp-4],eax
  0040905C: 83 7D FC 00        cmp         dword ptr [ebp-4],0
  00409060: 74 0E              je          00409070
  00409062: 8B 4D 08           mov         ecx,dword ptr [ebp+8]
  00409065: 51                 push        ecx
  00409066: FF 55 FC           call        dword ptr [ebp-4]
  00409069: 83 C4 04           add         esp,4
  0040906C: 85 C0              test        eax,eax
  0040906E: 75 04              jne         00409074
  00409070: 33 C0              xor         eax,eax
  00409072: EB 05              jmp         00409079
  00409074: B8 01 00 00 00     mov         eax,1
  00409079: 8B E5              mov         esp,ebp
  0040907B: 5D                 pop         ebp
  0040907C: C3                 ret
  0040907D: CC                 int         3
  0040907E: CC                 int         3
  0040907F: CC                 int         3
  00409080: 8B 54 24 0C        mov         edx,dword ptr [esp+0Ch]
  00409084: 8B 4C 24 04        mov         ecx,dword ptr [esp+4]
  00409088: 85 D2              test        edx,edx
  0040908A: 74 47              je          004090D3
  0040908C: 33 C0              xor         eax,eax
  0040908E: 8A 44 24 08        mov         al,byte ptr [esp+8]
  00409092: 57                 push        edi
  00409093: 8B F9              mov         edi,ecx
  00409095: 83 FA 04           cmp         edx,4
  00409098: 72 2D              jb          004090C7
  0040909A: F7 D9              neg         ecx
  0040909C: 83 E1 03           and         ecx,3
  0040909F: 74 08              je          004090A9
  004090A1: 2B D1              sub         edx,ecx
  004090A3: 88 07              mov         byte ptr [edi],al
  004090A5: 47                 inc         edi
  004090A6: 49                 dec         ecx
  004090A7: 75 FA              jne         004090A3
  004090A9: 8B C8              mov         ecx,eax
  004090AB: C1 E0 08           shl         eax,8
  004090AE: 03 C1              add         eax,ecx
  004090B0: 8B C8              mov         ecx,eax
  004090B2: C1 E0 10           shl         eax,10h
  004090B5: 03 C1              add         eax,ecx
  004090B7: 8B CA              mov         ecx,edx
  004090B9: 83 E2 03           and         edx,3
  004090BC: C1 E9 02           shr         ecx,2
  004090BF: 74 06              je          004090C7
  004090C1: F3 AB              rep stos    dword ptr [edi]
  004090C3: 85 D2              test        edx,edx
  004090C5: 74 06              je          004090CD
  004090C7: 88 07              mov         byte ptr [edi],al
  004090C9: 47                 inc         edi
  004090CA: 4A                 dec         edx
  004090CB: 75 FA              jne         004090C7
  004090CD: 8B 44 24 08        mov         eax,dword ptr [esp+8]
  004090D1: 5F                 pop         edi
  004090D2: C3                 ret
  004090D3: 8B 44 24 04        mov         eax,dword ptr [esp+4]
  004090D7: C3                 ret
  004090D8: CC                 int         3
  004090D9: CC                 int         3
  004090DA: CC                 int         3
  004090DB: CC                 int         3
  004090DC: CC                 int         3
  004090DD: CC                 int         3
  004090DE: CC                 int         3
  004090DF: CC                 int         3
  004090E0: 55                 push        ebp
  004090E1: 8B EC              mov         ebp,esp
  004090E3: 51                 push        ecx
  004090E4: 83 3D 70 0D 41 00  cmp         dword ptr ds:[00410D70h],3
            03
  004090EB: 75 2A              jne         00409117
  004090ED: 8B 45 08           mov         eax,dword ptr [ebp+8]
  004090F0: 3B 05 3C 0B 41 00  cmp         eax,dword ptr ds:[00410B3Ch]
  004090F6: 77 1D              ja          00409115
  004090F8: 8B 4D 08           mov         ecx,dword ptr [ebp+8]
  004090FB: 51                 push        ecx
  004090FC: E8 DF D0 FF FF     call        004061E0
  00409101: 83 C4 04           add         esp,4
  00409104: 89 45 FC           mov         dword ptr [ebp-4],eax
  00409107: 83 7D FC 00        cmp         dword ptr [ebp-4],0
  0040910B: 74 08              je          00409115
  0040910D: 8B 45 FC           mov         eax,dword ptr [ebp-4]
  00409110: E9 8D 00 00 00     jmp         004091A2
  00409115: EB 60              jmp         00409177
  00409117: 83 3D 70 0D 41 00  cmp         dword ptr ds:[00410D70h],2
            02
  0040911E: 75 57              jne         00409177
  00409120: 83 7D 08 00        cmp         dword ptr [ebp+8],0
  00409124: 74 0E              je          00409134
  00409126: 8B 55 08           mov         edx,dword ptr [ebp+8]
  00409129: 83 C2 0F           add         edx,0Fh
  0040912C: 83 E2 F0           and         edx,0F0h
  0040912F: 89 55 08           mov         dword ptr [ebp+8],edx
  00409132: EB 07              jmp         0040913B
  00409134: C7 45 08 10 00 00  mov         dword ptr [ebp+8],10h
            00
  0040913B: 8B 45 08           mov         eax,dword ptr [ebp+8]
  0040913E: 3B 05 F4 F2 40 00  cmp         eax,dword ptr ds:[0040F2F4h]
  00409144: 77 1D              ja          00409163
  00409146: 8B 4D 08           mov         ecx,dword ptr [ebp+8]
  00409149: C1 E9 04           shr         ecx,4
  0040914C: 51                 push        ecx
  0040914D: E8 AE E3 FF FF     call        00407500
  00409152: 83 C4 04           add         esp,4
  00409155: 89 45 FC           mov         dword ptr [ebp-4],eax
  00409158: 83 7D FC 00        cmp         dword ptr [ebp-4],0
  0040915C: 74 05              je          00409163
  0040915E: 8B 45 FC           mov         eax,dword ptr [ebp-4]
  00409161: EB 3F              jmp         004091A2
  00409163: 8B 55 08           mov         edx,dword ptr [ebp+8]
  00409166: 52                 push        edx
  00409167: 6A 00              push        0
  00409169: A1 6C 0D 41 00     mov         eax,[00410D6C]
  0040916E: 50                 push        eax
  0040916F: FF 15 98 B0 40 00  call        dword ptr ds:[0040B098h]
  00409175: EB 2B              jmp         004091A2
  00409177: 83 7D 08 00        cmp         dword ptr [ebp+8],0
  0040917B: 75 07              jne         00409184
  0040917D: C7 45 08 01 00 00  mov         dword ptr [ebp+8],1
            00
  00409184: 8B 4D 08           mov         ecx,dword ptr [ebp+8]
  00409187: 83 C1 0F           add         ecx,0Fh
  0040918A: 83 E1 F0           and         ecx,0F0h
  0040918D: 89 4D 08           mov         dword ptr [ebp+8],ecx
  00409190: 8B 55 08           mov         edx,dword ptr [ebp+8]
  00409193: 52                 push        edx
  00409194: 6A 00              push        0
  00409196: A1 6C 0D 41 00     mov         eax,[00410D6C]
  0040919B: 50                 push        eax
  0040919C: FF 15 98 B0 40 00  call        dword ptr ds:[0040B098h]
  004091A2: 8B E5              mov         esp,ebp
  004091A4: 5D                 pop         ebp
  004091A5: C3                 ret
  004091A6: CC                 int         3
  004091A7: CC                 int         3
  004091A8: CC                 int         3
  004091A9: CC                 int         3
  004091AA: CC                 int         3
  004091AB: CC                 int         3
  004091AC: CC                 int         3
  004091AD: CC                 int         3
  004091AE: CC                 int         3
  004091AF: CC                 int         3
  004091B0: 55                 push        ebp
  004091B1: 8B EC              mov         ebp,esp
  004091B3: B8 01 00 00 00     mov         eax,1
  004091B8: 5D                 pop         ebp
  004091B9: C3                 ret
  004091BA: CC                 int         3
  004091BB: CC                 int         3
  004091BC: CC                 int         3
  004091BD: CC                 int         3
  004091BE: CC                 int         3
  004091BF: CC                 int         3
  004091C0: 55                 push        ebp
  004091C1: 8B EC              mov         ebp,esp
  004091C3: 83 EC 10           sub         esp,10h
  004091C6: 83 7D 08 00        cmp         dword ptr [ebp+8],0
  004091CA: 75 05              jne         004091D1
  004091CC: E9 B0 00 00 00     jmp         00409281
  004091D1: 83 3D 70 0D 41 00  cmp         dword ptr ds:[00410D70h],3
            03
  004091D8: 75 40              jne         0040921A
  004091DA: 8B 45 08           mov         eax,dword ptr [ebp+8]
  004091DD: 50                 push        eax
  004091DE: E8 5D C9 FF FF     call        00405B40
  004091E3: 83 C4 04           add         esp,4
  004091E6: 89 45 FC           mov         dword ptr [ebp-4],eax
  004091E9: 83 7D FC 00        cmp         dword ptr [ebp-4],0
  004091ED: 74 10              je          004091FF
  004091EF: 8B 4D 08           mov         ecx,dword ptr [ebp+8]
  004091F2: 51                 push        ecx
  004091F3: 8B 55 FC           mov         edx,dword ptr [ebp-4]
  004091F6: 52                 push        edx
  004091F7: E8 04 CA FF FF     call        00405C00
  004091FC: 83 C4 08           add         esp,8
  004091FF: 83 7D FC 00        cmp         dword ptr [ebp-4],0
  00409203: 75 13              jne         00409218
  00409205: 8B 45 08           mov         eax,dword ptr [ebp+8]
  00409208: 50                 push        eax
  00409209: 6A 00              push        0
  0040920B: 8B 0D 6C 0D 41 00  mov         ecx,dword ptr ds:[00410D6Ch]
  00409211: 51                 push        ecx
  00409212: FF 15 70 B0 40 00  call        dword ptr ds:[0040B070h]
  00409218: EB 67              jmp         00409281
  0040921A: 83 3D 70 0D 41 00  cmp         dword ptr ds:[00410D70h],2
            02
  00409221: 75 4B              jne         0040926E
  00409223: 8D 55 F8           lea         edx,[ebp-8]
  00409226: 52                 push        edx
  00409227: 8D 45 F0           lea         eax,[ebp-10h]
  0040922A: 50                 push        eax
  0040922B: 8B 4D 08           mov         ecx,dword ptr [ebp+8]
  0040922E: 51                 push        ecx
  0040922F: E8 CC E1 FF FF     call        00407400
  00409234: 83 C4 0C           add         esp,0Ch
  00409237: 89 45 F4           mov         dword ptr [ebp-0Ch],eax
  0040923A: 83 7D F4 00        cmp         dword ptr [ebp-0Ch],0
  0040923E: 74 14              je          00409254
  00409240: 8B 55 F4           mov         edx,dword ptr [ebp-0Ch]
  00409243: 52                 push        edx
  00409244: 8B 45 F8           mov         eax,dword ptr [ebp-8]
  00409247: 50                 push        eax
  00409248: 8B 4D F0           mov         ecx,dword ptr [ebp-10h]
  0040924B: 51                 push        ecx
  0040924C: E8 3F E2 FF FF     call        00407490
  00409251: 83 C4 0C           add         esp,0Ch
  00409254: 83 7D F4 00        cmp         dword ptr [ebp-0Ch],0
  00409258: 75 12              jne         0040926C
  0040925A: 8B 55 08           mov         edx,dword ptr [ebp+8]
  0040925D: 52                 push        edx
  0040925E: 6A 00              push        0
  00409260: A1 6C 0D 41 00     mov         eax,[00410D6C]
  00409265: 50                 push        eax
  00409266: FF 15 70 B0 40 00  call        dword ptr ds:[0040B070h]
  0040926C: EB 13              jmp         00409281
  0040926E: 8B 4D 08           mov         ecx,dword ptr [ebp+8]
  00409271: 51                 push        ecx
  00409272: 6A 00              push        0
  00409274: 8B 15 6C 0D 41 00  mov         edx,dword ptr ds:[00410D6Ch]
  0040927A: 52                 push        edx
  0040927B: FF 15 70 B0 40 00  call        dword ptr ds:[0040B070h]
  00409281: 8B E5              mov         esp,ebp
  00409283: 5D                 pop         ebp
  00409284: C3                 ret
  00409285: CC                 int         3
  00409286: CC                 int         3
  00409287: CC                 int         3
  00409288: CC                 int         3
  00409289: CC                 int         3
  0040928A: CC                 int         3
  0040928B: CC                 int         3
  0040928C: CC                 int         3
  0040928D: CC                 int         3
  0040928E: CC                 int         3
  0040928F: CC                 int         3
  00409290: 55                 push        ebp
  00409291: 8B EC              mov         ebp,esp
  00409293: 51                 push        ecx
  00409294: C7 45 FC FE FF FF  mov         dword ptr [ebp-4],0FFFFFFFEh
            FF
  0040929B: 83 3D 70 0D 41 00  cmp         dword ptr ds:[00410D70h],3
            03
  004092A2: 75 12              jne         004092B6
  004092A4: E8 77 D7 FF FF     call        00406A20
  004092A9: 85 C0              test        eax,eax
  004092AB: 7D 07              jge         004092B4
  004092AD: C7 45 FC FC FF FF  mov         dword ptr [ebp-4],0FFFFFFFCh
            FF
  004092B4: EB 19              jmp         004092CF
  004092B6: 83 3D 70 0D 41 00  cmp         dword ptr ds:[00410D70h],2
            02
  004092BD: 75 10              jne         004092CF
  004092BF: E8 AC E8 FF FF     call        00407B70
  004092C4: 85 C0              test        eax,eax
  004092C6: 7D 07              jge         004092CF
  004092C8: C7 45 FC FC FF FF  mov         dword ptr [ebp-4],0FFFFFFFCh
            FF
  004092CF: 6A 00              push        0
  004092D1: 6A 00              push        0
  004092D3: A1 6C 0D 41 00     mov         eax,[00410D6C]
  004092D8: 50                 push        eax
  004092D9: FF 15 88 B0 40 00  call        dword ptr ds:[0040B088h]
  004092DF: 85 C0              test        eax,eax
  004092E1: 75 28              jne         0040930B
  004092E3: FF 15 7C B0 40 00  call        dword ptr ds:[0040B07Ch]
  004092E9: 83 F8 78           cmp         eax,78h
  004092EC: 75 16              jne         00409304
  004092EE: C7 05 44 F9 40 00  mov         dword ptr ds:[0040F944h],78h
            78 00 00 00
  004092F8: C7 05 40 F9 40 00  mov         dword ptr ds:[0040F940h],28h
            28 00 00 00
  00409302: EB 07              jmp         0040930B
  00409304: C7 45 FC FC FF FF  mov         dword ptr [ebp-4],0FFFFFFFCh
            FF
  0040930B: 8B 45 FC           mov         eax,dword ptr [ebp-4]
  0040930E: 8B E5              mov         esp,ebp
  00409310: 5D                 pop         ebp
  00409311: C3                 ret
  00409312: CC                 int         3
  00409313: CC                 int         3
  00409314: CC                 int         3
  00409315: CC                 int         3
  00409316: CC                 int         3
  00409317: CC                 int         3
  00409318: CC                 int         3
  00409319: CC                 int         3
  0040931A: CC                 int         3
  0040931B: CC                 int         3
  0040931C: CC                 int         3
  0040931D: CC                 int         3
  0040931E: CC                 int         3
  0040931F: CC                 int         3
  00409320: 55                 push        ebp
  00409321: 8B EC              mov         ebp,esp
  00409323: 83 EC 30           sub         esp,30h
  00409326: 53                 push        ebx
  00409327: 56                 push        esi
  00409328: 57                 push        edi
  00409329: 8D 45 E0           lea         eax,[ebp-20h]
  0040932C: 89 45 DC           mov         dword ptr [ebp-24h],eax
  0040932F: 8D 4D 10           lea         ecx,[ebp+10h]
  00409332: 89 4D D4           mov         dword ptr [ebp-2Ch],ecx
  00409335: 83 7D 08 00        cmp         dword ptr [ebp+8],0
  00409339: 75 1E              jne         00409359
  0040933B: 68 48 B7 40 00     push        40B748h
  00409340: 6A 00              push        0
  00409342: 6A 5D              push        5Dh
  00409344: 68 3C B7 40 00     push        40B73Ch
  00409349: 6A 02              push        2
  0040934B: E8 10 7F FF FF     call        00401260
  00409350: 83 C4 14           add         esp,14h
  00409353: 83 F8 01           cmp         eax,1
  00409356: 75 01              jne         00409359
  00409358: CC                 int         3
  00409359: 33 D2              xor         edx,edx
  0040935B: 85 D2              test        edx,edx
  0040935D: 75 D6              jne         00409335
  0040935F: 83 7D 0C 00        cmp         dword ptr [ebp+0Ch],0
  00409363: 75 1E              jne         00409383
  00409365: 68 2C B7 40 00     push        40B72Ch
  0040936A: 6A 00              push        0
  0040936C: 6A 5E              push        5Eh
  0040936E: 68 3C B7 40 00     push        40B73Ch
  00409373: 6A 02              push        2
  00409375: E8 E6 7E FF FF     call        00401260
  0040937A: 83 C4 14           add         esp,14h
  0040937D: 83 F8 01           cmp         eax,1
  00409380: 75 01              jne         00409383
  00409382: CC                 int         3
  00409383: 33 C0              xor         eax,eax
  00409385: 85 C0              test        eax,eax
  00409387: 75 D6              jne         0040935F
  00409389: 8B 4D DC           mov         ecx,dword ptr [ebp-24h]
  0040938C: C7 41 0C 42 00 00  mov         dword ptr [ecx+0Ch],42h
            00
  00409393: 8B 55 DC           mov         edx,dword ptr [ebp-24h]
  00409396: 8B 45 08           mov         eax,dword ptr [ebp+8]
  00409399: 89 42 08           mov         dword ptr [edx+8],eax
  0040939C: 8B 4D DC           mov         ecx,dword ptr [ebp-24h]
  0040939F: 8B 55 08           mov         edx,dword ptr [ebp+8]
  004093A2: 89 11              mov         dword ptr [ecx],edx
  004093A4: 8B 45 DC           mov         eax,dword ptr [ebp-24h]
  004093A7: C7 40 04 FF FF FF  mov         dword ptr [eax+4],7FFFFFFFh
            7F
  004093AE: 8B 4D D4           mov         ecx,dword ptr [ebp-2Ch]
  004093B1: 51                 push        ecx
  004093B2: 8B 55 0C           mov         edx,dword ptr [ebp+0Ch]
  004093B5: 52                 push        edx
  004093B6: 8B 45 DC           mov         eax,dword ptr [ebp-24h]
  004093B9: 50                 push        eax
  004093BA: E8 61 ED FF FF     call        00408120
  004093BF: 83 C4 0C           add         esp,0Ch
  004093C2: 89 45 D8           mov         dword ptr [ebp-28h],eax
  004093C5: 8B 4D DC           mov         ecx,dword ptr [ebp-24h]
  004093C8: 8B 51 04           mov         edx,dword ptr [ecx+4]
  004093CB: 83 EA 01           sub         edx,1
  004093CE: 8B 45 DC           mov         eax,dword ptr [ebp-24h]
  004093D1: 89 50 04           mov         dword ptr [eax+4],edx
  004093D4: 8B 4D DC           mov         ecx,dword ptr [ebp-24h]
  004093D7: 83 79 04 00        cmp         dword ptr [ecx+4],0
  004093DB: 7C 22              jl          004093FF
  004093DD: 8B 55 DC           mov         edx,dword ptr [ebp-24h]
  004093E0: 8B 02              mov         eax,dword ptr [edx]
  004093E2: C6 00 00           mov         byte ptr [eax],0
  004093E5: 33 C9              xor         ecx,ecx
  004093E7: 81 E1 FF 00 00 00  and         ecx,0FFh
  004093ED: 89 4D D0           mov         dword ptr [ebp-30h],ecx
  004093F0: 8B 55 DC           mov         edx,dword ptr [ebp-24h]
  004093F3: 8B 02              mov         eax,dword ptr [edx]
  004093F5: 83 C0 01           add         eax,1
  004093F8: 8B 4D DC           mov         ecx,dword ptr [ebp-24h]
  004093FB: 89 01              mov         dword ptr [ecx],eax
  004093FD: EB 11              jmp         00409410
  004093FF: 8B 55 DC           mov         edx,dword ptr [ebp-24h]
  00409402: 52                 push        edx
  00409403: 6A 00              push        0
  00409405: E8 96 EA FF FF     call        00407EA0
  0040940A: 83 C4 08           add         esp,8
  0040940D: 89 45 D0           mov         dword ptr [ebp-30h],eax
  00409410: 8B 45 D8           mov         eax,dword ptr [ebp-28h]
  00409413: 5F                 pop         edi
  00409414: 5E                 pop         esi
  00409415: 5B                 pop         ebx
  00409416: 8B E5              mov         esp,ebp
  00409418: 5D                 pop         ebp
  00409419: C3                 ret
  0040941A: CC                 int         3
  0040941B: CC                 int         3
  0040941C: CC                 int         3
  0040941D: CC                 int         3
  0040941E: CC                 int         3
  0040941F: CC                 int         3
  00409420: 55                 push        ebp
  00409421: 8B EC              mov         ebp,esp
  00409423: 83 EC 0C           sub         esp,0Ch
  00409426: 8B 45 08           mov         eax,dword ptr [ebp+8]
  00409429: 83 C0 01           add         eax,1
  0040942C: 3D 00 01 00 00     cmp         eax,100h
  00409431: 77 17              ja          0040944A
  00409433: 8B 4D 08           mov         ecx,dword ptr [ebp+8]
  00409436: 8B 15 14 F3 40 00  mov         edx,dword ptr ds:[0040F314h]
  0040943C: 33 C0              xor         eax,eax
  0040943E: 66 8B 04 4A        mov         ax,word ptr [edx+ecx*2]
  00409442: 23 45 0C           and         eax,dword ptr [ebp+0Ch]
  00409445: E9 89 00 00 00     jmp         004094D3
  0040944A: 8B 4D 08           mov         ecx,dword ptr [ebp+8]
  0040944D: C1 F9 08           sar         ecx,8
  00409450: 81 E1 FF 00 00 00  and         ecx,0FFh
  00409456: 81 E1 FF 00 00 00  and         ecx,0FFh
  0040945C: 8B 15 14 F3 40 00  mov         edx,dword ptr ds:[0040F314h]
  00409462: 33 C0              xor         eax,eax
  00409464: 66 8B 04 4A        mov         ax,word ptr [edx+ecx*2]
  00409468: 25 00 80 00 00     and         eax,8000h
  0040946D: 85 C0              test        eax,eax
  0040946F: 74 22              je          00409493
  00409471: 8B 4D 08           mov         ecx,dword ptr [ebp+8]
  00409474: C1 F9 08           sar         ecx,8
  00409477: 81 E1 FF 00 00 00  and         ecx,0FFh
  0040947D: 88 4D F4           mov         byte ptr [ebp-0Ch],cl
  00409480: 8A 55 08           mov         dl,byte ptr [ebp+8]
  00409483: 88 55 F5           mov         byte ptr [ebp-0Bh],dl
  00409486: C6 45 F6 00        mov         byte ptr [ebp-0Ah],0
  0040948A: C7 45 F8 02 00 00  mov         dword ptr [ebp-8],2
            00
  00409491: EB 11              jmp         004094A4
  00409493: 8A 45 08           mov         al,byte ptr [ebp+8]
  00409496: 88 45 F4           mov         byte ptr [ebp-0Ch],al
  00409499: C6 45 F5 00        mov         byte ptr [ebp-0Bh],0
  0040949D: C7 45 F8 01 00 00  mov         dword ptr [ebp-8],1
            00
  004094A4: 6A 01              push        1
  004094A6: 6A 00              push        0
  004094A8: 6A 00              push        0
  004094AA: 8D 4D FC           lea         ecx,[ebp-4]
  004094AD: 51                 push        ecx
  004094AE: 8B 55 F8           mov         edx,dword ptr [ebp-8]
  004094B1: 52                 push        edx
  004094B2: 8D 45 F4           lea         eax,[ebp-0Ch]
  004094B5: 50                 push        eax
  004094B6: 6A 01              push        1
  004094B8: E8 83 03 00 00     call        00409840
  004094BD: 83 C4 1C           add         esp,1Ch
  004094C0: 85 C0              test        eax,eax
  004094C2: 75 04              jne         004094C8
  004094C4: 33 C0              xor         eax,eax
  004094C6: EB 0B              jmp         004094D3
  004094C8: 8B 45 FC           mov         eax,dword ptr [ebp-4]
  004094CB: 25 FF FF 00 00     and         eax,0FFFFh
  004094D0: 23 45 0C           and         eax,dword ptr [ebp+0Ch]
  004094D3: 8B E5              mov         esp,ebp
  004094D5: 5D                 pop         ebp
  004094D6: C3                 ret
  004094D7: CC                 int         3
  004094D8: CC                 int         3
  004094D9: CC                 int         3
  004094DA: CC                 int         3
  004094DB: CC                 int         3
  004094DC: CC                 int         3
  004094DD: CC                 int         3
  004094DE: CC                 int         3
  004094DF: CC                 int         3
  004094E0: 55                 push        ebp
  004094E1: 8B EC              mov         ebp,esp
  004094E3: 6A FF              push        0FFh
  004094E5: 68 A8 BD 40 00     push        40BDA8h
  004094EA: 68 48 2C 40 00     push        402C48h
  004094EF: 64 A1 00 00 00 00  mov         eax,fs:[00000000]
  004094F5: 50                 push        eax
  004094F6: 64 89 25 00 00 00  mov         dword ptr fs:[00000000h],esp
            00
  004094FD: 83 C4 DC           add         esp,0DCh
  00409500: 53                 push        ebx
  00409501: 56                 push        esi
  00409502: 57                 push        edi
  00409503: 89 65 E8           mov         dword ptr [ebp-18h],esp
  00409506: 83 3D 04 FB 40 00  cmp         dword ptr ds:[0040FB04h],0
            00
  0040950D: 75 57              jne         00409566
  0040950F: 6A 00              push        0
  00409511: 6A 00              push        0
  00409513: 6A 01              push        1
  00409515: 68 A4 BD 40 00     push        40BDA4h
  0040951A: 68 00 01 00 00     push        100h
  0040951F: 6A 00              push        0
  00409521: FF 15 AC B0 40 00  call        dword ptr ds:[0040B0ACh]
  00409527: 85 C0              test        eax,eax
  00409529: 74 0C              je          00409537
  0040952B: C7 05 04 FB 40 00  mov         dword ptr ds:[0040FB04h],1
            01 00 00 00
  00409535: EB 2F              jmp         00409566
  00409537: 6A 00              push        0
  00409539: 6A 00              push        0
  0040953B: 6A 01              push        1
  0040953D: 68 A0 BD 40 00     push        40BDA0h
  00409542: 68 00 01 00 00     push        100h
  00409547: 6A 00              push        0
  00409549: FF 15 A8 B0 40 00  call        dword ptr ds:[0040B0A8h]
  0040954F: 85 C0              test        eax,eax
  00409551: 74 0C              je          0040955F
  00409553: C7 05 04 FB 40 00  mov         dword ptr ds:[0040FB04h],2
            02 00 00 00
  0040955D: EB 07              jmp         00409566
  0040955F: 33 C0              xor         eax,eax
  00409561: E9 6B 02 00 00     jmp         004097D1
  00409566: 83 7D 14 00        cmp         dword ptr [ebp+14h],0
  0040956A: 7E 13              jle         0040957F
  0040956C: 8B 45 14           mov         eax,dword ptr [ebp+14h]
  0040956F: 50                 push        eax
  00409570: 8B 4D 10           mov         ecx,dword ptr [ebp+10h]
  00409573: 51                 push        ecx
  00409574: E8 77 02 00 00     call        004097F0
  00409579: 83 C4 08           add         esp,8
  0040957C: 89 45 14           mov         dword ptr [ebp+14h],eax
  0040957F: 83 3D 04 FB 40 00  cmp         dword ptr ds:[0040FB04h],2
            02
  00409586: 75 23              jne         004095AB
  00409588: 8B 55 1C           mov         edx,dword ptr [ebp+1Ch]
  0040958B: 52                 push        edx
  0040958C: 8B 45 18           mov         eax,dword ptr [ebp+18h]
  0040958F: 50                 push        eax
  00409590: 8B 4D 14           mov         ecx,dword ptr [ebp+14h]
  00409593: 51                 push        ecx
  00409594: 8B 55 10           mov         edx,dword ptr [ebp+10h]
  00409597: 52                 push        edx
  00409598: 8B 45 0C           mov         eax,dword ptr [ebp+0Ch]
  0040959B: 50                 push        eax
  0040959C: 8B 4D 08           mov         ecx,dword ptr [ebp+8]
  0040959F: 51                 push        ecx
  004095A0: FF 15 A8 B0 40 00  call        dword ptr ds:[0040B0A8h]
  004095A6: E9 26 02 00 00     jmp         004097D1
  004095AB: 83 3D 04 FB 40 00  cmp         dword ptr ds:[0040FB04h],1
            01
  004095B2: 0F 85 17 02 00 00  jne         004097CF
  004095B8: 83 7D 20 00        cmp         dword ptr [ebp+20h],0
  004095BC: 75 09              jne         004095C7
  004095BE: 8B 15 FC FA 40 00  mov         edx,dword ptr ds:[0040FAFCh]
  004095C4: 89 55 20           mov         dword ptr [ebp+20h],edx
  004095C7: 6A 00              push        0
  004095C9: 6A 00              push        0
  004095CB: 8B 45 14           mov         eax,dword ptr [ebp+14h]
  004095CE: 50                 push        eax
  004095CF: 8B 4D 10           mov         ecx,dword ptr [ebp+10h]
  004095D2: 51                 push        ecx
  004095D3: 8B 55 24           mov         edx,dword ptr [ebp+24h]
  004095D6: F7 DA              neg         edx
  004095D8: 1B D2              sbb         edx,edx
  004095DA: 83 E2 08           and         edx,8
  004095DD: 83 C2 01           add         edx,1
  004095E0: 52                 push        edx
  004095E1: 8B 45 20           mov         eax,dword ptr [ebp+20h]
  004095E4: 50                 push        eax
  004095E5: FF 15 A4 B0 40 00  call        dword ptr ds:[0040B0A4h]
  004095EB: 89 45 E4           mov         dword ptr [ebp-1Ch],eax
  004095EE: 83 7D E4 00        cmp         dword ptr [ebp-1Ch],0
  004095F2: 75 07              jne         004095FB
  004095F4: 33 C0              xor         eax,eax
  004095F6: E9 D6 01 00 00     jmp         004097D1
  004095FB: C7 45 FC 00 00 00  mov         dword ptr [ebp-4],0
            00
  00409602: 8B 45 E4           mov         eax,dword ptr [ebp-1Ch]
  00409605: D1 E0              shl         eax,1
  00409607: 83 C0 03           add         eax,3
  0040960A: 24 FC              and         al,0FCh
  0040960C: E8 AF 9D FF FF     call        004033C0
  00409611: 89 65 D0           mov         dword ptr [ebp-30h],esp
  00409614: 89 65 E8           mov         dword ptr [ebp-18h],esp
  00409617: 8B 4D D0           mov         ecx,dword ptr [ebp-30h]
  0040961A: 89 4D DC           mov         dword ptr [ebp-24h],ecx
  0040961D: C7 45 FC FF FF FF  mov         dword ptr [ebp-4],0FFFFFFFFh
            FF
  00409624: EB 17              jmp         0040963D
  00409626: B8 01 00 00 00     mov         eax,1
  0040962B: C3                 ret
  0040962C: 8B 65 E8           mov         esp,dword ptr [ebp-18h]
  0040962F: C7 45 DC 00 00 00  mov         dword ptr [ebp-24h],0
            00
  00409636: C7 45 FC FF FF FF  mov         dword ptr [ebp-4],0FFFFFFFFh
            FF
  0040963D: 83 7D DC 00        cmp         dword ptr [ebp-24h],0
  00409641: 75 07              jne         0040964A
  00409643: 33 C0              xor         eax,eax
  00409645: E9 87 01 00 00     jmp         004097D1
  0040964A: 8B 55 E4           mov         edx,dword ptr [ebp-1Ch]
  0040964D: 52                 push        edx
  0040964E: 8B 45 DC           mov         eax,dword ptr [ebp-24h]
  00409651: 50                 push        eax
  00409652: 8B 4D 14           mov         ecx,dword ptr [ebp+14h]
  00409655: 51                 push        ecx
  00409656: 8B 55 10           mov         edx,dword ptr [ebp+10h]
  00409659: 52                 push        edx
  0040965A: 6A 01              push        1
  0040965C: 8B 45 20           mov         eax,dword ptr [ebp+20h]
  0040965F: 50                 push        eax
  00409660: FF 15 A4 B0 40 00  call        dword ptr ds:[0040B0A4h]
  00409666: 85 C0              test        eax,eax
  00409668: 75 07              jne         00409671
  0040966A: 33 C0              xor         eax,eax
  0040966C: E9 60 01 00 00     jmp         004097D1
  00409671: 6A 00              push        0
  00409673: 6A 00              push        0
  00409675: 8B 4D E4           mov         ecx,dword ptr [ebp-1Ch]
  00409678: 51                 push        ecx
  00409679: 8B 55 DC           mov         edx,dword ptr [ebp-24h]
  0040967C: 52                 push        edx
  0040967D: 8B 45 0C           mov         eax,dword ptr [ebp+0Ch]
  00409680: 50                 push        eax
  00409681: 8B 4D 08           mov         ecx,dword ptr [ebp+8]
  00409684: 51                 push        ecx
  00409685: FF 15 AC B0 40 00  call        dword ptr ds:[0040B0ACh]
  0040968B: 89 45 D8           mov         dword ptr [ebp-28h],eax
  0040968E: 83 7D D8 00        cmp         dword ptr [ebp-28h],0
  00409692: 75 07              jne         0040969B
  00409694: 33 C0              xor         eax,eax
  00409696: E9 36 01 00 00     jmp         004097D1
  0040969B: 8B 55 0C           mov         edx,dword ptr [ebp+0Ch]
  0040969E: 81 E2 00 04 00 00  and         edx,400h
  004096A4: 85 D2              test        edx,edx
  004096A6: 74 43              je          004096EB
  004096A8: 83 7D 1C 00        cmp         dword ptr [ebp+1Ch],0
  004096AC: 74 38              je          004096E6
  004096AE: 8B 45 D8           mov         eax,dword ptr [ebp-28h]
  004096B1: 3B 45 1C           cmp         eax,dword ptr [ebp+1Ch]
  004096B4: 7E 07              jle         004096BD
  004096B6: 33 C0              xor         eax,eax
  004096B8: E9 14 01 00 00     jmp         004097D1
  004096BD: 8B 4D 1C           mov         ecx,dword ptr [ebp+1Ch]
  004096C0: 51                 push        ecx
  004096C1: 8B 55 18           mov         edx,dword ptr [ebp+18h]
  004096C4: 52                 push        edx
  004096C5: 8B 45 E4           mov         eax,dword ptr [ebp-1Ch]
  004096C8: 50                 push        eax
  004096C9: 8B 4D DC           mov         ecx,dword ptr [ebp-24h]
  004096CC: 51                 push        ecx
  004096CD: 8B 55 0C           mov         edx,dword ptr [ebp+0Ch]
  004096D0: 52                 push        edx
  004096D1: 8B 45 08           mov         eax,dword ptr [ebp+8]
  004096D4: 50                 push        eax
  004096D5: FF 15 AC B0 40 00  call        dword ptr ds:[0040B0ACh]
  004096DB: 85 C0              test        eax,eax
  004096DD: 75 07              jne         004096E6
  004096DF: 33 C0              xor         eax,eax
  004096E1: E9 EB 00 00 00     jmp         004097D1
  004096E6: E9 DF 00 00 00     jmp         004097CA
  004096EB: 8B 4D D8           mov         ecx,dword ptr [ebp-28h]
  004096EE: 89 4D D4           mov         dword ptr [ebp-2Ch],ecx
  004096F1: C7 45 FC 01 00 00  mov         dword ptr [ebp-4],1
            00
  004096F8: 8B 45 D4           mov         eax,dword ptr [ebp-2Ch]
  004096FB: D1 E0              shl         eax,1
  004096FD: 83 C0 03           add         eax,3
  00409700: 24 FC              and         al,0FCh
  00409702: E8 B9 9C FF FF     call        004033C0
  00409707: 89 65 CC           mov         dword ptr [ebp-34h],esp
  0040970A: 89 65 E8           mov         dword ptr [ebp-18h],esp
  0040970D: 8B 55 CC           mov         edx,dword ptr [ebp-34h]
  00409710: 89 55 E0           mov         dword ptr [ebp-20h],edx
  00409713: C7 45 FC FF FF FF  mov         dword ptr [ebp-4],0FFFFFFFFh
            FF
  0040971A: EB 17              jmp         00409733
  0040971C: B8 01 00 00 00     mov         eax,1
  00409721: C3                 ret
  00409722: 8B 65 E8           mov         esp,dword ptr [ebp-18h]
  00409725: C7 45 E0 00 00 00  mov         dword ptr [ebp-20h],0
            00
  0040972C: C7 45 FC FF FF FF  mov         dword ptr [ebp-4],0FFFFFFFFh
            FF
  00409733: 83 7D E0 00        cmp         dword ptr [ebp-20h],0
  00409737: 75 07              jne         00409740
  00409739: 33 C0              xor         eax,eax
  0040973B: E9 91 00 00 00     jmp         004097D1
  00409740: 8B 45 D4           mov         eax,dword ptr [ebp-2Ch]
  00409743: 50                 push        eax
  00409744: 8B 4D E0           mov         ecx,dword ptr [ebp-20h]
  00409747: 51                 push        ecx
  00409748: 8B 55 E4           mov         edx,dword ptr [ebp-1Ch]
  0040974B: 52                 push        edx
  0040974C: 8B 45 DC           mov         eax,dword ptr [ebp-24h]
  0040974F: 50                 push        eax
  00409750: 8B 4D 0C           mov         ecx,dword ptr [ebp+0Ch]
  00409753: 51                 push        ecx
  00409754: 8B 55 08           mov         edx,dword ptr [ebp+8]
  00409757: 52                 push        edx
  00409758: FF 15 AC B0 40 00  call        dword ptr ds:[0040B0ACh]
  0040975E: 85 C0              test        eax,eax
  00409760: 75 04              jne         00409766
  00409762: 33 C0              xor         eax,eax
  00409764: EB 6B              jmp         004097D1
  00409766: 83 7D 1C 00        cmp         dword ptr [ebp+1Ch],0
  0040976A: 75 2E              jne         0040979A
  0040976C: 6A 00              push        0
  0040976E: 6A 00              push        0
  00409770: 6A 00              push        0
  00409772: 6A 00              push        0
  00409774: 8B 45 D4           mov         eax,dword ptr [ebp-2Ch]
  00409777: 50                 push        eax
  00409778: 8B 4D E0           mov         ecx,dword ptr [ebp-20h]
  0040977B: 51                 push        ecx
  0040977C: 68 20 02 00 00     push        220h
  00409781: 8B 55 20           mov         edx,dword ptr [ebp+20h]
  00409784: 52                 push        edx
  00409785: FF 15 44 B0 40 00  call        dword ptr ds:[0040B044h]
  0040978B: 89 45 D8           mov         dword ptr [ebp-28h],eax
  0040978E: 83 7D D8 00        cmp         dword ptr [ebp-28h],0
  00409792: 75 04              jne         00409798
  00409794: 33 C0              xor         eax,eax
  00409796: EB 39              jmp         004097D1
  00409798: EB 30              jmp         004097CA
  0040979A: 6A 00              push        0
  0040979C: 6A 00              push        0
  0040979E: 8B 45 1C           mov         eax,dword ptr [ebp+1Ch]
  004097A1: 50                 push        eax
  004097A2: 8B 4D 18           mov         ecx,dword ptr [ebp+18h]
  004097A5: 51                 push        ecx
  004097A6: 8B 55 D4           mov         edx,dword ptr [ebp-2Ch]
  004097A9: 52                 push        edx
  004097AA: 8B 45 E0           mov         eax,dword ptr [ebp-20h]
  004097AD: 50                 push        eax
  004097AE: 68 20 02 00 00     push        220h
  004097B3: 8B 4D 20           mov         ecx,dword ptr [ebp+20h]
  004097B6: 51                 push        ecx
  004097B7: FF 15 44 B0 40 00  call        dword ptr ds:[0040B044h]
  004097BD: 89 45 D8           mov         dword ptr [ebp-28h],eax
  004097C0: 83 7D D8 00        cmp         dword ptr [ebp-28h],0
  004097C4: 75 04              jne         004097CA
  004097C6: 33 C0              xor         eax,eax
  004097C8: EB 07              jmp         004097D1
  004097CA: 8B 45 D8           mov         eax,dword ptr [ebp-28h]
  004097CD: EB 02              jmp         004097D1
  004097CF: 33 C0              xor         eax,eax
  004097D1: 8D 65 C0           lea         esp,[ebp-40h]
  004097D4: 8B 4D F0           mov         ecx,dword ptr [ebp-10h]
  004097D7: 64 89 0D 00 00 00  mov         dword ptr fs:[00000000h],ecx
            00
  004097DE: 5F                 pop         edi
  004097DF: 5E                 pop         esi
  004097E0: 5B                 pop         ebx
  004097E1: 8B E5              mov         esp,ebp
  004097E3: 5D                 pop         ebp
  004097E4: C3                 ret
  004097E5: CC                 int         3
  004097E6: CC                 int         3
  004097E7: CC                 int         3
  004097E8: CC                 int         3
  004097E9: CC                 int         3
  004097EA: CC                 int         3
  004097EB: CC                 int         3
  004097EC: CC                 int         3
  004097ED: CC                 int         3
  004097EE: CC                 int         3
  004097EF: CC                 int         3
  004097F0: 55                 push        ebp
  004097F1: 8B EC              mov         ebp,esp
  004097F3: 83 EC 08           sub         esp,8
  004097F6: 8B 45 0C           mov         eax,dword ptr [ebp+0Ch]
  004097F9: 89 45 F8           mov         dword ptr [ebp-8],eax
  004097FC: 8B 4D 08           mov         ecx,dword ptr [ebp+8]
  004097FF: 89 4D FC           mov         dword ptr [ebp-4],ecx
  00409802: 8B 55 F8           mov         edx,dword ptr [ebp-8]
  00409805: 8B 45 F8           mov         eax,dword ptr [ebp-8]
  00409808: 83 E8 01           sub         eax,1
  0040980B: 89 45 F8           mov         dword ptr [ebp-8],eax
  0040980E: 85 D2              test        edx,edx
  00409810: 74 15              je          00409827
  00409812: 8B 4D FC           mov         ecx,dword ptr [ebp-4]
  00409815: 0F BE 11           movsx       edx,byte ptr [ecx]
  00409818: 85 D2              test        edx,edx
  0040981A: 74 0B              je          00409827
  0040981C: 8B 45 FC           mov         eax,dword ptr [ebp-4]
  0040981F: 83 C0 01           add         eax,1
  00409822: 89 45 FC           mov         dword ptr [ebp-4],eax
  00409825: EB DB              jmp         00409802
  00409827: 8B 4D FC           mov         ecx,dword ptr [ebp-4]
  0040982A: 0F BE 11           movsx       edx,byte ptr [ecx]
  0040982D: 85 D2              test        edx,edx
  0040982F: 75 08              jne         00409839
  00409831: 8B 45 FC           mov         eax,dword ptr [ebp-4]
  00409834: 2B 45 08           sub         eax,dword ptr [ebp+8]
  00409837: EB 03              jmp         0040983C
  00409839: 8B 45 0C           mov         eax,dword ptr [ebp+0Ch]
  0040983C: 8B E5              mov         esp,ebp
  0040983E: 5D                 pop         ebp
  0040983F: C3                 ret
  00409840: 55                 push        ebp
  00409841: 8B EC              mov         ebp,esp
  00409843: 6A FF              push        0FFh
  00409845: 68 C0 BD 40 00     push        40BDC0h
  0040984A: 68 48 2C 40 00     push        402C48h
  0040984F: 64 A1 00 00 00 00  mov         eax,fs:[00000000]
  00409855: 50                 push        eax
  00409856: 64 89 25 00 00 00  mov         dword ptr fs:[00000000h],esp
            00
  0040985D: 83 C4 E4           add         esp,0E4h
  00409860: 53                 push        ebx
  00409861: 56                 push        esi
  00409862: 57                 push        edi
  00409863: 89 65 E8           mov         dword ptr [ebp-18h],esp
  00409866: 83 3D 08 FB 40 00  cmp         dword ptr ds:[0040FB08h],0
            00
  0040986D: 75 4F              jne         004098BE
  0040986F: 8D 45 E4           lea         eax,[ebp-1Ch]
  00409872: 50                 push        eax
  00409873: 6A 01              push        1
  00409875: 68 A4 BD 40 00     push        40BDA4h
  0040987A: 6A 01              push        1
  0040987C: FF 15 B4 B0 40 00  call        dword ptr ds:[0040B0B4h]
  00409882: 85 C0              test        eax,eax
  00409884: 74 0C              je          00409892
  00409886: C7 05 08 FB 40 00  mov         dword ptr ds:[0040FB08h],1
            01 00 00 00
  00409890: EB 2C              jmp         004098BE
  00409892: 8D 4D E4           lea         ecx,[ebp-1Ch]
  00409895: 51                 push        ecx
  00409896: 6A 01              push        1
  00409898: 68 A0 BD 40 00     push        40BDA0h
  0040989D: 6A 01              push        1
  0040989F: 6A 00              push        0
  004098A1: FF 15 B0 B0 40 00  call        dword ptr ds:[0040B0B0h]
  004098A7: 85 C0              test        eax,eax
  004098A9: 74 0C              je          004098B7
  004098AB: C7 05 08 FB 40 00  mov         dword ptr ds:[0040FB08h],2
            02 00 00 00
  004098B5: EB 07              jmp         004098BE
  004098B7: 33 C0              xor         eax,eax
  004098B9: E9 2A 01 00 00     jmp         004099E8
  004098BE: 83 3D 08 FB 40 00  cmp         dword ptr ds:[0040FB08h],2
            02
  004098C5: 75 2E              jne         004098F5
  004098C7: 83 7D 1C 00        cmp         dword ptr [ebp+1Ch],0
  004098CB: 75 09              jne         004098D6
  004098CD: 8B 15 EC FA 40 00  mov         edx,dword ptr ds:[0040FAECh]
  004098D3: 89 55 1C           mov         dword ptr [ebp+1Ch],edx
  004098D6: 8B 45 14           mov         eax,dword ptr [ebp+14h]
  004098D9: 50                 push        eax
  004098DA: 8B 4D 10           mov         ecx,dword ptr [ebp+10h]
  004098DD: 51                 push        ecx
  004098DE: 8B 55 0C           mov         edx,dword ptr [ebp+0Ch]
  004098E1: 52                 push        edx
  004098E2: 8B 45 08           mov         eax,dword ptr [ebp+8]
  004098E5: 50                 push        eax
  004098E6: 8B 4D 1C           mov         ecx,dword ptr [ebp+1Ch]
  004098E9: 51                 push        ecx
  004098EA: FF 15 B0 B0 40 00  call        dword ptr ds:[0040B0B0h]
  004098F0: E9 F3 00 00 00     jmp         004099E8
  004098F5: 83 3D 08 FB 40 00  cmp         dword ptr ds:[0040FB08h],1
            01
  004098FC: 0F 85 E4 00 00 00  jne         004099E6
  00409902: 83 7D 18 00        cmp         dword ptr [ebp+18h],0
  00409906: 75 09              jne         00409911
  00409908: 8B 15 FC FA 40 00  mov         edx,dword ptr ds:[0040FAFCh]
  0040990E: 89 55 18           mov         dword ptr [ebp+18h],edx
  00409911: 6A 00              push        0
  00409913: 6A 00              push        0
  00409915: 8B 45 10           mov         eax,dword ptr [ebp+10h]
  00409918: 50                 push        eax
  00409919: 8B 4D 0C           mov         ecx,dword ptr [ebp+0Ch]
  0040991C: 51                 push        ecx
  0040991D: 8B 55 20           mov         edx,dword ptr [ebp+20h]
  00409920: F7 DA              neg         edx
  00409922: 1B D2              sbb         edx,edx
  00409924: 83 E2 08           and         edx,8
  00409927: 83 C2 01           add         edx,1
  0040992A: 52                 push        edx
  0040992B: 8B 45 18           mov         eax,dword ptr [ebp+18h]
  0040992E: 50                 push        eax
  0040992F: FF 15 A4 B0 40 00  call        dword ptr ds:[0040B0A4h]
  00409935: 89 45 E0           mov         dword ptr [ebp-20h],eax
  00409938: 83 7D E0 00        cmp         dword ptr [ebp-20h],0
  0040993C: 75 07              jne         00409945
  0040993E: 33 C0              xor         eax,eax
  00409940: E9 A3 00 00 00     jmp         004099E8
  00409945: C7 45 FC 00 00 00  mov         dword ptr [ebp-4],0
            00
  0040994C: 8B 45 E0           mov         eax,dword ptr [ebp-20h]
  0040994F: D1 E0              shl         eax,1
  00409951: 83 C0 03           add         eax,3
  00409954: 24 FC              and         al,0FCh
  00409956: E8 65 9A FF FF     call        004033C0
  0040995B: 89 65 D4           mov         dword ptr [ebp-2Ch],esp
  0040995E: 89 65 E8           mov         dword ptr [ebp-18h],esp
  00409961: 8B 4D D4           mov         ecx,dword ptr [ebp-2Ch]
  00409964: 89 4D DC           mov         dword ptr [ebp-24h],ecx
  00409967: 8B 55 E0           mov         edx,dword ptr [ebp-20h]
  0040996A: D1 E2              shl         edx,1
  0040996C: 52                 push        edx
  0040996D: 6A 00              push        0
  0040996F: 8B 45 DC           mov         eax,dword ptr [ebp-24h]
  00409972: 50                 push        eax
  00409973: E8 08 F7 FF FF     call        00409080
  00409978: 83 C4 0C           add         esp,0Ch
  0040997B: C7 45 FC FF FF FF  mov         dword ptr [ebp-4],0FFFFFFFFh
            FF
  00409982: EB 17              jmp         0040999B
  00409984: B8 01 00 00 00     mov         eax,1
  00409989: C3                 ret
  0040998A: 8B 65 E8           mov         esp,dword ptr [ebp-18h]
  0040998D: C7 45 DC 00 00 00  mov         dword ptr [ebp-24h],0
            00
  00409994: C7 45 FC FF FF FF  mov         dword ptr [ebp-4],0FFFFFFFFh
            FF
  0040999B: 83 7D DC 00        cmp         dword ptr [ebp-24h],0
  0040999F: 75 04              jne         004099A5
  004099A1: 33 C0              xor         eax,eax
  004099A3: EB 43              jmp         004099E8
  004099A5: 8B 4D E0           mov         ecx,dword ptr [ebp-20h]
  004099A8: 51                 push        ecx
  004099A9: 8B 55 DC           mov         edx,dword ptr [ebp-24h]
  004099AC: 52                 push        edx
  004099AD: 8B 45 10           mov         eax,dword ptr [ebp+10h]
  004099B0: 50                 push        eax
  004099B1: 8B 4D 0C           mov         ecx,dword ptr [ebp+0Ch]
  004099B4: 51                 push        ecx
  004099B5: 6A 01              push        1
  004099B7: 8B 55 18           mov         edx,dword ptr [ebp+18h]
  004099BA: 52                 push        edx
  004099BB: FF 15 A4 B0 40 00  call        dword ptr ds:[0040B0A4h]
  004099C1: 89 45 D8           mov         dword ptr [ebp-28h],eax
  004099C4: 83 7D D8 00        cmp         dword ptr [ebp-28h],0
  004099C8: 75 04              jne         004099CE
  004099CA: 33 C0              xor         eax,eax
  004099CC: EB 1A              jmp         004099E8
  004099CE: 8B 45 14           mov         eax,dword ptr [ebp+14h]
  004099D1: 50                 push        eax
  004099D2: 8B 4D D8           mov         ecx,dword ptr [ebp-28h]
  004099D5: 51                 push        ecx
  004099D6: 8B 55 DC           mov         edx,dword ptr [ebp-24h]
  004099D9: 52                 push        edx
  004099DA: 8B 45 08           mov         eax,dword ptr [ebp+8]
  004099DD: 50                 push        eax
  004099DE: FF 15 B4 B0 40 00  call        dword ptr ds:[0040B0B4h]
  004099E4: EB 02              jmp         004099E8
  004099E6: 33 C0              xor         eax,eax
  004099E8: 8D 65 C8           lea         esp,[ebp-38h]
  004099EB: 8B 4D F0           mov         ecx,dword ptr [ebp-10h]
  004099EE: 64 89 0D 00 00 00  mov         dword ptr fs:[00000000h],ecx
            00
  004099F5: 5F                 pop         edi
  004099F6: 5E                 pop         esi
  004099F7: 5B                 pop         ebx
  004099F8: 8B E5              mov         esp,ebp
  004099FA: 5D                 pop         ebp
  004099FB: C3                 ret
  004099FC: CC                 int         3
  004099FD: CC                 int         3
  004099FE: CC                 int         3
  004099FF: CC                 int         3
  00409A00: 55                 push        ebp
  00409A01: 8B EC              mov         ebp,esp
  00409A03: 83 EC 10           sub         esp,10h
  00409A06: 83 3D EC FA 40 00  cmp         dword ptr ds:[0040FAECh],0
            00
  00409A0D: 75 1D              jne         00409A2C
  00409A0F: 83 7D 08 61        cmp         dword ptr [ebp+8],61h
  00409A13: 7C 0F              jl          00409A24
  00409A15: 83 7D 08 7A        cmp         dword ptr [ebp+8],7Ah
  00409A19: 7F 09              jg          00409A24
  00409A1B: 8B 45 08           mov         eax,dword ptr [ebp+8]
  00409A1E: 83 E8 20           sub         eax,20h
  00409A21: 89 45 08           mov         dword ptr [ebp+8],eax
  00409A24: 8B 45 08           mov         eax,dword ptr [ebp+8]
  00409A27: E9 FB 00 00 00     jmp         00409B27
  00409A2C: 81 7D 08 00 01 00  cmp         dword ptr [ebp+8],100h
            00
  00409A33: 7D 3E              jge         00409A73
  00409A35: 83 3D 20 F5 40 00  cmp         dword ptr ds:[0040F520h],1
            01
  00409A3C: 7E 13              jle         00409A51
  00409A3E: 6A 02              push        2
  00409A40: 8B 4D 08           mov         ecx,dword ptr [ebp+8]
  00409A43: 51                 push        ecx
  00409A44: E8 D7 F9 FF FF     call        00409420
  00409A49: 83 C4 08           add         esp,8
  00409A4C: 89 45 F0           mov         dword ptr [ebp-10h],eax
  00409A4F: EB 14              jmp         00409A65
  00409A51: 8B 55 08           mov         edx,dword ptr [ebp+8]
  00409A54: A1 14 F3 40 00     mov         eax,[0040F314]
  00409A59: 33 C9              xor         ecx,ecx
  00409A5B: 66 8B 0C 50        mov         cx,word ptr [eax+edx*2]
  00409A5F: 83 E1 02           and         ecx,2
  00409A62: 89 4D F0           mov         dword ptr [ebp-10h],ecx
  00409A65: 83 7D F0 00        cmp         dword ptr [ebp-10h],0
  00409A69: 75 08              jne         00409A73
  00409A6B: 8B 45 08           mov         eax,dword ptr [ebp+8]
  00409A6E: E9 B4 00 00 00     jmp         00409B27
  00409A73: 8B 55 08           mov         edx,dword ptr [ebp+8]
  00409A76: C1 FA 08           sar         edx,8
  00409A79: 81 E2 FF 00 00 00  and         edx,0FFh
  00409A7F: 81 E2 FF 00 00 00  and         edx,0FFh
  00409A85: A1 14 F3 40 00     mov         eax,[0040F314]
  00409A8A: 33 C9              xor         ecx,ecx
  00409A8C: 66 8B 0C 50        mov         cx,word ptr [eax+edx*2]
  00409A90: 81 E1 00 80 00 00  and         ecx,8000h
  00409A96: 85 C9              test        ecx,ecx
  00409A98: 74 22              je          00409ABC
  00409A9A: 8B 55 08           mov         edx,dword ptr [ebp+8]
  00409A9D: C1 FA 08           sar         edx,8
  00409AA0: 81 E2 FF 00 00 00  and         edx,0FFh
  00409AA6: 88 55 F8           mov         byte ptr [ebp-8],dl
  00409AA9: 8A 45 08           mov         al,byte ptr [ebp+8]
  00409AAC: 88 45 F9           mov         byte ptr [ebp-7],al
  00409AAF: C6 45 FA 00        mov         byte ptr [ebp-6],0
  00409AB3: C7 45 FC 02 00 00  mov         dword ptr [ebp-4],2
            00
  00409ABA: EB 11              jmp         00409ACD
  00409ABC: 8A 4D 08           mov         cl,byte ptr [ebp+8]
  00409ABF: 88 4D F8           mov         byte ptr [ebp-8],cl
  00409AC2: C6 45 F9 00        mov         byte ptr [ebp-7],0
  00409AC6: C7 45 FC 01 00 00  mov         dword ptr [ebp-4],1
            00
  00409ACD: 6A 01              push        1
  00409ACF: 6A 00              push        0
  00409AD1: 6A 03              push        3
  00409AD3: 8D 55 F4           lea         edx,[ebp-0Ch]
  00409AD6: 52                 push        edx
  00409AD7: 8B 45 FC           mov         eax,dword ptr [ebp-4]
  00409ADA: 50                 push        eax
  00409ADB: 8D 4D F8           lea         ecx,[ebp-8]
  00409ADE: 51                 push        ecx
  00409ADF: 68 00 02 00 00     push        200h
  00409AE4: 8B 15 EC FA 40 00  mov         edx,dword ptr ds:[0040FAECh]
  00409AEA: 52                 push        edx
  00409AEB: E8 F0 F9 FF FF     call        004094E0
  00409AF0: 83 C4 20           add         esp,20h
  00409AF3: 89 45 FC           mov         dword ptr [ebp-4],eax
  00409AF6: 83 7D FC 00        cmp         dword ptr [ebp-4],0
  00409AFA: 75 05              jne         00409B01
  00409AFC: 8B 45 08           mov         eax,dword ptr [ebp+8]
  00409AFF: EB 26              jmp         00409B27
  00409B01: 83 7D FC 01        cmp         dword ptr [ebp-4],1
  00409B05: 75 0A              jne         00409B11
  00409B07: 8B 45 F4           mov         eax,dword ptr [ebp-0Ch]
  00409B0A: 25 FF 00 00 00     and         eax,0FFh
  00409B0F: EB 16              jmp         00409B27
  00409B11: 8B 45 F4           mov         eax,dword ptr [ebp-0Ch]
  00409B14: 25 FF 00 00 00     and         eax,0FFh
  00409B19: 8B 4D F5           mov         ecx,dword ptr [ebp-0Bh]
  00409B1C: 81 E1 FF 00 00 00  and         ecx,0FFh
  00409B22: C1 E1 08           shl         ecx,8
  00409B25: 0B C1              or          eax,ecx
  00409B27: 8B E5              mov         esp,ebp
  00409B29: 5D                 pop         ebp
  00409B2A: C3                 ret
  00409B2B: CC                 int         3
  00409B2C: CC                 int         3
  00409B2D: CC                 int         3
  00409B2E: CC                 int         3
  00409B2F: CC                 int         3
  00409B30: 55                 push        ebp
  00409B31: 8B EC              mov         ebp,esp
  00409B33: 57                 push        edi
  00409B34: 56                 push        esi
  00409B35: 8B 75 0C           mov         esi,dword ptr [ebp+0Ch]
  00409B38: 8B 4D 10           mov         ecx,dword ptr [ebp+10h]
  00409B3B: 8B 7D 08           mov         edi,dword ptr [ebp+8]
  00409B3E: 8B C1              mov         eax,ecx
  00409B40: 8B D1              mov         edx,ecx
  00409B42: 03 C6              add         eax,esi
  00409B44: 3B FE              cmp         edi,esi
  00409B46: 76 08              jbe         00409B50
  00409B48: 3B F8              cmp         edi,eax
  00409B4A: 0F 82 78 01 00 00  jb          00409CC8
  00409B50: F7 C7 03 00 00 00  test        edi,3
  00409B56: 75 14              jne         00409B6C
  00409B58: C1 E9 02           shr         ecx,2
  00409B5B: 83 E2 03           and         edx,3
  00409B5E: 83 F9 08           cmp         ecx,8
  00409B61: 72 29              jb          00409B8C
  00409B63: F3 A5              rep movs    dword ptr [edi],dword ptr [esi]
  00409B65: FF 24 95 78 9C 40  jmp         dword ptr [edx*4+00409C78h]
            00
  00409B6C: 8B C7              mov         eax,edi
  00409B6E: BA 03 00 00 00     mov         edx,3
  00409B73: 83 E9 04           sub         ecx,4
  00409B76: 72 0C              jb          00409B84
  00409B78: 83 E0 03           and         eax,3
  00409B7B: 03 C8              add         ecx,eax
  00409B7D: FF 24 85 90 9B 40  jmp         dword ptr [eax*4+00409B90h]
            00
  00409B84: FF 24 8D 88 9C 40  jmp         dword ptr [ecx*4+00409C88h]
            00
  00409B8B: 90                 nop
  00409B8C: FF 24 8D 0C 9C 40  jmp         dword ptr [ecx*4+00409C0Ch]
            00
  00409B93: 90                 nop
  00409B94: A0 9B 40 00 CC     mov         al,[CC00409B]
  00409B99: 9B                 wait
  00409B9A: 40                 inc         eax
  00409B9B: 00 F0              add         al,dh
  00409B9D: 9B                 wait
  00409B9E: 40                 inc         eax
  00409B9F: 00 23              add         byte ptr [ebx],ah
  00409BA1: D1 8A 06 88 07 8A  ror         dword ptr [edx+8A078806h],1
  00409BA7: 46                 inc         esi
  00409BA8: 01 88 47 01 8A 46  add         dword ptr [eax+468A0147h],ecx
  00409BAE: 02 C1              add         al,cl
  00409BB0: E9 02 88 47 02     jmp         028823B7
  00409BB5: 83 C6 03           add         esi,3
  00409BB8: 83 C7 03           add         edi,3
  00409BBB: 83 F9 08           cmp         ecx,8
  00409BBE: 72 CC              jb          00409B8C
  00409BC0: F3 A5              rep movs    dword ptr [edi],dword ptr [esi]
  00409BC2: FF 24 95 78 9C 40  jmp         dword ptr [edx*4+00409C78h]
            00
  00409BC9: 8D 49 00           lea         ecx,[ecx]
  00409BCC: 23 D1              and         edx,ecx
  00409BCE: 8A 06              mov         al,byte ptr [esi]
  00409BD0: 88 07              mov         byte ptr [edi],al
  00409BD2: 8A 46 01           mov         al,byte ptr [esi+1]
  00409BD5: C1 E9 02           shr         ecx,2
  00409BD8: 88 47 01           mov         byte ptr [edi+1],al
  00409BDB: 83 C6 02           add         esi,2
  00409BDE: 83 C7 02           add         edi,2
  00409BE1: 83 F9 08           cmp         ecx,8
  00409BE4: 72 A6              jb          00409B8C
  00409BE6: F3 A5              rep movs    dword ptr [edi],dword ptr [esi]
  00409BE8: FF 24 95 78 9C 40  jmp         dword ptr [edx*4+00409C78h]
            00
  00409BEF: 90                 nop
  00409BF0: 23 D1              and         edx,ecx
  00409BF2: 8A 06              mov         al,byte ptr [esi]
  00409BF4: 88 07              mov         byte ptr [edi],al
  00409BF6: 46                 inc         esi
  00409BF7: C1 E9 02           shr         ecx,2
  00409BFA: 47                 inc         edi
  00409BFB: 83 F9 08           cmp         ecx,8
  00409BFE: 72 8C              jb          00409B8C
  00409C00: F3 A5              rep movs    dword ptr [edi],dword ptr [esi]
  00409C02: FF 24 95 78 9C 40  jmp         dword ptr [edx*4+00409C78h]
            00
  00409C09: 8D 49 00           lea         ecx,[ecx]
  00409C0C: 6F                 outs        dx,dword ptr [esi]
  00409C0D: 9C                 pushfd
  00409C0E: 40                 inc         eax
  00409C0F: 00 5C 9C 40        add         byte ptr [esp+ebx*4+40h],bl
  00409C13: 00 54 9C 40        add         byte ptr [esp+ebx*4+40h],dl
  00409C17: 00 4C 9C 40        add         byte ptr [esp+ebx*4+40h],cl
  00409C1B: 00 44 9C 40        add         byte ptr [esp+ebx*4+40h],al
  00409C1F: 00 3C 9C           add         byte ptr [esp+ebx*4],bh
  00409C22: 40                 inc         eax
  00409C23: 00 34 9C           add         byte ptr [esp+ebx*4],dh
  00409C26: 40                 inc         eax
  00409C27: 00 2C 9C           add         byte ptr [esp+ebx*4],ch
  00409C2A: 40                 inc         eax
  00409C2B: 00 8B 44 8E E4 89  add         byte ptr [ebx+89E48E44h],cl
  00409C31: 44                 inc         esp
  00409C32: 8F E4              pop         esp
  00409C34: 8B 44 8E E8        mov         eax,dword ptr [esi+ecx*4-18h]
  00409C38: 89 44 8F E8        mov         dword ptr [edi+ecx*4-18h],eax
  00409C3C: 8B 44 8E EC        mov         eax,dword ptr [esi+ecx*4-14h]
  00409C40: 89 44 8F EC        mov         dword ptr [edi+ecx*4-14h],eax
  00409C44: 8B 44 8E F0        mov         eax,dword ptr [esi+ecx*4-10h]
  00409C48: 89 44 8F F0        mov         dword ptr [edi+ecx*4-10h],eax
  00409C4C: 8B 44 8E F4        mov         eax,dword ptr [esi+ecx*4-0Ch]
  00409C50: 89 44 8F F4        mov         dword ptr [edi+ecx*4-0Ch],eax
  00409C54: 8B 44 8E F8        mov         eax,dword ptr [esi+ecx*4-8]
  00409C58: 89 44 8F F8        mov         dword ptr [edi+ecx*4-8],eax
  00409C5C: 8B 44 8E FC        mov         eax,dword ptr [esi+ecx*4-4]
  00409C60: 89 44 8F FC        mov         dword ptr [edi+ecx*4-4],eax
  00409C64: 8D 04 8D 00 00 00  lea         eax,[ecx*4+00000000h]
            00
  00409C6B: 03 F0              add         esi,eax
  00409C6D: 03 F8              add         edi,eax
  00409C6F: FF 24 95 78 9C 40  jmp         dword ptr [edx*4+00409C78h]
            00
  00409C76: 8B FF              mov         edi,edi
  00409C78: 88 9C 40 00 90 9C  mov         byte ptr [eax+eax*2+409C9000h],bl
            40
  00409C7F: 00 9C 9C 40 00 B0  add         byte ptr [esp+ebx*4+9CB00040h],bl
            9C
  00409C86: 40                 inc         eax
  00409C87: 00 8B 45 08 5E 5F  add         byte ptr [ebx+5F5E0845h],cl
  00409C8D: C9                 leave
  00409C8E: C3                 ret
  00409C8F: 90                 nop
  00409C90: 8A 06              mov         al,byte ptr [esi]
  00409C92: 88 07              mov         byte ptr [edi],al
  00409C94: 8B 45 08           mov         eax,dword ptr [ebp+8]
  00409C97: 5E                 pop         esi
  00409C98: 5F                 pop         edi
  00409C99: C9                 leave
  00409C9A: C3                 ret
  00409C9B: 90                 nop
  00409C9C: 8A 06              mov         al,byte ptr [esi]
  00409C9E: 88 07              mov         byte ptr [edi],al
  00409CA0: 8A 46 01           mov         al,byte ptr [esi+1]
  00409CA3: 88 47 01           mov         byte ptr [edi+1],al
  00409CA6: 8B 45 08           mov         eax,dword ptr [ebp+8]
  00409CA9: 5E                 pop         esi
  00409CAA: 5F                 pop         edi
  00409CAB: C9                 leave
  00409CAC: C3                 ret
  00409CAD: 8D 49 00           lea         ecx,[ecx]
  00409CB0: 8A 06              mov         al,byte ptr [esi]
  00409CB2: 88 07              mov         byte ptr [edi],al
  00409CB4: 8A 46 01           mov         al,byte ptr [esi+1]
  00409CB7: 88 47 01           mov         byte ptr [edi+1],al
  00409CBA: 8A 46 02           mov         al,byte ptr [esi+2]
  00409CBD: 88 47 02           mov         byte ptr [edi+2],al
  00409CC0: 8B 45 08           mov         eax,dword ptr [ebp+8]
  00409CC3: 5E                 pop         esi
  00409CC4: 5F                 pop         edi
  00409CC5: C9                 leave
  00409CC6: C3                 ret
  00409CC7: 90                 nop
  00409CC8: 8D 74 31 FC        lea         esi,[ecx+esi-4]
  00409CCC: 8D 7C 39 FC        lea         edi,[ecx+edi-4]
  00409CD0: F7 C7 03 00 00 00  test        edi,3
  00409CD6: 75 24              jne         00409CFC
  00409CD8: C1 E9 02           shr         ecx,2
  00409CDB: 83 E2 03           and         edx,3
  00409CDE: 83 F9 08           cmp         ecx,8
  00409CE1: 72 0D              jb          00409CF0
  00409CE3: FD                 std
  00409CE4: F3 A5              rep movs    dword ptr [edi],dword ptr [esi]
  00409CE6: FC                 cld
  00409CE7: FF 24 95 10 9E 40  jmp         dword ptr [edx*4+00409E10h]
            00
  00409CEE: 8B FF              mov         edi,edi
  00409CF0: F7 D9              neg         ecx
  00409CF2: FF 24 8D C0 9D 40  jmp         dword ptr [ecx*4+00409DC0h]
            00
  00409CF9: 8D 49 00           lea         ecx,[ecx]
  00409CFC: 8B C7              mov         eax,edi
  00409CFE: BA 03 00 00 00     mov         edx,3
  00409D03: 83 F9 04           cmp         ecx,4
  00409D06: 72 0C              jb          00409D14
  00409D08: 83 E0 03           and         eax,3
  00409D0B: 2B C8              sub         ecx,eax
  00409D0D: FF 24 85 18 9D 40  jmp         dword ptr [eax*4+00409D18h]
            00
  00409D14: FF 24 8D 10 9E 40  jmp         dword ptr [ecx*4+00409E10h]
            00
  00409D1B: 90                 nop
  00409D1C: 28 9D 40 00 48 9D  sub         byte ptr [ebp+9D480040h],bl
  00409D22: 40                 inc         eax
  00409D23: 00 70 9D           add         byte ptr [eax-63h],dh
  00409D26: 40                 inc         eax
  00409D27: 00 8A 46 03 23 D1  add         byte ptr [edx+D1230346h],cl
  00409D2D: 88 47 03           mov         byte ptr [edi+3],al
  00409D30: 4E                 dec         esi
  00409D31: C1 E9 02           shr         ecx,2
  00409D34: 4F                 dec         edi
  00409D35: 83 F9 08           cmp         ecx,8
  00409D38: 72 B6              jb          00409CF0
  00409D3A: FD                 std
  00409D3B: F3 A5              rep movs    dword ptr [edi],dword ptr [esi]
  00409D3D: FC                 cld
  00409D3E: FF 24 95 10 9E 40  jmp         dword ptr [edx*4+00409E10h]
            00
  00409D45: 8D 49 00           lea         ecx,[ecx]
  00409D48: 8A 46 03           mov         al,byte ptr [esi+3]
  00409D4B: 23 D1              and         edx,ecx
  00409D4D: 88 47 03           mov         byte ptr [edi+3],al
  00409D50: 8A 46 02           mov         al,byte ptr [esi+2]
  00409D53: C1 E9 02           shr         ecx,2
  00409D56: 88 47 02           mov         byte ptr [edi+2],al
  00409D59: 83 EE 02           sub         esi,2
  00409D5C: 83 EF 02           sub         edi,2
  00409D5F: 83 F9 08           cmp         ecx,8
  00409D62: 72 8C              jb          00409CF0
  00409D64: FD                 std
  00409D65: F3 A5              rep movs    dword ptr [edi],dword ptr [esi]
  00409D67: FC                 cld
  00409D68: FF 24 95 10 9E 40  jmp         dword ptr [edx*4+00409E10h]
            00
  00409D6F: 90                 nop
  00409D70: 8A 46 03           mov         al,byte ptr [esi+3]
  00409D73: 23 D1              and         edx,ecx
  00409D75: 88 47 03           mov         byte ptr [edi+3],al
  00409D78: 8A 46 02           mov         al,byte ptr [esi+2]
  00409D7B: 88 47 02           mov         byte ptr [edi+2],al
  00409D7E: 8A 46 01           mov         al,byte ptr [esi+1]
  00409D81: C1 E9 02           shr         ecx,2
  00409D84: 88 47 01           mov         byte ptr [edi+1],al
  00409D87: 83 EE 03           sub         esi,3
  00409D8A: 83 EF 03           sub         edi,3
  00409D8D: 83 F9 08           cmp         ecx,8
  00409D90: 0F 82 5A FF FF FF  jb          00409CF0
  00409D96: FD                 std
  00409D97: F3 A5              rep movs    dword ptr [edi],dword ptr [esi]
  00409D99: FC                 cld
  00409D9A: FF 24 95 10 9E 40  jmp         dword ptr [edx*4+00409E10h]
            00
  00409DA1: 8D 49 00           lea         ecx,[ecx]
  00409DA4: C4 9D 40 00 CC 9D  les         ebx,fword ptr [ebp+9DCC0040h]
  00409DAA: 40                 inc         eax
  00409DAB: 00 D4              add         ah,dl
  00409DAD: 9D                 popfd
  00409DAE: 40                 inc         eax
  00409DAF: 00 DC              add         ah,bl
  00409DB1: 9D                 popfd
  00409DB2: 40                 inc         eax
  00409DB3: 00 E4              add         ah,ah
  00409DB5: 9D                 popfd
  00409DB6: 40                 inc         eax
  00409DB7: 00 EC              add         ah,ch
  00409DB9: 9D                 popfd
  00409DBA: 40                 inc         eax
  00409DBB: 00 F4              add         ah,dh
  00409DBD: 9D                 popfd
  00409DBE: 40                 inc         eax
  00409DBF: 00 07              add         byte ptr [edi],al
  00409DC1: 9E                 sahf
  00409DC2: 40                 inc         eax
  00409DC3: 00 8B 44 8E 1C 89  add         byte ptr [ebx+891C8E44h],cl
  00409DC9: 44                 inc         esp
  00409DCA: 8F 1C 8B           pop         dword ptr [ebx+ecx*4]
  00409DCD: 44                 inc         esp
  00409DCE: 8E 18              mov         ds,word ptr [eax]
  00409DD0: 89 44 8F 18        mov         dword ptr [edi+ecx*4+18h],eax
  00409DD4: 8B 44 8E 14        mov         eax,dword ptr [esi+ecx*4+14h]
  00409DD8: 89 44 8F 14        mov         dword ptr [edi+ecx*4+14h],eax
  00409DDC: 8B 44 8E 10        mov         eax,dword ptr [esi+ecx*4+10h]
  00409DE0: 89 44 8F 10        mov         dword ptr [edi+ecx*4+10h],eax
  00409DE4: 8B 44 8E 0C        mov         eax,dword ptr [esi+ecx*4+0Ch]
  00409DE8: 89 44 8F 0C        mov         dword ptr [edi+ecx*4+0Ch],eax
  00409DEC: 8B 44 8E 08        mov         eax,dword ptr [esi+ecx*4+8]
  00409DF0: 89 44 8F 08        mov         dword ptr [edi+ecx*4+8],eax
  00409DF4: 8B 44 8E 04        mov         eax,dword ptr [esi+ecx*4+4]
  00409DF8: 89 44 8F 04        mov         dword ptr [edi+ecx*4+4],eax
  00409DFC: 8D 04 8D 00 00 00  lea         eax,[ecx*4+00000000h]
            00
  00409E03: 03 F0              add         esi,eax
  00409E05: 03 F8              add         edi,eax
  00409E07: FF 24 95 10 9E 40  jmp         dword ptr [edx*4+00409E10h]
            00
  00409E0E: 8B FF              mov         edi,edi
  00409E10: 20 9E 40 00 28 9E  and         byte ptr [esi+9E280040h],bl
  00409E16: 40                 inc         eax
  00409E17: 00 38              add         byte ptr [eax],bh
  00409E19: 9E                 sahf
  00409E1A: 40                 inc         eax
  00409E1B: 00 4C 9E 40        add         byte ptr [esi+ebx*4+40h],cl
  00409E1F: 00 8B 45 08 5E 5F  add         byte ptr [ebx+5F5E0845h],cl
  00409E25: C9                 leave
  00409E26: C3                 ret
  00409E27: 90                 nop
  00409E28: 8A 46 03           mov         al,byte ptr [esi+3]
  00409E2B: 88 47 03           mov         byte ptr [edi+3],al
  00409E2E: 8B 45 08           mov         eax,dword ptr [ebp+8]
  00409E31: 5E                 pop         esi
  00409E32: 5F                 pop         edi
  00409E33: C9                 leave
  00409E34: C3                 ret
  00409E35: 8D 49 00           lea         ecx,[ecx]
  00409E38: 8A 46 03           mov         al,byte ptr [esi+3]
  00409E3B: 88 47 03           mov         byte ptr [edi+3],al
  00409E3E: 8A 46 02           mov         al,byte ptr [esi+2]
  00409E41: 88 47 02           mov         byte ptr [edi+2],al
  00409E44: 8B 45 08           mov         eax,dword ptr [ebp+8]
  00409E47: 5E                 pop         esi
  00409E48: 5F                 pop         edi
  00409E49: C9                 leave
  00409E4A: C3                 ret
  00409E4B: 90                 nop
  00409E4C: 8A 46 03           mov         al,byte ptr [esi+3]
  00409E4F: 88 47 03           mov         byte ptr [edi+3],al
  00409E52: 8A 46 02           mov         al,byte ptr [esi+2]
  00409E55: 88 47 02           mov         byte ptr [edi+2],al
  00409E58: 8A 46 01           mov         al,byte ptr [esi+1]
  00409E5B: 88 47 01           mov         byte ptr [edi+1],al
  00409E5E: 8B 45 08           mov         eax,dword ptr [ebp+8]
  00409E61: 5E                 pop         esi
  00409E62: 5F                 pop         edi
  00409E63: C9                 leave
  00409E64: C3                 ret
  00409E65: CC                 int         3
  00409E66: CC                 int         3
  00409E67: CC                 int         3
  00409E68: CC                 int         3
  00409E69: CC                 int         3
  00409E6A: CC                 int         3
  00409E6B: CC                 int         3
  00409E6C: CC                 int         3
  00409E6D: CC                 int         3
  00409E6E: CC                 int         3
  00409E6F: CC                 int         3
  00409E70: 55                 push        ebp
  00409E71: 8B EC              mov         ebp,esp
  00409E73: 83 EC 0C           sub         esp,0Ch
  00409E76: 8B 45 08           mov         eax,dword ptr [ebp+8]
  00409E79: 3B 05 80 0E 41 00  cmp         eax,dword ptr ds:[00410E80h]
  00409E7F: 73 1F              jae         00409EA0
  00409E81: 8B 4D 08           mov         ecx,dword ptr [ebp+8]
  00409E84: C1 F9 05           sar         ecx,5
  00409E87: 8B 55 08           mov         edx,dword ptr [ebp+8]
  00409E8A: 83 E2 1F           and         edx,1Fh
  00409E8D: 8B 04 8D 80 0D 41  mov         eax,dword ptr [ecx*4+00410D80h]
            00
  00409E94: 0F BE 4C D0 04     movsx       ecx,byte ptr [eax+edx*8+4]
  00409E99: 83 E1 01           and         ecx,1
  00409E9C: 85 C9              test        ecx,ecx
  00409E9E: 75 1C              jne         00409EBC
  00409EA0: C7 05 40 F9 40 00  mov         dword ptr ds:[0040F940h],9
            09 00 00 00
  00409EAA: C7 05 44 F9 40 00  mov         dword ptr ds:[0040F944h],0
            00 00 00 00
  00409EB4: 83 C8 FF           or          eax,0FFh
  00409EB7: E9 9E 00 00 00     jmp         00409F5A
  00409EBC: 8B 55 08           mov         edx,dword ptr [ebp+8]
  00409EBF: 52                 push        edx
  00409EC0: E8 9B 07 00 00     call        0040A660
  00409EC5: 83 C4 04           add         esp,4
  00409EC8: 89 45 F4           mov         dword ptr [ebp-0Ch],eax
  00409ECB: 83 7D F4 FF        cmp         dword ptr [ebp-0Ch],0FFh
  00409ECF: 75 0F              jne         00409EE0
  00409ED1: C7 05 40 F9 40 00  mov         dword ptr ds:[0040F940h],9
            09 00 00 00
  00409EDB: 83 C8 FF           or          eax,0FFh
  00409EDE: EB 7A              jmp         00409F5A
  00409EE0: 8B 45 10           mov         eax,dword ptr [ebp+10h]
  00409EE3: 50                 push        eax
  00409EE4: 6A 00              push        0
  00409EE6: 8B 4D 0C           mov         ecx,dword ptr [ebp+0Ch]
  00409EE9: 51                 push        ecx
  00409EEA: 8B 55 F4           mov         edx,dword ptr [ebp-0Ch]
  00409EED: 52                 push        edx
  00409EEE: FF 15 B8 B0 40 00  call        dword ptr ds:[0040B0B8h]
  00409EF4: 89 45 F8           mov         dword ptr [ebp-8],eax
  00409EF7: 83 7D F8 FF        cmp         dword ptr [ebp-8],0FFh
  00409EFB: 75 0B              jne         00409F08
  00409EFD: FF 15 7C B0 40 00  call        dword ptr ds:[0040B07Ch]
  00409F03: 89 45 FC           mov         dword ptr [ebp-4],eax
  00409F06: EB 07              jmp         00409F0F
  00409F08: C7 45 FC 00 00 00  mov         dword ptr [ebp-4],0
            00
  00409F0F: 83 7D FC 00        cmp         dword ptr [ebp-4],0
  00409F13: 74 11              je          00409F26
  00409F15: 8B 45 FC           mov         eax,dword ptr [ebp-4]
  00409F18: 50                 push        eax
  00409F19: E8 E2 05 00 00     call        0040A500
  00409F1E: 83 C4 04           add         esp,4
  00409F21: 83 C8 FF           or          eax,0FFh
  00409F24: EB 34              jmp         00409F5A
  00409F26: 8B 4D 08           mov         ecx,dword ptr [ebp+8]
  00409F29: C1 F9 05           sar         ecx,5
  00409F2C: 8B 55 08           mov         edx,dword ptr [ebp+8]
  00409F2F: 83 E2 1F           and         edx,1Fh
  00409F32: 8B 04 8D 80 0D 41  mov         eax,dword ptr [ecx*4+00410D80h]
            00
  00409F39: 8A 4C D0 04        mov         cl,byte ptr [eax+edx*8+4]
  00409F3D: 80 E1 FD           and         cl,0FDh
  00409F40: 8B 55 08           mov         edx,dword ptr [ebp+8]
  00409F43: C1 FA 05           sar         edx,5
  00409F46: 8B 45 08           mov         eax,dword ptr [ebp+8]
  00409F49: 83 E0 1F           and         eax,1Fh
  00409F4C: 8B 14 95 80 0D 41  mov         edx,dword ptr [edx*4+00410D80h]
            00
  00409F53: 88 4C C2 04        mov         byte ptr [edx+eax*8+4],cl
  00409F57: 8B 45 F8           mov         eax,dword ptr [ebp-8]
  00409F5A: 8B E5              mov         esp,ebp
  00409F5C: 5D                 pop         ebp
  00409F5D: C3                 ret
  00409F5E: CC                 int         3
  00409F5F: CC                 int         3
  00409F60: 55                 push        ebp
  00409F61: 8B EC              mov         ebp,esp
  00409F63: 81 EC 20 04 00 00  sub         esp,420h
  00409F69: 8B 45 08           mov         eax,dword ptr [ebp+8]
  00409F6C: 3B 05 80 0E 41 00  cmp         eax,dword ptr ds:[00410E80h]
  00409F72: 73 1F              jae         00409F93
  00409F74: 8B 4D 08           mov         ecx,dword ptr [ebp+8]
  00409F77: C1 F9 05           sar         ecx,5
  00409F7A: 8B 55 08           mov         edx,dword ptr [ebp+8]
  00409F7D: 83 E2 1F           and         edx,1Fh
  00409F80: 8B 04 8D 80 0D 41  mov         eax,dword ptr [ecx*4+00410D80h]
            00
  00409F87: 0F BE 4C D0 04     movsx       ecx,byte ptr [eax+edx*8+4]
  00409F8C: 83 E1 01           and         ecx,1
  00409F8F: 85 C9              test        ecx,ecx
  00409F91: 75 1C              jne         00409FAF
  00409F93: C7 05 40 F9 40 00  mov         dword ptr ds:[0040F940h],9
            09 00 00 00
  00409F9D: C7 05 44 F9 40 00  mov         dword ptr ds:[0040F944h],0
            00 00 00 00
  00409FA7: 83 C8 FF           or          eax,0FFh
  00409FAA: E9 4F 02 00 00     jmp         0040A1FE
  00409FAF: C7 45 F0 00 00 00  mov         dword ptr [ebp-10h],0
            00
  00409FB6: 8B 55 F0           mov         edx,dword ptr [ebp-10h]
  00409FB9: 89 95 E0 FB FF FF  mov         dword ptr [ebp+FFFFFBE0h],edx
  00409FBF: 83 7D 10 00        cmp         dword ptr [ebp+10h],0
  00409FC3: 75 07              jne         00409FCC
  00409FC5: 33 C0              xor         eax,eax
  00409FC7: E9 32 02 00 00     jmp         0040A1FE
  00409FCC: 8B 45 08           mov         eax,dword ptr [ebp+8]
  00409FCF: C1 F8 05           sar         eax,5
  00409FD2: 8B 4D 08           mov         ecx,dword ptr [ebp+8]
  00409FD5: 83 E1 1F           and         ecx,1Fh
  00409FD8: 8B 14 85 80 0D 41  mov         edx,dword ptr [eax*4+00410D80h]
            00
  00409FDF: 0F BE 44 CA 04     movsx       eax,byte ptr [edx+ecx*8+4]
  00409FE4: 83 E0 20           and         eax,20h
  00409FE7: 85 C0              test        eax,eax
  00409FE9: 74 10              je          00409FFB
  00409FEB: 6A 02              push        2
  00409FED: 6A 00              push        0
  00409FEF: 8B 4D 08           mov         ecx,dword ptr [ebp+8]
  00409FF2: 51                 push        ecx
  00409FF3: E8 78 FE FF FF     call        00409E70
  00409FF8: 83 C4 0C           add         esp,0Ch
  00409FFB: 8B 55 08           mov         edx,dword ptr [ebp+8]
  00409FFE: C1 FA 05           sar         edx,5
  0040A001: 8B 45 08           mov         eax,dword ptr [ebp+8]
  0040A004: 83 E0 1F           and         eax,1Fh
  0040A007: 8B 0C 95 80 0D 41  mov         ecx,dword ptr [edx*4+00410D80h]
            00
  0040A00E: 0F BE 54 C1 04     movsx       edx,byte ptr [ecx+eax*8+4]
  0040A013: 81 E2 80 00 00 00  and         edx,80h
  0040A019: 85 D2              test        edx,edx
  0040A01B: 0F 84 08 01 00 00  je          0040A129
  0040A021: 8B 45 0C           mov         eax,dword ptr [ebp+0Ch]
  0040A024: 89 45 FC           mov         dword ptr [ebp-4],eax
  0040A027: C7 45 F4 00 00 00  mov         dword ptr [ebp-0Ch],0
            00
  0040A02E: 8B 4D FC           mov         ecx,dword ptr [ebp-4]
  0040A031: 2B 4D 0C           sub         ecx,dword ptr [ebp+0Ch]
  0040A034: 3B 4D 10           cmp         ecx,dword ptr [ebp+10h]
  0040A037: 0F 83 EA 00 00 00  jae         0040A127
  0040A03D: 8D 95 EC FB FF FF  lea         edx,[ebp+FFFFFBECh]
  0040A043: 89 55 F8           mov         dword ptr [ebp-8],edx
  0040A046: 8B 45 F8           mov         eax,dword ptr [ebp-8]
  0040A049: 8D 8D EC FB FF FF  lea         ecx,[ebp+FFFFFBECh]
  0040A04F: 2B C1              sub         eax,ecx
  0040A051: 3D 00 04 00 00     cmp         eax,400h
  0040A056: 7D 5F              jge         0040A0B7
  0040A058: 8B 55 FC           mov         edx,dword ptr [ebp-4]
  0040A05B: 2B 55 0C           sub         edx,dword ptr [ebp+0Ch]
  0040A05E: 3B 55 10           cmp         edx,dword ptr [ebp+10h]
  0040A061: 73 54              jae         0040A0B7
  0040A063: 8B 45 FC           mov         eax,dword ptr [ebp-4]
  0040A066: 8A 08              mov         cl,byte ptr [eax]
  0040A068: 88 8D E4 FB FF FF  mov         byte ptr [ebp+FFFFFBE4h],cl
  0040A06E: 8B 55 FC           mov         edx,dword ptr [ebp-4]
  0040A071: 83 C2 01           add         edx,1
  0040A074: 89 55 FC           mov         dword ptr [ebp-4],edx
  0040A077: 0F BE 85 E4 FB FF  movsx       eax,byte ptr [ebp+FFFFFBE4h]
            FF
  0040A07E: 83 F8 0A           cmp         eax,0Ah
  0040A081: 75 1E              jne         0040A0A1
  0040A083: 8B 8D E0 FB FF FF  mov         ecx,dword ptr [ebp+FFFFFBE0h]
  0040A089: 83 C1 01           add         ecx,1
  0040A08C: 89 8D E0 FB FF FF  mov         dword ptr [ebp+FFFFFBE0h],ecx
  0040A092: 8B 55 F8           mov         edx,dword ptr [ebp-8]
  0040A095: C6 02 0D           mov         byte ptr [edx],0Dh
  0040A098: 8B 45 F8           mov         eax,dword ptr [ebp-8]
  0040A09B: 83 C0 01           add         eax,1
  0040A09E: 89 45 F8           mov         dword ptr [ebp-8],eax
  0040A0A1: 8B 4D F8           mov         ecx,dword ptr [ebp-8]
  0040A0A4: 8A 95 E4 FB FF FF  mov         dl,byte ptr [ebp+FFFFFBE4h]
  0040A0AA: 88 11              mov         byte ptr [ecx],dl
  0040A0AC: 8B 45 F8           mov         eax,dword ptr [ebp-8]
  0040A0AF: 83 C0 01           add         eax,1
  0040A0B2: 89 45 F8           mov         dword ptr [ebp-8],eax
  0040A0B5: EB 8F              jmp         0040A046
  0040A0B7: 6A 00              push        0
  0040A0B9: 8D 8D E8 FB FF FF  lea         ecx,[ebp+FFFFFBE8h]
  0040A0BF: 51                 push        ecx
  0040A0C0: 8B 55 F8           mov         edx,dword ptr [ebp-8]
  0040A0C3: 8D 85 EC FB FF FF  lea         eax,[ebp+FFFFFBECh]
  0040A0C9: 2B D0              sub         edx,eax
  0040A0CB: 52                 push        edx
  0040A0CC: 8D 8D EC FB FF FF  lea         ecx,[ebp+FFFFFBECh]
  0040A0D2: 51                 push        ecx
  0040A0D3: 8B 55 08           mov         edx,dword ptr [ebp+8]
  0040A0D6: C1 FA 05           sar         edx,5
  0040A0D9: 8B 45 08           mov         eax,dword ptr [ebp+8]
  0040A0DC: 83 E0 1F           and         eax,1Fh
  0040A0DF: 8B 0C 95 80 0D 41  mov         ecx,dword ptr [edx*4+00410D80h]
            00
  0040A0E6: 8B 14 C1           mov         edx,dword ptr [ecx+eax*8]
  0040A0E9: 52                 push        edx
  0040A0EA: FF 15 14 B0 40 00  call        dword ptr ds:[0040B014h]
  0040A0F0: 85 C0              test        eax,eax
  0040A0F2: 74 23              je          0040A117
  0040A0F4: 8B 45 F0           mov         eax,dword ptr [ebp-10h]
  0040A0F7: 03 85 E8 FB FF FF  add         eax,dword ptr [ebp+FFFFFBE8h]
  0040A0FD: 89 45 F0           mov         dword ptr [ebp-10h],eax
  0040A100: 8B 4D F8           mov         ecx,dword ptr [ebp-8]
  0040A103: 8D 95 EC FB FF FF  lea         edx,[ebp+FFFFFBECh]
  0040A109: 2B CA              sub         ecx,edx
  0040A10B: 39 8D E8 FB FF FF  cmp         dword ptr [ebp+FFFFFBE8h],ecx
  0040A111: 7D 02              jge         0040A115
  0040A113: EB 12              jmp         0040A127
  0040A115: EB 0B              jmp         0040A122
  0040A117: FF 15 7C B0 40 00  call        dword ptr ds:[0040B07Ch]
  0040A11D: 89 45 F4           mov         dword ptr [ebp-0Ch],eax
  0040A120: EB 05              jmp         0040A127
  0040A122: E9 07 FF FF FF     jmp         0040A02E
  0040A127: EB 4D              jmp         0040A176
  0040A129: 6A 00              push        0
  0040A12B: 8D 85 E8 FB FF FF  lea         eax,[ebp+FFFFFBE8h]
  0040A131: 50                 push        eax
  0040A132: 8B 4D 10           mov         ecx,dword ptr [ebp+10h]
  0040A135: 51                 push        ecx
  0040A136: 8B 55 0C           mov         edx,dword ptr [ebp+0Ch]
  0040A139: 52                 push        edx
  0040A13A: 8B 45 08           mov         eax,dword ptr [ebp+8]
  0040A13D: C1 F8 05           sar         eax,5
  0040A140: 8B 4D 08           mov         ecx,dword ptr [ebp+8]
  0040A143: 83 E1 1F           and         ecx,1Fh
  0040A146: 8B 14 85 80 0D 41  mov         edx,dword ptr [eax*4+00410D80h]
            00
  0040A14D: 8B 04 CA           mov         eax,dword ptr [edx+ecx*8]
  0040A150: 50                 push        eax
  0040A151: FF 15 14 B0 40 00  call        dword ptr ds:[0040B014h]
  0040A157: 85 C0              test        eax,eax
  0040A159: 74 12              je          0040A16D
  0040A15B: C7 45 F4 00 00 00  mov         dword ptr [ebp-0Ch],0
            00
  0040A162: 8B 8D E8 FB FF FF  mov         ecx,dword ptr [ebp+FFFFFBE8h]
  0040A168: 89 4D F0           mov         dword ptr [ebp-10h],ecx
  0040A16B: EB 09              jmp         0040A176
  0040A16D: FF 15 7C B0 40 00  call        dword ptr ds:[0040B07Ch]
  0040A173: 89 45 F4           mov         dword ptr [ebp-0Ch],eax
  0040A176: 83 7D F0 00        cmp         dword ptr [ebp-10h],0
  0040A17A: 75 79              jne         0040A1F5
  0040A17C: 83 7D F4 00        cmp         dword ptr [ebp-0Ch],0
  0040A180: 74 2C              je          0040A1AE
  0040A182: 83 7D F4 05        cmp         dword ptr [ebp-0Ch],5
  0040A186: 75 15              jne         0040A19D
  0040A188: C7 05 40 F9 40 00  mov         dword ptr ds:[0040F940h],9
            09 00 00 00
  0040A192: 8B 55 F4           mov         edx,dword ptr [ebp-0Ch]
  0040A195: 89 15 44 F9 40 00  mov         dword ptr ds:[0040F944h],edx
  0040A19B: EB 0C              jmp         0040A1A9
  0040A19D: 8B 45 F4           mov         eax,dword ptr [ebp-0Ch]
  0040A1A0: 50                 push        eax
  0040A1A1: E8 5A 03 00 00     call        0040A500
  0040A1A6: 83 C4 04           add         esp,4
  0040A1A9: 83 C8 FF           or          eax,0FFh
  0040A1AC: EB 50              jmp         0040A1FE
  0040A1AE: 8B 4D 08           mov         ecx,dword ptr [ebp+8]
  0040A1B1: C1 F9 05           sar         ecx,5
  0040A1B4: 8B 55 08           mov         edx,dword ptr [ebp+8]
  0040A1B7: 83 E2 1F           and         edx,1Fh
  0040A1BA: 8B 04 8D 80 0D 41  mov         eax,dword ptr [ecx*4+00410D80h]
            00
  0040A1C1: 0F BE 4C D0 04     movsx       ecx,byte ptr [eax+edx*8+4]
  0040A1C6: 83 E1 40           and         ecx,40h
  0040A1C9: 85 C9              test        ecx,ecx
  0040A1CB: 74 0F              je          0040A1DC
  0040A1CD: 8B 55 0C           mov         edx,dword ptr [ebp+0Ch]
  0040A1D0: 0F BE 02           movsx       eax,byte ptr [edx]
  0040A1D3: 83 F8 1A           cmp         eax,1Ah
  0040A1D6: 75 04              jne         0040A1DC
  0040A1D8: 33 C0              xor         eax,eax
  0040A1DA: EB 22              jmp         0040A1FE
  0040A1DC: C7 05 40 F9 40 00  mov         dword ptr ds:[0040F940h],1Ch
            1C 00 00 00
  0040A1E6: C7 05 44 F9 40 00  mov         dword ptr ds:[0040F944h],0
            00 00 00 00
  0040A1F0: 83 C8 FF           or          eax,0FFh
  0040A1F3: EB 09              jmp         0040A1FE
  0040A1F5: 8B 45 F0           mov         eax,dword ptr [ebp-10h]
  0040A1F8: 2B 85 E0 FB FF FF  sub         eax,dword ptr [ebp+FFFFFBE0h]
  0040A1FE: 8B E5              mov         esp,ebp
  0040A200: 5D                 pop         ebp
  0040A201: C3                 ret
  0040A202: CC                 int         3
  0040A203: CC                 int         3
  0040A204: CC                 int         3
  0040A205: CC                 int         3
  0040A206: CC                 int         3
  0040A207: CC                 int         3
  0040A208: CC                 int         3
  0040A209: CC                 int         3
  0040A20A: CC                 int         3
  0040A20B: CC                 int         3
  0040A20C: CC                 int         3
  0040A20D: CC                 int         3
  0040A20E: CC                 int         3
  0040A20F: CC                 int         3
  0040A210: 55                 push        ebp
  0040A211: 8B EC              mov         ebp,esp
  0040A213: 51                 push        ecx
  0040A214: 53                 push        ebx
  0040A215: 56                 push        esi
  0040A216: 57                 push        edi
  0040A217: 83 7D 08 00        cmp         dword ptr [ebp+8],0
  0040A21B: 75 1E              jne         0040A23B
  0040A21D: 68 04 BD 40 00     push        40BD04h
  0040A222: 6A 00              push        0
  0040A224: 6A 2E              push        2Eh
  0040A226: 68 CC BD 40 00     push        40BDCCh
  0040A22B: 6A 02              push        2
  0040A22D: E8 2E 70 FF FF     call        00401260
  0040A232: 83 C4 14           add         esp,14h
  0040A235: 83 F8 01           cmp         eax,1
  0040A238: 75 01              jne         0040A23B
  0040A23A: CC                 int         3
  0040A23B: 33 C0              xor         eax,eax
  0040A23D: 85 C0              test        eax,eax
  0040A23F: 75 D6              jne         0040A217
  0040A241: 8B 0D 0C FB 40 00  mov         ecx,dword ptr ds:[0040FB0Ch]
  0040A247: 83 C1 01           add         ecx,1
  0040A24A: 89 0D 0C FB 40 00  mov         dword ptr ds:[0040FB0Ch],ecx
  0040A250: 8B 55 08           mov         edx,dword ptr [ebp+8]
  0040A253: 89 55 FC           mov         dword ptr [ebp-4],edx
  0040A256: 6A 3B              push        3Bh
  0040A258: 68 CC BD 40 00     push        40BDCCh
  0040A25D: 6A 02              push        2
  0040A25F: 68 00 10 00 00     push        1000h
  0040A264: E8 67 95 FF FF     call        004037D0
  0040A269: 83 C4 10           add         esp,10h
  0040A26C: 8B 4D FC           mov         ecx,dword ptr [ebp-4]
  0040A26F: 89 41 08           mov         dword ptr [ecx+8],eax
  0040A272: 8B 55 FC           mov         edx,dword ptr [ebp-4]
  0040A275: 83 7A 08 00        cmp         dword ptr [edx+8],0
  0040A279: 74 1B              je          0040A296
  0040A27B: 8B 45 FC           mov         eax,dword ptr [ebp-4]
  0040A27E: 8B 48 0C           mov         ecx,dword ptr [eax+0Ch]
  0040A281: 83 C9 08           or          ecx,8
  0040A284: 8B 55 FC           mov         edx,dword ptr [ebp-4]
  0040A287: 89 4A 0C           mov         dword ptr [edx+0Ch],ecx
  0040A28A: 8B 45 FC           mov         eax,dword ptr [ebp-4]
  0040A28D: C7 40 18 00 10 00  mov         dword ptr [eax+18h],1000h
            00
  0040A294: EB 25              jmp         0040A2BB
  0040A296: 8B 4D FC           mov         ecx,dword ptr [ebp-4]
  0040A299: 8B 51 0C           mov         edx,dword ptr [ecx+0Ch]
  0040A29C: 83 CA 04           or          edx,4
  0040A29F: 8B 45 FC           mov         eax,dword ptr [ebp-4]
  0040A2A2: 89 50 0C           mov         dword ptr [eax+0Ch],edx
  0040A2A5: 8B 4D FC           mov         ecx,dword ptr [ebp-4]
  0040A2A8: 83 C1 14           add         ecx,14h
  0040A2AB: 8B 55 FC           mov         edx,dword ptr [ebp-4]
  0040A2AE: 89 4A 08           mov         dword ptr [edx+8],ecx
  0040A2B1: 8B 45 FC           mov         eax,dword ptr [ebp-4]
  0040A2B4: C7 40 18 02 00 00  mov         dword ptr [eax+18h],2
            00
  0040A2BB: 8B 4D FC           mov         ecx,dword ptr [ebp-4]
  0040A2BE: 8B 55 FC           mov         edx,dword ptr [ebp-4]
  0040A2C1: 8B 42 08           mov         eax,dword ptr [edx+8]
  0040A2C4: 89 01              mov         dword ptr [ecx],eax
  0040A2C6: 8B 4D FC           mov         ecx,dword ptr [ebp-4]
  0040A2C9: C7 41 04 00 00 00  mov         dword ptr [ecx+4],0
            00
  0040A2D0: 5F                 pop         edi
  0040A2D1: 5E                 pop         esi
  0040A2D2: 5B                 pop         ebx
  0040A2D3: 8B E5              mov         esp,ebp
  0040A2D5: 5D                 pop         ebp
  0040A2D6: C3                 ret
  0040A2D7: CC                 int         3
  0040A2D8: CC                 int         3
  0040A2D9: CC                 int         3
  0040A2DA: CC                 int         3
  0040A2DB: CC                 int         3
  0040A2DC: CC                 int         3
  0040A2DD: CC                 int         3
  0040A2DE: CC                 int         3
  0040A2DF: CC                 int         3
  0040A2E0: 55                 push        ebp
  0040A2E1: 8B EC              mov         ebp,esp
  0040A2E3: 8B 45 08           mov         eax,dword ptr [ebp+8]
  0040A2E6: 3B 05 80 0E 41 00  cmp         eax,dword ptr ds:[00410E80h]
  0040A2EC: 72 04              jb          0040A2F2
  0040A2EE: 33 C0              xor         eax,eax
  0040A2F0: EB 1B              jmp         0040A30D
  0040A2F2: 8B 4D 08           mov         ecx,dword ptr [ebp+8]
  0040A2F5: C1 F9 05           sar         ecx,5
  0040A2F8: 8B 55 08           mov         edx,dword ptr [ebp+8]
  0040A2FB: 83 E2 1F           and         edx,1Fh
  0040A2FE: 8B 04 8D 80 0D 41  mov         eax,dword ptr [ecx*4+00410D80h]
            00
  0040A305: 0F BE 44 D0 04     movsx       eax,byte ptr [eax+edx*8+4]
  0040A30A: 83 E0 40           and         eax,40h
  0040A30D: 5D                 pop         ebp
  0040A30E: C3                 ret
  0040A30F: CC                 int         3
  0040A310: 55                 push        ebp
  0040A311: 8B EC              mov         ebp,esp
  0040A313: 51                 push        ecx
  0040A314: 83 3D 20 0B 41 00  cmp         dword ptr ds:[00410B20h],0
            00
  0040A31B: 75 0C              jne         0040A329
  0040A31D: C7 05 20 0B 41 00  mov         dword ptr ds:[00410B20h],200h
            00 02 00 00
  0040A327: EB 13              jmp         0040A33C
  0040A329: 83 3D 20 0B 41 00  cmp         dword ptr ds:[00410B20h],14h
            14
  0040A330: 7D 0A              jge         0040A33C
  0040A332: C7 05 20 0B 41 00  mov         dword ptr ds:[00410B20h],14h
            14 00 00 00
  0040A33C: 68 83 00 00 00     push        83h
  0040A341: 68 D8 BD 40 00     push        40BDD8h
  0040A346: 6A 02              push        2
  0040A348: 6A 04              push        4
  0040A34A: A1 20 0B 41 00     mov         eax,[00410B20]
  0040A34F: 50                 push        eax
  0040A350: E8 1B 98 FF FF     call        00403B70
  0040A355: 83 C4 14           add         esp,14h
  0040A358: A3 14 FB 40 00     mov         [0040FB14],eax
  0040A35D: 83 3D 14 FB 40 00  cmp         dword ptr ds:[0040FB14h],0
            00
  0040A364: 75 3F              jne         0040A3A5
  0040A366: C7 05 20 0B 41 00  mov         dword ptr ds:[00410B20h],14h
            14 00 00 00
  0040A370: 68 86 00 00 00     push        86h
  0040A375: 68 D8 BD 40 00     push        40BDD8h
  0040A37A: 6A 02              push        2
  0040A37C: 6A 04              push        4
  0040A37E: 8B 0D 20 0B 41 00  mov         ecx,dword ptr ds:[00410B20h]
  0040A384: 51                 push        ecx
  0040A385: E8 E6 97 FF FF     call        00403B70
  0040A38A: 83 C4 14           add         esp,14h
  0040A38D: A3 14 FB 40 00     mov         [0040FB14],eax
  0040A392: 83 3D 14 FB 40 00  cmp         dword ptr ds:[0040FB14h],0
            00
  0040A399: 75 0A              jne         0040A3A5
  0040A39B: 6A 1A              push        1Ah
  0040A39D: E8 4E 6E FF FF     call        004011F0
  0040A3A2: 83 C4 04           add         esp,4
  0040A3A5: C7 45 FC 00 00 00  mov         dword ptr [ebp-4],0
            00
  0040A3AC: EB 09              jmp         0040A3B7
  0040A3AE: 8B 55 FC           mov         edx,dword ptr [ebp-4]
  0040A3B1: 83 C2 01           add         edx,1
  0040A3B4: 89 55 FC           mov         dword ptr [ebp-4],edx
  0040A3B7: 83 7D FC 14        cmp         dword ptr [ebp-4],14h
  0040A3BB: 7D 19              jge         0040A3D6
  0040A3BD: 8B 45 FC           mov         eax,dword ptr [ebp-4]
  0040A3C0: C1 E0 05           shl         eax,5
  0040A3C3: 05 30 F5 40 00     add         eax,40F530h
  0040A3C8: 8B 4D FC           mov         ecx,dword ptr [ebp-4]
  0040A3CB: 8B 15 14 FB 40 00  mov         edx,dword ptr ds:[0040FB14h]
  0040A3D1: 89 04 8A           mov         dword ptr [edx+ecx*4],eax
  0040A3D4: EB D8              jmp         0040A3AE
  0040A3D6: C7 45 FC 00 00 00  mov         dword ptr [ebp-4],0
            00
  0040A3DD: EB 09              jmp         0040A3E8
  0040A3DF: 8B 45 FC           mov         eax,dword ptr [ebp-4]
  0040A3E2: 83 C0 01           add         eax,1
  0040A3E5: 89 45 FC           mov         dword ptr [ebp-4],eax
  0040A3E8: 83 7D FC 03        cmp         dword ptr [ebp-4],3
  0040A3EC: 7D 44              jge         0040A432
  0040A3EE: 8B 4D FC           mov         ecx,dword ptr [ebp-4]
  0040A3F1: C1 F9 05           sar         ecx,5
  0040A3F4: 8B 55 FC           mov         edx,dword ptr [ebp-4]
  0040A3F7: 83 E2 1F           and         edx,1Fh
  0040A3FA: 8B 04 8D 80 0D 41  mov         eax,dword ptr [ecx*4+00410D80h]
            00
  0040A401: 83 3C D0 FF        cmp         dword ptr [eax+edx*8],0FFh
  0040A405: 74 19              je          0040A420
  0040A407: 8B 4D FC           mov         ecx,dword ptr [ebp-4]
  0040A40A: C1 F9 05           sar         ecx,5
  0040A40D: 8B 55 FC           mov         edx,dword ptr [ebp-4]
  0040A410: 83 E2 1F           and         edx,1Fh
  0040A413: 8B 04 8D 80 0D 41  mov         eax,dword ptr [ecx*4+00410D80h]
            00
  0040A41A: 83 3C D0 00        cmp         dword ptr [eax+edx*8],0
  0040A41E: 75 10              jne         0040A430
  0040A420: 8B 4D FC           mov         ecx,dword ptr [ebp-4]
  0040A423: C1 E1 05           shl         ecx,5
  0040A426: C7 81 40 F5 40 00  mov         dword ptr [ecx+0040F540h],0FFFFFFFFh
            FF FF FF FF
  0040A430: EB AD              jmp         0040A3DF
  0040A432: 8B E5              mov         esp,ebp
  0040A434: 5D                 pop         ebp
  0040A435: C3                 ret
  0040A436: CC                 int         3
  0040A437: CC                 int         3
  0040A438: CC                 int         3
  0040A439: CC                 int         3
  0040A43A: CC                 int         3
  0040A43B: CC                 int         3
  0040A43C: CC                 int         3
  0040A43D: CC                 int         3
  0040A43E: CC                 int         3
  0040A43F: CC                 int         3
  0040A440: 55                 push        ebp
  0040A441: 8B EC              mov         ebp,esp
  0040A443: E8 48 04 00 00     call        0040A890
  0040A448: 0F BE 05 80 F9 40  movsx       eax,byte ptr ds:[0040F980h]
            00
  0040A44F: 85 C0              test        eax,eax
  0040A451: 74 05              je          0040A458
  0040A453: E8 68 02 00 00     call        0040A6C0
  0040A458: 5D                 pop         ebp
  0040A459: C3                 ret
  0040A45A: CC                 int         3
  0040A45B: CC                 int         3
  0040A45C: CC                 int         3
  0040A45D: CC                 int         3
  0040A45E: CC                 int         3
  0040A45F: CC                 int         3
  0040A460: 55                 push        ebp
  0040A461: 8B EC              mov         ebp,esp
  0040A463: 83 EC 08           sub         esp,8
  0040A466: 83 7D 08 00        cmp         dword ptr [ebp+8],0
  0040A46A: 75 07              jne         0040A473
  0040A46C: 33 C0              xor         eax,eax
  0040A46E: E9 87 00 00 00     jmp         0040A4FA
  0040A473: 83 3D EC FA 40 00  cmp         dword ptr ds:[0040FAECh],0
            00
  0040A47A: 75 2D              jne         0040A4A9
  0040A47C: 8B 45 0C           mov         eax,dword ptr [ebp+0Ch]
  0040A47F: 25 FF FF 00 00     and         eax,0FFFFh
  0040A484: 3D FF 00 00 00     cmp         eax,0FFh
  0040A489: 7E 0F              jle         0040A49A
  0040A48B: C7 05 40 F9 40 00  mov         dword ptr ds:[0040F940h],2Ah
            2A 00 00 00
  0040A495: 83 C8 FF           or          eax,0FFh
  0040A498: EB 60              jmp         0040A4FA
  0040A49A: 8B 4D 08           mov         ecx,dword ptr [ebp+8]
  0040A49D: 8A 55 0C           mov         dl,byte ptr [ebp+0Ch]
  0040A4A0: 88 11              mov         byte ptr [ecx],dl
  0040A4A2: B8 01 00 00 00     mov         eax,1
  0040A4A7: EB 51              jmp         0040A4FA
  0040A4A9: C7 45 F8 00 00 00  mov         dword ptr [ebp-8],0
            00
  0040A4B0: 8D 45 F8           lea         eax,[ebp-8]
  0040A4B3: 50                 push        eax
  0040A4B4: 6A 00              push        0
  0040A4B6: 8B 0D 20 F5 40 00  mov         ecx,dword ptr ds:[0040F520h]
  0040A4BC: 51                 push        ecx
  0040A4BD: 8B 55 08           mov         edx,dword ptr [ebp+8]
  0040A4C0: 52                 push        edx
  0040A4C1: 6A 01              push        1
  0040A4C3: 8D 45 0C           lea         eax,[ebp+0Ch]
  0040A4C6: 50                 push        eax
  0040A4C7: 68 20 02 00 00     push        220h
  0040A4CC: 8B 0D FC FA 40 00  mov         ecx,dword ptr ds:[0040FAFCh]
  0040A4D2: 51                 push        ecx
  0040A4D3: FF 15 44 B0 40 00  call        dword ptr ds:[0040B044h]
  0040A4D9: 89 45 FC           mov         dword ptr [ebp-4],eax
  0040A4DC: 83 7D FC 00        cmp         dword ptr [ebp-4],0
  0040A4E0: 74 06              je          0040A4E8
  0040A4E2: 83 7D F8 00        cmp         dword ptr [ebp-8],0
  0040A4E6: 74 0F              je          0040A4F7
  0040A4E8: C7 05 40 F9 40 00  mov         dword ptr ds:[0040F940h],2Ah
            2A 00 00 00
  0040A4F2: 83 C8 FF           or          eax,0FFh
  0040A4F5: EB 03              jmp         0040A4FA
  0040A4F7: 8B 45 FC           mov         eax,dword ptr [ebp-4]
  0040A4FA: 8B E5              mov         esp,ebp
  0040A4FC: 5D                 pop         ebp
  0040A4FD: C3                 ret
  0040A4FE: CC                 int         3
  0040A4FF: CC                 int         3
  0040A500: 55                 push        ebp
  0040A501: 8B EC              mov         ebp,esp
  0040A503: 51                 push        ecx
  0040A504: 8B 45 08           mov         eax,dword ptr [ebp+8]
  0040A507: A3 44 F9 40 00     mov         [0040F944],eax
  0040A50C: C7 45 FC 00 00 00  mov         dword ptr [ebp-4],0
            00
  0040A513: EB 09              jmp         0040A51E
  0040A515: 8B 4D FC           mov         ecx,dword ptr [ebp-4]
  0040A518: 83 C1 01           add         ecx,1
  0040A51B: 89 4D FC           mov         dword ptr [ebp-4],ecx
  0040A51E: 83 7D FC 2D        cmp         dword ptr [ebp-4],2Dh
  0040A522: 73 23              jae         0040A547
  0040A524: 8B 55 FC           mov         edx,dword ptr [ebp-4]
  0040A527: 8B 45 08           mov         eax,dword ptr [ebp+8]
  0040A52A: 3B 04 D5 C8 F7 40  cmp         eax,dword ptr [edx*8+0040F7C8h]
            00
  0040A531: 75 12              jne         0040A545
  0040A533: 8B 4D FC           mov         ecx,dword ptr [ebp-4]
  0040A536: 8B 14 CD CC F7 40  mov         edx,dword ptr [ecx*8+0040F7CCh]
            00
  0040A53D: 89 15 40 F9 40 00  mov         dword ptr ds:[0040F940h],edx
  0040A543: EB 42              jmp         0040A587
  0040A545: EB CE              jmp         0040A515
  0040A547: 83 7D 08 13        cmp         dword ptr [ebp+8],13h
  0040A54B: 72 12              jb          0040A55F
  0040A54D: 83 7D 08 24        cmp         dword ptr [ebp+8],24h
  0040A551: 77 0C              ja          0040A55F
  0040A553: C7 05 40 F9 40 00  mov         dword ptr ds:[0040F940h],0Dh
            0D 00 00 00
  0040A55D: EB 28              jmp         0040A587
  0040A55F: 81 7D 08 BC 00 00  cmp         dword ptr [ebp+8],0BCh
            00
  0040A566: 72 15              jb          0040A57D
  0040A568: 81 7D 08 CA 00 00  cmp         dword ptr [ebp+8],0CAh
            00
  0040A56F: 77 0C              ja          0040A57D
  0040A571: C7 05 40 F9 40 00  mov         dword ptr ds:[0040F940h],8
            08 00 00 00
  0040A57B: EB 0A              jmp         0040A587
  0040A57D: C7 05 40 F9 40 00  mov         dword ptr ds:[0040F940h],16h
            16 00 00 00
  0040A587: 8B E5              mov         esp,ebp
  0040A589: 5D                 pop         ebp
  0040A58A: C3                 ret
  0040A58B: CC                 int         3
  0040A58C: CC                 int         3
  0040A58D: CC                 int         3
  0040A58E: CC                 int         3
  0040A58F: CC                 int         3
  0040A590: 55                 push        ebp
  0040A591: 8B EC              mov         ebp,esp
  0040A593: 51                 push        ecx
  0040A594: 8B 45 08           mov         eax,dword ptr [ebp+8]
  0040A597: 3B 05 80 0E 41 00  cmp         eax,dword ptr ds:[00410E80h]
  0040A59D: 0F 83 9B 00 00 00  jae         0040A63E
  0040A5A3: 8B 4D 08           mov         ecx,dword ptr [ebp+8]
  0040A5A6: C1 F9 05           sar         ecx,5
  0040A5A9: 8B 55 08           mov         edx,dword ptr [ebp+8]
  0040A5AC: 83 E2 1F           and         edx,1Fh
  0040A5AF: 8B 04 8D 80 0D 41  mov         eax,dword ptr [ecx*4+00410D80h]
            00
  0040A5B6: 0F BE 4C D0 04     movsx       ecx,byte ptr [eax+edx*8+4]
  0040A5BB: 83 E1 01           and         ecx,1
  0040A5BE: 85 C9              test        ecx,ecx
  0040A5C0: 74 7C              je          0040A63E
  0040A5C2: 8B 55 08           mov         edx,dword ptr [ebp+8]
  0040A5C5: C1 FA 05           sar         edx,5
  0040A5C8: 8B 45 08           mov         eax,dword ptr [ebp+8]
  0040A5CB: 83 E0 1F           and         eax,1Fh
  0040A5CE: 8B 0C 95 80 0D 41  mov         ecx,dword ptr [edx*4+00410D80h]
            00
  0040A5D5: 83 3C C1 FF        cmp         dword ptr [ecx+eax*8],0FFh
  0040A5D9: 74 63              je          0040A63E
  0040A5DB: 83 3D 40 D0 40 00  cmp         dword ptr ds:[0040D040h],1
            01
  0040A5E2: 75 3C              jne         0040A620
  0040A5E4: 8B 55 08           mov         edx,dword ptr [ebp+8]
  0040A5E7: 89 55 FC           mov         dword ptr [ebp-4],edx
  0040A5EA: 83 7D FC 00        cmp         dword ptr [ebp-4],0
  0040A5EE: 74 0E              je          0040A5FE
  0040A5F0: 83 7D FC 01        cmp         dword ptr [ebp-4],1
  0040A5F4: 74 14              je          0040A60A
  0040A5F6: 83 7D FC 02        cmp         dword ptr [ebp-4],2
  0040A5FA: 74 1A              je          0040A616
  0040A5FC: EB 22              jmp         0040A620
  0040A5FE: 6A 00              push        0
  0040A600: 6A F6              push        0F6h
  0040A602: FF 15 BC B0 40 00  call        dword ptr ds:[0040B0BCh]
  0040A608: EB 16              jmp         0040A620
  0040A60A: 6A 00              push        0
  0040A60C: 6A F5              push        0F5h
  0040A60E: FF 15 BC B0 40 00  call        dword ptr ds:[0040B0BCh]
  0040A614: EB 0A              jmp         0040A620
  0040A616: 6A 00              push        0
  0040A618: 6A F4              push        0F4h
  0040A61A: FF 15 BC B0 40 00  call        dword ptr ds:[0040B0BCh]
  0040A620: 8B 45 08           mov         eax,dword ptr [ebp+8]
  0040A623: C1 F8 05           sar         eax,5
  0040A626: 8B 4D 08           mov         ecx,dword ptr [ebp+8]
  0040A629: 83 E1 1F           and         ecx,1Fh
  0040A62C: 8B 14 85 80 0D 41  mov         edx,dword ptr [eax*4+00410D80h]
            00
  0040A633: C7 04 CA FF FF FF  mov         dword ptr [edx+ecx*8],0FFFFFFFFh
            FF
  0040A63A: 33 C0              xor         eax,eax
  0040A63C: EB 17              jmp         0040A655
  0040A63E: C7 05 40 F9 40 00  mov         dword ptr ds:[0040F940h],9
            09 00 00 00
  0040A648: C7 05 44 F9 40 00  mov         dword ptr ds:[0040F944h],0
            00 00 00 00
  0040A652: 83 C8 FF           or          eax,0FFh
  0040A655: 8B E5              mov         esp,ebp
  0040A657: 5D                 pop         ebp
  0040A658: C3                 ret
  0040A659: CC                 int         3
  0040A65A: CC                 int         3
  0040A65B: CC                 int         3
  0040A65C: CC                 int         3
  0040A65D: CC                 int         3
  0040A65E: CC                 int         3
  0040A65F: CC                 int         3
  0040A660: 55                 push        ebp
  0040A661: 8B EC              mov         ebp,esp
  0040A663: 8B 45 08           mov         eax,dword ptr [ebp+8]
  0040A666: 3B 05 80 0E 41 00  cmp         eax,dword ptr ds:[00410E80h]
  0040A66C: 73 37              jae         0040A6A5
  0040A66E: 8B 4D 08           mov         ecx,dword ptr [ebp+8]
  0040A671: C1 F9 05           sar         ecx,5
  0040A674: 8B 55 08           mov         edx,dword ptr [ebp+8]
  0040A677: 83 E2 1F           and         edx,1Fh
  0040A67A: 8B 04 8D 80 0D 41  mov         eax,dword ptr [ecx*4+00410D80h]
            00
  0040A681: 0F BE 4C D0 04     movsx       ecx,byte ptr [eax+edx*8+4]
  0040A686: 83 E1 01           and         ecx,1
  0040A689: 85 C9              test        ecx,ecx
  0040A68B: 74 18              je          0040A6A5
  0040A68D: 8B 55 08           mov         edx,dword ptr [ebp+8]
  0040A690: C1 FA 05           sar         edx,5
  0040A693: 8B 45 08           mov         eax,dword ptr [ebp+8]
  0040A696: 83 E0 1F           and         eax,1Fh
  0040A699: 8B 0C 95 80 0D 41  mov         ecx,dword ptr [edx*4+00410D80h]
            00
  0040A6A0: 8B 04 C1           mov         eax,dword ptr [ecx+eax*8]
  0040A6A3: EB 17              jmp         0040A6BC
  0040A6A5: C7 05 40 F9 40 00  mov         dword ptr ds:[0040F940h],9
            09 00 00 00
  0040A6AF: C7 05 44 F9 40 00  mov         dword ptr ds:[0040F944h],0
            00 00 00 00
  0040A6B9: 83 C8 FF           or          eax,0FFh
  0040A6BC: 5D                 pop         ebp
  0040A6BD: C3                 ret
  0040A6BE: CC                 int         3
  0040A6BF: CC                 int         3
  0040A6C0: 55                 push        ebp
  0040A6C1: 8B EC              mov         ebp,esp
  0040A6C3: 83 EC 08           sub         esp,8
  0040A6C6: C7 45 FC 00 00 00  mov         dword ptr [ebp-4],0
            00
  0040A6CD: C7 45 F8 03 00 00  mov         dword ptr [ebp-8],3
            00
  0040A6D4: EB 09              jmp         0040A6DF
  0040A6D6: 8B 45 F8           mov         eax,dword ptr [ebp-8]
  0040A6D9: 83 C0 01           add         eax,1
  0040A6DC: 89 45 F8           mov         dword ptr [ebp-8],eax
  0040A6DF: 8B 4D F8           mov         ecx,dword ptr [ebp-8]
  0040A6E2: 3B 0D 20 0B 41 00  cmp         ecx,dword ptr ds:[00410B20h]
  0040A6E8: 7D 7B              jge         0040A765
  0040A6EA: 8B 55 F8           mov         edx,dword ptr [ebp-8]
  0040A6ED: A1 14 FB 40 00     mov         eax,[0040FB14]
  0040A6F2: 83 3C 90 00        cmp         dword ptr [eax+edx*4],0
  0040A6F6: 74 68              je          0040A760
  0040A6F8: 8B 4D F8           mov         ecx,dword ptr [ebp-8]
  0040A6FB: 8B 15 14 FB 40 00  mov         edx,dword ptr ds:[0040FB14h]
  0040A701: 8B 04 8A           mov         eax,dword ptr [edx+ecx*4]
  0040A704: 8B 48 0C           mov         ecx,dword ptr [eax+0Ch]
  0040A707: 81 E1 83 00 00 00  and         ecx,83h
  0040A70D: 85 C9              test        ecx,ecx
  0040A70F: 74 22              je          0040A733
  0040A711: 8B 55 F8           mov         edx,dword ptr [ebp-8]
  0040A714: A1 14 FB 40 00     mov         eax,[0040FB14]
  0040A719: 8B 0C 90           mov         ecx,dword ptr [eax+edx*4]
  0040A71C: 51                 push        ecx
  0040A71D: E8 6E 02 00 00     call        0040A990
  0040A722: 83 C4 04           add         esp,4
  0040A725: 83 F8 FF           cmp         eax,0FFh
  0040A728: 74 09              je          0040A733
  0040A72A: 8B 55 FC           mov         edx,dword ptr [ebp-4]
  0040A72D: 83 C2 01           add         edx,1
  0040A730: 89 55 FC           mov         dword ptr [ebp-4],edx
  0040A733: 83 7D F8 14        cmp         dword ptr [ebp-8],14h
  0040A737: 7C 27              jl          0040A760
  0040A739: 6A 02              push        2
  0040A73B: 8B 45 F8           mov         eax,dword ptr [ebp-8]
  0040A73E: 8B 0D 14 FB 40 00  mov         ecx,dword ptr ds:[0040FB14h]
  0040A744: 8B 14 81           mov         edx,dword ptr [ecx+eax*4]
  0040A747: 52                 push        edx
  0040A748: E8 83 94 FF FF     call        00403BD0
  0040A74D: 83 C4 08           add         esp,8
  0040A750: 8B 45 F8           mov         eax,dword ptr [ebp-8]
  0040A753: 8B 0D 14 FB 40 00  mov         ecx,dword ptr ds:[0040FB14h]
  0040A759: C7 04 81 00 00 00  mov         dword ptr [ecx+eax*4],0
            00
  0040A760: E9 71 FF FF FF     jmp         0040A6D6
  0040A765: 8B 45 FC           mov         eax,dword ptr [ebp-4]
  0040A768: 8B E5              mov         esp,ebp
  0040A76A: 5D                 pop         ebp
  0040A76B: C3                 ret
  0040A76C: CC                 int         3
  0040A76D: CC                 int         3
  0040A76E: CC                 int         3
  0040A76F: CC                 int         3
  0040A770: 55                 push        ebp
  0040A771: 8B EC              mov         ebp,esp
  0040A773: 83 7D 08 00        cmp         dword ptr [ebp+8],0
  0040A777: 75 0C              jne         0040A785
  0040A779: 6A 00              push        0
  0040A77B: E8 20 01 00 00     call        0040A8A0
  0040A780: 83 C4 04           add         esp,4
  0040A783: EB 3C              jmp         0040A7C1
  0040A785: 8B 45 08           mov         eax,dword ptr [ebp+8]
  0040A788: 50                 push        eax
  0040A789: E8 42 00 00 00     call        0040A7D0
  0040A78E: 83 C4 04           add         esp,4
  0040A791: 85 C0              test        eax,eax
  0040A793: 74 05              je          0040A79A
  0040A795: 83 C8 FF           or          eax,0FFh
  0040A798: EB 27              jmp         0040A7C1
  0040A79A: 8B 4D 08           mov         ecx,dword ptr [ebp+8]
  0040A79D: 8B 51 0C           mov         edx,dword ptr [ecx+0Ch]
  0040A7A0: 81 E2 00 40 00 00  and         edx,4000h
  0040A7A6: 85 D2              test        edx,edx
  0040A7A8: 74 15              je          0040A7BF
  0040A7AA: 8B 45 08           mov         eax,dword ptr [ebp+8]
  0040A7AD: 8B 48 10           mov         ecx,dword ptr [eax+10h]
  0040A7B0: 51                 push        ecx
  0040A7B1: E8 BA 02 00 00     call        0040AA70
  0040A7B6: 83 C4 04           add         esp,4
  0040A7B9: F7 D8              neg         eax
  0040A7BB: 1B C0              sbb         eax,eax
  0040A7BD: EB 02              jmp         0040A7C1
  0040A7BF: 33 C0              xor         eax,eax
  0040A7C1: 5D                 pop         ebp
  0040A7C2: C3                 ret
  0040A7C3: CC                 int         3
  0040A7C4: CC                 int         3
  0040A7C5: CC                 int         3
  0040A7C6: CC                 int         3
  0040A7C7: CC                 int         3
  0040A7C8: CC                 int         3
  0040A7C9: CC                 int         3
  0040A7CA: CC                 int         3
  0040A7CB: CC                 int         3
  0040A7CC: CC                 int         3
  0040A7CD: CC                 int         3
  0040A7CE: CC                 int         3
  0040A7CF: CC                 int         3
  0040A7D0: 55                 push        ebp
  0040A7D1: 8B EC              mov         ebp,esp
  0040A7D3: 83 EC 0C           sub         esp,0Ch
  0040A7D6: C7 45 FC 00 00 00  mov         dword ptr [ebp-4],0
            00
  0040A7DD: 8B 45 08           mov         eax,dword ptr [ebp+8]
  0040A7E0: 89 45 F8           mov         dword ptr [ebp-8],eax
  0040A7E3: 8B 4D F8           mov         ecx,dword ptr [ebp-8]
  0040A7E6: 8B 51 0C           mov         edx,dword ptr [ecx+0Ch]
  0040A7E9: 83 E2 03           and         edx,3
  0040A7EC: 83 FA 02           cmp         edx,2
  0040A7EF: 75 7A              jne         0040A86B
  0040A7F1: 8B 45 F8           mov         eax,dword ptr [ebp-8]
  0040A7F4: 8B 48 0C           mov         ecx,dword ptr [eax+0Ch]
  0040A7F7: 81 E1 08 01 00 00  and         ecx,108h
  0040A7FD: 85 C9              test        ecx,ecx
  0040A7FF: 74 6A              je          0040A86B
  0040A801: 8B 55 F8           mov         edx,dword ptr [ebp-8]
  0040A804: 8B 45 F8           mov         eax,dword ptr [ebp-8]
  0040A807: 8B 0A              mov         ecx,dword ptr [edx]
  0040A809: 2B 48 08           sub         ecx,dword ptr [eax+8]
  0040A80C: 89 4D F4           mov         dword ptr [ebp-0Ch],ecx
  0040A80F: 83 7D F4 00        cmp         dword ptr [ebp-0Ch],0
  0040A813: 7E 56              jle         0040A86B
  0040A815: 8B 55 F4           mov         edx,dword ptr [ebp-0Ch]
  0040A818: 52                 push        edx
  0040A819: 8B 45 F8           mov         eax,dword ptr [ebp-8]
  0040A81C: 8B 48 08           mov         ecx,dword ptr [eax+8]
  0040A81F: 51                 push        ecx
  0040A820: 8B 55 F8           mov         edx,dword ptr [ebp-8]
  0040A823: 8B 42 10           mov         eax,dword ptr [edx+10h]
  0040A826: 50                 push        eax
  0040A827: E8 34 F7 FF FF     call        00409F60
  0040A82C: 83 C4 0C           add         esp,0Ch
  0040A82F: 3B 45 F4           cmp         eax,dword ptr [ebp-0Ch]
  0040A832: 75 21              jne         0040A855
  0040A834: 8B 4D F8           mov         ecx,dword ptr [ebp-8]
  0040A837: 8B 51 0C           mov         edx,dword ptr [ecx+0Ch]
  0040A83A: 81 E2 80 00 00 00  and         edx,80h
  0040A840: 85 D2              test        edx,edx
  0040A842: 74 0F              je          0040A853
  0040A844: 8B 45 F8           mov         eax,dword ptr [ebp-8]
  0040A847: 8B 48 0C           mov         ecx,dword ptr [eax+0Ch]
  0040A84A: 83 E1 FD           and         ecx,0FDh
  0040A84D: 8B 55 F8           mov         edx,dword ptr [ebp-8]
  0040A850: 89 4A 0C           mov         dword ptr [edx+0Ch],ecx
  0040A853: EB 16              jmp         0040A86B
  0040A855: 8B 45 F8           mov         eax,dword ptr [ebp-8]
  0040A858: 8B 48 0C           mov         ecx,dword ptr [eax+0Ch]
  0040A85B: 83 C9 20           or          ecx,20h
  0040A85E: 8B 55 F8           mov         edx,dword ptr [ebp-8]
  0040A861: 89 4A 0C           mov         dword ptr [edx+0Ch],ecx
  0040A864: C7 45 FC FF FF FF  mov         dword ptr [ebp-4],0FFFFFFFFh
            FF
  0040A86B: 8B 45 F8           mov         eax,dword ptr [ebp-8]
  0040A86E: 8B 4D F8           mov         ecx,dword ptr [ebp-8]
  0040A871: 8B 51 08           mov         edx,dword ptr [ecx+8]
  0040A874: 89 10              mov         dword ptr [eax],edx
  0040A876: 8B 45 F8           mov         eax,dword ptr [ebp-8]
  0040A879: C7 40 04 00 00 00  mov         dword ptr [eax+4],0
            00
  0040A880: 8B 45 FC           mov         eax,dword ptr [ebp-4]
  0040A883: 8B E5              mov         esp,ebp
  0040A885: 5D                 pop         ebp
  0040A886: C3                 ret
  0040A887: CC                 int         3
  0040A888: CC                 int         3
  0040A889: CC                 int         3
  0040A88A: CC                 int         3
  0040A88B: CC                 int         3
  0040A88C: CC                 int         3
  0040A88D: CC                 int         3
  0040A88E: CC                 int         3
  0040A88F: CC                 int         3
  0040A890: 55                 push        ebp
  0040A891: 8B EC              mov         ebp,esp
  0040A893: 6A 01              push        1
  0040A895: E8 06 00 00 00     call        0040A8A0
  0040A89A: 83 C4 04           add         esp,4
  0040A89D: 5D                 pop         ebp
  0040A89E: C3                 ret
  0040A89F: CC                 int         3
  0040A8A0: 55                 push        ebp
  0040A8A1: 8B EC              mov         ebp,esp
  0040A8A3: 83 EC 0C           sub         esp,0Ch
  0040A8A6: C7 45 FC 00 00 00  mov         dword ptr [ebp-4],0
            00
  0040A8AD: C7 45 F8 00 00 00  mov         dword ptr [ebp-8],0
            00
  0040A8B4: C7 45 F4 00 00 00  mov         dword ptr [ebp-0Ch],0
            00
  0040A8BB: EB 09              jmp         0040A8C6
  0040A8BD: 8B 45 F4           mov         eax,dword ptr [ebp-0Ch]
  0040A8C0: 83 C0 01           add         eax,1
  0040A8C3: 89 45 F4           mov         dword ptr [ebp-0Ch],eax
  0040A8C6: 8B 4D F4           mov         ecx,dword ptr [ebp-0Ch]
  0040A8C9: 3B 0D 20 0B 41 00  cmp         ecx,dword ptr ds:[00410B20h]
  0040A8CF: 0F 8D 97 00 00 00  jge         0040A96C
  0040A8D5: 8B 55 F4           mov         edx,dword ptr [ebp-0Ch]
  0040A8D8: A1 14 FB 40 00     mov         eax,[0040FB14]
  0040A8DD: 83 3C 90 00        cmp         dword ptr [eax+edx*4],0
  0040A8E1: 0F 84 80 00 00 00  je          0040A967
  0040A8E7: 8B 4D F4           mov         ecx,dword ptr [ebp-0Ch]
  0040A8EA: 8B 15 14 FB 40 00  mov         edx,dword ptr ds:[0040FB14h]
  0040A8F0: 8B 04 8A           mov         eax,dword ptr [edx+ecx*4]
  0040A8F3: 8B 48 0C           mov         ecx,dword ptr [eax+0Ch]
  0040A8F6: 81 E1 83 00 00 00  and         ecx,83h
  0040A8FC: 85 C9              test        ecx,ecx
  0040A8FE: 74 67              je          0040A967
  0040A900: 83 7D 08 01        cmp         dword ptr [ebp+8],1
  0040A904: 75 24              jne         0040A92A
  0040A906: 8B 55 F4           mov         edx,dword ptr [ebp-0Ch]
  0040A909: A1 14 FB 40 00     mov         eax,[0040FB14]
  0040A90E: 8B 0C 90           mov         ecx,dword ptr [eax+edx*4]
  0040A911: 51                 push        ecx
  0040A912: E8 59 FE FF FF     call        0040A770
  0040A917: 83 C4 04           add         esp,4
  0040A91A: 83 F8 FF           cmp         eax,0FFh
  0040A91D: 74 09              je          0040A928
  0040A91F: 8B 55 FC           mov         edx,dword ptr [ebp-4]
  0040A922: 83 C2 01           add         edx,1
  0040A925: 89 55 FC           mov         dword ptr [ebp-4],edx
  0040A928: EB 3D              jmp         0040A967
  0040A92A: 83 7D 08 00        cmp         dword ptr [ebp+8],0
  0040A92E: 75 37              jne         0040A967
  0040A930: 8B 45 F4           mov         eax,dword ptr [ebp-0Ch]
  0040A933: 8B 0D 14 FB 40 00  mov         ecx,dword ptr ds:[0040FB14h]
  0040A939: 8B 14 81           mov         edx,dword ptr [ecx+eax*4]
  0040A93C: 8B 42 0C           mov         eax,dword ptr [edx+0Ch]
  0040A93F: 83 E0 02           and         eax,2
  0040A942: 85 C0              test        eax,eax
  0040A944: 74 21              je          0040A967
  0040A946: 8B 4D F4           mov         ecx,dword ptr [ebp-0Ch]
  0040A949: 8B 15 14 FB 40 00  mov         edx,dword ptr ds:[0040FB14h]
  0040A94F: 8B 04 8A           mov         eax,dword ptr [edx+ecx*4]
  0040A952: 50                 push        eax
  0040A953: E8 18 FE FF FF     call        0040A770
  0040A958: 83 C4 04           add         esp,4
  0040A95B: 83 F8 FF           cmp         eax,0FFh
  0040A95E: 75 07              jne         0040A967
  0040A960: C7 45 F8 FF FF FF  mov         dword ptr [ebp-8],0FFFFFFFFh
            FF
  0040A967: E9 51 FF FF FF     jmp         0040A8BD
  0040A96C: 83 7D 08 01        cmp         dword ptr [ebp+8],1
  0040A970: 75 05              jne         0040A977
  0040A972: 8B 45 FC           mov         eax,dword ptr [ebp-4]
  0040A975: EB 03              jmp         0040A97A
  0040A977: 8B 45 F8           mov         eax,dword ptr [ebp-8]
  0040A97A: 8B E5              mov         esp,ebp
  0040A97C: 5D                 pop         ebp
  0040A97D: C3                 ret
  0040A97E: CC                 int         3
  0040A97F: CC                 int         3
  0040A980: 55                 push        ebp
  0040A981: 8B EC              mov         ebp,esp
  0040A983: 6A 02              push        2
  0040A985: E8 66 68 FF FF     call        004011F0
  0040A98A: 83 C4 04           add         esp,4
  0040A98D: 5D                 pop         ebp
  0040A98E: C3                 ret
  0040A98F: CC                 int         3
  0040A990: 55                 push        ebp
  0040A991: 8B EC              mov         ebp,esp
  0040A993: 83 EC 08           sub         esp,8
  0040A996: 53                 push        ebx
  0040A997: 56                 push        esi
  0040A998: 57                 push        edi
  0040A999: C7 45 FC FF FF FF  mov         dword ptr [ebp-4],0FFFFFFFFh
            FF
  0040A9A0: 8B 45 08           mov         eax,dword ptr [ebp+8]
  0040A9A3: 89 45 F8           mov         dword ptr [ebp-8],eax
  0040A9A6: 8B 4D F8           mov         ecx,dword ptr [ebp-8]
  0040A9A9: 8B 51 0C           mov         edx,dword ptr [ecx+0Ch]
  0040A9AC: 83 E2 40           and         edx,40h
  0040A9AF: 85 D2              test        edx,edx
  0040A9B1: 74 12              je          0040A9C5
  0040A9B3: 8B 45 F8           mov         eax,dword ptr [ebp-8]
  0040A9B6: C7 40 0C 00 00 00  mov         dword ptr [eax+0Ch],0
            00
  0040A9BD: 83 C8 FF           or          eax,0FFh
  0040A9C0: E9 A1 00 00 00     jmp         0040AA66
  0040A9C5: 83 7D 08 00        cmp         dword ptr [ebp+8],0
  0040A9C9: 75 1E              jne         0040A9E9
  0040A9CB: 68 04 BD 40 00     push        40BD04h
  0040A9D0: 6A 00              push        0
  0040A9D2: 6A 77              push        77h
  0040A9D4: 68 E0 BD 40 00     push        40BDE0h
  0040A9D9: 6A 02              push        2
  0040A9DB: E8 80 68 FF FF     call        00401260
  0040A9E0: 83 C4 14           add         esp,14h
  0040A9E3: 83 F8 01           cmp         eax,1
  0040A9E6: 75 01              jne         0040A9E9
  0040A9E8: CC                 int         3
  0040A9E9: 33 C9              xor         ecx,ecx
  0040A9EB: 85 C9              test        ecx,ecx
  0040A9ED: 75 D6              jne         0040A9C5
  0040A9EF: 8B 55 F8           mov         edx,dword ptr [ebp-8]
  0040A9F2: 8B 42 0C           mov         eax,dword ptr [edx+0Ch]
  0040A9F5: 25 83 00 00 00     and         eax,83h
  0040A9FA: 85 C0              test        eax,eax
  0040A9FC: 74 5B              je          0040AA59
  0040A9FE: 8B 4D F8           mov         ecx,dword ptr [ebp-8]
  0040AA01: 51                 push        ecx
  0040AA02: E8 C9 FD FF FF     call        0040A7D0
  0040AA07: 83 C4 04           add         esp,4
  0040AA0A: 89 45 FC           mov         dword ptr [ebp-4],eax
  0040AA0D: 8B 55 F8           mov         edx,dword ptr [ebp-8]
  0040AA10: 52                 push        edx
  0040AA11: E8 FA 01 00 00     call        0040AC10
  0040AA16: 83 C4 04           add         esp,4
  0040AA19: 8B 45 F8           mov         eax,dword ptr [ebp-8]
  0040AA1C: 8B 48 10           mov         ecx,dword ptr [eax+10h]
  0040AA1F: 51                 push        ecx
  0040AA20: E8 FB 00 00 00     call        0040AB20
  0040AA25: 83 C4 04           add         esp,4
  0040AA28: 85 C0              test        eax,eax
  0040AA2A: 7D 09              jge         0040AA35
  0040AA2C: C7 45 FC FF FF FF  mov         dword ptr [ebp-4],0FFFFFFFFh
            FF
  0040AA33: EB 24              jmp         0040AA59
  0040AA35: 8B 55 F8           mov         edx,dword ptr [ebp-8]
  0040AA38: 83 7A 1C 00        cmp         dword ptr [edx+1Ch],0
  0040AA3C: 74 1B              je          0040AA59
  0040AA3E: 6A 02              push        2
  0040AA40: 8B 45 F8           mov         eax,dword ptr [ebp-8]
  0040AA43: 8B 48 1C           mov         ecx,dword ptr [eax+1Ch]
  0040AA46: 51                 push        ecx
  0040AA47: E8 84 91 FF FF     call        00403BD0
  0040AA4C: 83 C4 08           add         esp,8
  0040AA4F: 8B 55 F8           mov         edx,dword ptr [ebp-8]
  0040AA52: C7 42 1C 00 00 00  mov         dword ptr [edx+1Ch],0
            00
  0040AA59: 8B 45 F8           mov         eax,dword ptr [ebp-8]
  0040AA5C: C7 40 0C 00 00 00  mov         dword ptr [eax+0Ch],0
            00
  0040AA63: 8B 45 FC           mov         eax,dword ptr [ebp-4]
  0040AA66: 5F                 pop         edi
  0040AA67: 5E                 pop         esi
  0040AA68: 5B                 pop         ebx
  0040AA69: 8B E5              mov         esp,ebp
  0040AA6B: 5D                 pop         ebp
  0040AA6C: C3                 ret
  0040AA6D: CC                 int         3
  0040AA6E: CC                 int         3
  0040AA6F: CC                 int         3
  0040AA70: 55                 push        ebp
  0040AA71: 8B EC              mov         ebp,esp
  0040AA73: 51                 push        ecx
  0040AA74: 8B 45 08           mov         eax,dword ptr [ebp+8]
  0040AA77: 3B 05 80 0E 41 00  cmp         eax,dword ptr ds:[00410E80h]
  0040AA7D: 73 1F              jae         0040AA9E
  0040AA7F: 8B 4D 08           mov         ecx,dword ptr [ebp+8]
  0040AA82: C1 F9 05           sar         ecx,5
  0040AA85: 8B 55 08           mov         edx,dword ptr [ebp+8]
  0040AA88: 83 E2 1F           and         edx,1Fh
  0040AA8B: 8B 04 8D 80 0D 41  mov         eax,dword ptr [ecx*4+00410D80h]
            00
  0040AA92: 0F BE 4C D0 04     movsx       ecx,byte ptr [eax+edx*8+4]
  0040AA97: 83 E1 01           and         ecx,1
  0040AA9A: 85 C9              test        ecx,ecx
  0040AA9C: 75 0F              jne         0040AAAD
  0040AA9E: C7 05 40 F9 40 00  mov         dword ptr ds:[0040F940h],9
            09 00 00 00
  0040AAA8: 83 C8 FF           or          eax,0FFh
  0040AAAB: EB 6D              jmp         0040AB1A
  0040AAAD: 8B 55 08           mov         edx,dword ptr [ebp+8]
  0040AAB0: C1 FA 05           sar         edx,5
  0040AAB3: 8B 45 08           mov         eax,dword ptr [ebp+8]
  0040AAB6: 83 E0 1F           and         eax,1Fh
  0040AAB9: 8B 0C 95 80 0D 41  mov         ecx,dword ptr [edx*4+00410D80h]
            00
  0040AAC0: 0F BE 54 C1 04     movsx       edx,byte ptr [ecx+eax*8+4]
  0040AAC5: 83 E2 01           and         edx,1
  0040AAC8: 85 D2              test        edx,edx
  0040AACA: 74 3A              je          0040AB06
  0040AACC: 8B 45 08           mov         eax,dword ptr [ebp+8]
  0040AACF: 50                 push        eax
  0040AAD0: E8 8B FB FF FF     call        0040A660
  0040AAD5: 83 C4 04           add         esp,4
  0040AAD8: 50                 push        eax
  0040AAD9: FF 15 C0 B0 40 00  call        dword ptr ds:[0040B0C0h]
  0040AADF: 85 C0              test        eax,eax
  0040AAE1: 75 0B              jne         0040AAEE
  0040AAE3: FF 15 7C B0 40 00  call        dword ptr ds:[0040B07Ch]
  0040AAE9: 89 45 FC           mov         dword ptr [ebp-4],eax
  0040AAEC: EB 07              jmp         0040AAF5
  0040AAEE: C7 45 FC 00 00 00  mov         dword ptr [ebp-4],0
            00
  0040AAF5: 83 7D FC 00        cmp         dword ptr [ebp-4],0
  0040AAF9: 75 02              jne         0040AAFD
  0040AAFB: EB 1A              jmp         0040AB17
  0040AAFD: 8B 4D FC           mov         ecx,dword ptr [ebp-4]
  0040AB00: 89 0D 44 F9 40 00  mov         dword ptr ds:[0040F944h],ecx
  0040AB06: C7 05 40 F9 40 00  mov         dword ptr ds:[0040F940h],9
            09 00 00 00
  0040AB10: C7 45 FC FF FF FF  mov         dword ptr [ebp-4],0FFFFFFFFh
            FF
  0040AB17: 8B 45 FC           mov         eax,dword ptr [ebp-4]
  0040AB1A: 8B E5              mov         esp,ebp
  0040AB1C: 5D                 pop         ebp
  0040AB1D: C3                 ret
  0040AB1E: CC                 int         3
  0040AB1F: CC                 int         3
  0040AB20: 55                 push        ebp
  0040AB21: 8B EC              mov         ebp,esp
  0040AB23: 51                 push        ecx
  0040AB24: 56                 push        esi
  0040AB25: 8B 45 08           mov         eax,dword ptr [ebp+8]
  0040AB28: 3B 05 80 0E 41 00  cmp         eax,dword ptr ds:[00410E80h]
  0040AB2E: 73 1F              jae         0040AB4F
  0040AB30: 8B 4D 08           mov         ecx,dword ptr [ebp+8]
  0040AB33: C1 F9 05           sar         ecx,5
  0040AB36: 8B 55 08           mov         edx,dword ptr [ebp+8]
  0040AB39: 83 E2 1F           and         edx,1Fh
  0040AB3C: 8B 04 8D 80 0D 41  mov         eax,dword ptr [ecx*4+00410D80h]
            00
  0040AB43: 0F BE 4C D0 04     movsx       ecx,byte ptr [eax+edx*8+4]
  0040AB48: 83 E1 01           and         ecx,1
  0040AB4B: 85 C9              test        ecx,ecx
  0040AB4D: 75 1C              jne         0040AB6B
  0040AB4F: C7 05 40 F9 40 00  mov         dword ptr ds:[0040F940h],9
            09 00 00 00
  0040AB59: C7 05 44 F9 40 00  mov         dword ptr ds:[0040F944h],0
            00 00 00 00
  0040AB63: 83 C8 FF           or          eax,0FFh
  0040AB66: E9 9D 00 00 00     jmp         0040AC08
  0040AB6B: 8B 55 08           mov         edx,dword ptr [ebp+8]
  0040AB6E: 52                 push        edx
  0040AB6F: E8 EC FA FF FF     call        0040A660
  0040AB74: 83 C4 04           add         esp,4
  0040AB77: 83 F8 FF           cmp         eax,0FFh
  0040AB7A: 74 3D              je          0040ABB9
  0040AB7C: 83 7D 08 01        cmp         dword ptr [ebp+8],1
  0040AB80: 74 06              je          0040AB88
  0040AB82: 83 7D 08 02        cmp         dword ptr [ebp+8],2
  0040AB86: 75 1A              jne         0040ABA2
  0040AB88: 6A 01              push        1
  0040AB8A: E8 D1 FA FF FF     call        0040A660
  0040AB8F: 83 C4 04           add         esp,4
  0040AB92: 8B F0              mov         esi,eax
  0040AB94: 6A 02              push        2
  0040AB96: E8 C5 FA FF FF     call        0040A660
  0040AB9B: 83 C4 04           add         esp,4
  0040AB9E: 3B F0              cmp         esi,eax
  0040ABA0: 74 17              je          0040ABB9
  0040ABA2: 8B 45 08           mov         eax,dword ptr [ebp+8]
  0040ABA5: 50                 push        eax
  0040ABA6: E8 B5 FA FF FF     call        0040A660
  0040ABAB: 83 C4 04           add         esp,4
  0040ABAE: 50                 push        eax
  0040ABAF: FF 15 C4 B0 40 00  call        dword ptr ds:[0040B0C4h]
  0040ABB5: 85 C0              test        eax,eax
  0040ABB7: 74 09              je          0040ABC2
  0040ABB9: C7 45 FC 00 00 00  mov         dword ptr [ebp-4],0
            00
  0040ABC0: EB 09              jmp         0040ABCB
  0040ABC2: FF 15 7C B0 40 00  call        dword ptr ds:[0040B07Ch]
  0040ABC8: 89 45 FC           mov         dword ptr [ebp-4],eax
  0040ABCB: 8B 4D 08           mov         ecx,dword ptr [ebp+8]
  0040ABCE: 51                 push        ecx
  0040ABCF: E8 BC F9 FF FF     call        0040A590
  0040ABD4: 83 C4 04           add         esp,4
  0040ABD7: 8B 55 08           mov         edx,dword ptr [ebp+8]
  0040ABDA: C1 FA 05           sar         edx,5
  0040ABDD: 8B 45 08           mov         eax,dword ptr [ebp+8]
  0040ABE0: 83 E0 1F           and         eax,1Fh
  0040ABE3: 8B 0C 95 80 0D 41  mov         ecx,dword ptr [edx*4+00410D80h]
            00
  0040ABEA: C6 44 C1 04 00     mov         byte ptr [ecx+eax*8+4],0
  0040ABEF: 83 7D FC 00        cmp         dword ptr [ebp-4],0
  0040ABF3: 74 11              je          0040AC06
  0040ABF5: 8B 55 FC           mov         edx,dword ptr [ebp-4]
  0040ABF8: 52                 push        edx
  0040ABF9: E8 02 F9 FF FF     call        0040A500
  0040ABFE: 83 C4 04           add         esp,4
  0040AC01: 83 C8 FF           or          eax,0FFh
  0040AC04: EB 02              jmp         0040AC08
  0040AC06: 33 C0              xor         eax,eax
  0040AC08: 5E                 pop         esi
  0040AC09: 8B E5              mov         esp,ebp
  0040AC0B: 5D                 pop         ebp
  0040AC0C: C3                 ret
  0040AC0D: CC                 int         3
  0040AC0E: CC                 int         3
  0040AC0F: CC                 int         3
  0040AC10: 55                 push        ebp
  0040AC11: 8B EC              mov         ebp,esp
  0040AC13: 53                 push        ebx
  0040AC14: 56                 push        esi
  0040AC15: 57                 push        edi
  0040AC16: 83 7D 08 00        cmp         dword ptr [ebp+8],0
  0040AC1A: 75 1E              jne         0040AC3A
  0040AC1C: 68 F8 BD 40 00     push        40BDF8h
  0040AC21: 6A 00              push        0
  0040AC23: 6A 30              push        30h
  0040AC25: 68 EC BD 40 00     push        40BDECh
  0040AC2A: 6A 02              push        2
  0040AC2C: E8 2F 66 FF FF     call        00401260
  0040AC31: 83 C4 14           add         esp,14h
  0040AC34: 83 F8 01           cmp         eax,1
  0040AC37: 75 01              jne         0040AC3A
  0040AC39: CC                 int         3
  0040AC3A: 33 C0              xor         eax,eax
  0040AC3C: 85 C0              test        eax,eax
  0040AC3E: 75 D6              jne         0040AC16
  0040AC40: 8B 4D 08           mov         ecx,dword ptr [ebp+8]
  0040AC43: 8B 51 0C           mov         edx,dword ptr [ecx+0Ch]
  0040AC46: 81 E2 83 00 00 00  and         edx,83h
  0040AC4C: 85 D2              test        edx,edx
  0040AC4E: 74 4D              je          0040AC9D
  0040AC50: 8B 45 08           mov         eax,dword ptr [ebp+8]
  0040AC53: 8B 48 0C           mov         ecx,dword ptr [eax+0Ch]
  0040AC56: 83 E1 08           and         ecx,8
  0040AC59: 85 C9              test        ecx,ecx
  0040AC5B: 74 40              je          0040AC9D
  0040AC5D: 6A 02              push        2
  0040AC5F: 8B 55 08           mov         edx,dword ptr [ebp+8]
  0040AC62: 8B 42 08           mov         eax,dword ptr [edx+8]
  0040AC65: 50                 push        eax
  0040AC66: E8 65 8F FF FF     call        00403BD0
  0040AC6B: 83 C4 08           add         esp,8
  0040AC6E: 8B 4D 08           mov         ecx,dword ptr [ebp+8]
  0040AC71: 8B 51 0C           mov         edx,dword ptr [ecx+0Ch]
  0040AC74: 81 E2 F7 FB FF FF  and         edx,0FFFFFBF7h
  0040AC7A: 8B 45 08           mov         eax,dword ptr [ebp+8]
  0040AC7D: 89 50 0C           mov         dword ptr [eax+0Ch],edx
  0040AC80: 8B 4D 08           mov         ecx,dword ptr [ebp+8]
  0040AC83: C7 01 00 00 00 00  mov         dword ptr [ecx],0
  0040AC89: 8B 55 08           mov         edx,dword ptr [ebp+8]
  0040AC8C: C7 42 08 00 00 00  mov         dword ptr [edx+8],0
            00
  0040AC93: 8B 45 08           mov         eax,dword ptr [ebp+8]
  0040AC96: C7 40 04 00 00 00  mov         dword ptr [eax+4],0
            00
  0040AC9D: 5F                 pop         edi
  0040AC9E: 5E                 pop         esi
  0040AC9F: 5B                 pop         ebx
  0040ACA0: 5D                 pop         ebp
  0040ACA1: C3                 ret
  0040ACA2: FF 25 78 B0 40 00  jmp         dword ptr ds:[0040B078h]

  Summary

        4000 .data
        2000 .rdata
        A000 .text
